
/mnt/d/ubuntuData/myOpenSource/ArmNeonOptimization/armAssembly/build_android/CMakeFiles/assemblyEx2Rgb2Gray.dir/assemblyEx2Rgb2Gray.cpp.o:     file format elf32-littlearm


Disassembly of section .text.stbi_failure_reason:

00000000 <stbi_failure_reason>:
   0:	4801      	ldr	r0, [pc, #4]	; (8 <stbi_failure_reason+0x8>)
   2:	4478      	add	r0, pc
   4:	6800      	ldr	r0, [r0, #0]
   6:	4770      	bx	lr
   8:	00000006 	.word	0x00000006

Disassembly of section .text.stbi_image_free:

00000000 <stbi_image_free>:
   0:	f7ff bffe 	b.w	0 <free>

Disassembly of section .text.stbi_set_flip_vertically_on_load:

00000000 <stbi_set_flip_vertically_on_load>:
   0:	4901      	ldr	r1, [pc, #4]	; (8 <stbi_set_flip_vertically_on_load+0x8>)
   2:	4479      	add	r1, pc
   4:	6048      	str	r0, [r1, #4]
   6:	4770      	bx	lr
   8:	00000006 	.word	0x00000006

Disassembly of section .text.stbi_load:

00000000 <stbi_load>:
   0:	b5f0      	push	{r4, r5, r6, r7, lr}
   2:	af03      	add	r7, sp, #12
   4:	e92d 0f00 	stmdb	sp!, {r8, r9, sl, fp}
   8:	b0b1      	sub	sp, #196	; 0xc4
   a:	468b      	mov	fp, r1
   c:	492d      	ldr	r1, [pc, #180]	; (c4 <stbi_load+0xc4>)
   e:	4698      	mov	r8, r3
  10:	4691      	mov	r9, r2
  12:	4479      	add	r1, pc
  14:	6809      	ldr	r1, [r1, #0]
  16:	6809      	ldr	r1, [r1, #0]
  18:	9130      	str	r1, [sp, #192]	; 0xc0
  1a:	a12b      	add	r1, pc, #172	; (adr r1, c8 <stbi_load+0xc8>)
  1c:	f7ff fffe 	bl	0 <fopen>
  20:	4604      	mov	r4, r0
  22:	b1e4      	cbz	r4, 5e <stbi_load+0x5e>
  24:	4829      	ldr	r0, [pc, #164]	; (cc <stbi_load+0xcc>)
  26:	2180      	movs	r1, #128	; 0x80
  28:	9409      	str	r4, [sp, #36]	; 0x24
  2a:	ad02      	add	r5, sp, #8
  2c:	4478      	add	r0, pc
  2e:	910b      	str	r1, [sp, #44]	; 0x2c
  30:	f105 0628 	add.w	r6, r5, #40	; 0x28
  34:	2280      	movs	r2, #128	; 0x80
  36:	edd0 0b00 	vldr	d16, [r0]
  3a:	6881      	ldr	r1, [r0, #8]
  3c:	2001      	movs	r0, #1
  3e:	900a      	str	r0, [sp, #40]	; 0x28
  40:	4620      	mov	r0, r4
  42:	edcd 0b06 	vstr	d16, [sp, #24]
  46:	9b06      	ldr	r3, [sp, #24]
  48:	962e      	str	r6, [sp, #184]	; 0xb8
  4a:	9108      	str	r1, [sp, #32]
  4c:	4631      	mov	r1, r6
  4e:	f8d7 a008 	ldr.w	sl, [r7, #8]
  52:	4798      	blx	r3
  54:	2800      	cmp	r0, #0
  56:	d009      	beq.n	6c <stbi_load+0x6c>
  58:	4428      	add	r0, r5
  5a:	3028      	adds	r0, #40	; 0x28
  5c:	e00c      	b.n	78 <stbi_load+0x78>
  5e:	481c      	ldr	r0, [pc, #112]	; (d0 <stbi_load+0xd0>)
  60:	2500      	movs	r5, #0
  62:	491c      	ldr	r1, [pc, #112]	; (d4 <stbi_load+0xd4>)
  64:	4478      	add	r0, pc
  66:	4479      	add	r1, pc
  68:	6001      	str	r1, [r0, #0]
  6a:	e01c      	b.n	a6 <stbi_load+0xa6>
  6c:	2000      	movs	r0, #0
  6e:	f88d 0030 	strb.w	r0, [sp, #48]	; 0x30
  72:	900a      	str	r0, [sp, #40]	; 0x28
  74:	f105 0029 	add.w	r0, r5, #41	; 0x29
  78:	e9cd 602c 	strd	r6, r0, [sp, #176]	; 0xb0
  7c:	4659      	mov	r1, fp
  7e:	902f      	str	r0, [sp, #188]	; 0xbc
  80:	a802      	add	r0, sp, #8
  82:	464a      	mov	r2, r9
  84:	4643      	mov	r3, r8
  86:	f8cd a000 	str.w	sl, [sp]
  8a:	f7ff fffe 	bl	0 <stbi_load>
  8e:	4605      	mov	r5, r0
  90:	b135      	cbz	r5, a0 <stbi_load+0xa0>
  92:	e9dd 012c 	ldrd	r0, r1, [sp, #176]	; 0xb0
  96:	2201      	movs	r2, #1
  98:	1a41      	subs	r1, r0, r1
  9a:	4620      	mov	r0, r4
  9c:	f7ff fffe 	bl	0 <fseek>
  a0:	4620      	mov	r0, r4
  a2:	f7ff fffe 	bl	0 <fclose>
  a6:	480c      	ldr	r0, [pc, #48]	; (d8 <stbi_load+0xd8>)
  a8:	9930      	ldr	r1, [sp, #192]	; 0xc0
  aa:	4478      	add	r0, pc
  ac:	6800      	ldr	r0, [r0, #0]
  ae:	6800      	ldr	r0, [r0, #0]
  b0:	1a40      	subs	r0, r0, r1
  b2:	bf01      	itttt	eq
  b4:	4628      	moveq	r0, r5
  b6:	b031      	addeq	sp, #196	; 0xc4
  b8:	e8bd 0f00 	ldmiaeq.w	sp!, {r8, r9, sl, fp}
  bc:	bdf0      	popeq	{r4, r5, r6, r7, pc}
  be:	f7ff fffe 	bl	0 <__stack_chk_fail>
  c2:	bf00      	nop
  c4:	000000ae 	.word	0x000000ae
  c8:	00006272 	.word	0x00006272
  cc:	0000009c 	.word	0x0000009c
  d0:	0000006c 	.word	0x0000006c
  d4:	0000006a 	.word	0x0000006a
  d8:	0000002a 	.word	0x0000002a

Disassembly of section .text.stbi_load_from_file:

00000000 <stbi_load_from_file>:
   0:	b5f0      	push	{r4, r5, r6, r7, lr}
   2:	af03      	add	r7, sp, #12
   4:	e92d 0700 	stmdb	sp!, {r8, r9, sl}
   8:	b0b2      	sub	sp, #200	; 0xc8
   a:	4604      	mov	r4, r0
   c:	4825      	ldr	r0, [pc, #148]	; (a4 <stbi_load_from_file+0xa4>)
   e:	468a      	mov	sl, r1
  10:	4925      	ldr	r1, [pc, #148]	; (a8 <stbi_load_from_file+0xa8>)
  12:	4478      	add	r0, pc
  14:	ad02      	add	r5, sp, #8
  16:	4479      	add	r1, pc
  18:	4698      	mov	r8, r3
  1a:	6800      	ldr	r0, [r0, #0]
  1c:	f105 0628 	add.w	r6, r5, #40	; 0x28
  20:	4691      	mov	r9, r2
  22:	2280      	movs	r2, #128	; 0x80
  24:	6800      	ldr	r0, [r0, #0]
  26:	9031      	str	r0, [sp, #196]	; 0xc4
  28:	2080      	movs	r0, #128	; 0x80
  2a:	edd1 0b00 	vldr	d16, [r1]
  2e:	9409      	str	r4, [sp, #36]	; 0x24
  30:	900b      	str	r0, [sp, #44]	; 0x2c
  32:	6888      	ldr	r0, [r1, #8]
  34:	2101      	movs	r1, #1
  36:	910a      	str	r1, [sp, #40]	; 0x28
  38:	4631      	mov	r1, r6
  3a:	edcd 0b06 	vstr	d16, [sp, #24]
  3e:	9b06      	ldr	r3, [sp, #24]
  40:	962e      	str	r6, [sp, #184]	; 0xb8
  42:	9008      	str	r0, [sp, #32]
  44:	4620      	mov	r0, r4
  46:	4798      	blx	r3
  48:	68b9      	ldr	r1, [r7, #8]
  4a:	2800      	cmp	r0, #0
  4c:	d002      	beq.n	54 <stbi_load_from_file+0x54>
  4e:	4428      	add	r0, r5
  50:	3028      	adds	r0, #40	; 0x28
  52:	e005      	b.n	60 <stbi_load_from_file+0x60>
  54:	2000      	movs	r0, #0
  56:	f88d 0030 	strb.w	r0, [sp, #48]	; 0x30
  5a:	900a      	str	r0, [sp, #40]	; 0x28
  5c:	f105 0029 	add.w	r0, r5, #41	; 0x29
  60:	e9cd 602c 	strd	r6, r0, [sp, #176]	; 0xb0
  64:	464a      	mov	r2, r9
  66:	902f      	str	r0, [sp, #188]	; 0xbc
  68:	a802      	add	r0, sp, #8
  6a:	9100      	str	r1, [sp, #0]
  6c:	4651      	mov	r1, sl
  6e:	4643      	mov	r3, r8
  70:	f7ff fffe 	bl	0 <stbi_load_from_file>
  74:	4605      	mov	r5, r0
  76:	b135      	cbz	r5, 86 <stbi_load_from_file+0x86>
  78:	e9dd 012c 	ldrd	r0, r1, [sp, #176]	; 0xb0
  7c:	2201      	movs	r2, #1
  7e:	1a41      	subs	r1, r0, r1
  80:	4620      	mov	r0, r4
  82:	f7ff fffe 	bl	0 <fseek>
  86:	4809      	ldr	r0, [pc, #36]	; (ac <stbi_load_from_file+0xac>)
  88:	9931      	ldr	r1, [sp, #196]	; 0xc4
  8a:	4478      	add	r0, pc
  8c:	6800      	ldr	r0, [r0, #0]
  8e:	6800      	ldr	r0, [r0, #0]
  90:	1a40      	subs	r0, r0, r1
  92:	bf01      	itttt	eq
  94:	4628      	moveq	r0, r5
  96:	b032      	addeq	sp, #200	; 0xc8
  98:	e8bd 0700 	ldmiaeq.w	sp!, {r8, r9, sl}
  9c:	bdf0      	popeq	{r4, r5, r6, r7, pc}
  9e:	f7ff fffe 	bl	0 <__stack_chk_fail>
  a2:	bf00      	nop
  a4:	0000008e 	.word	0x0000008e
  a8:	0000008e 	.word	0x0000008e
  ac:	0000001e 	.word	0x0000001e

Disassembly of section .text._ZL31stbi__load_and_postprocess_8bitP13stbi__contextPiS1_S1_i:

00000000 <_ZL31stbi__load_and_postprocess_8bitP13stbi__contextPiS1_S1_i>:
   0:	b5f0      	push	{r4, r5, r6, r7, lr}
   2:	af03      	add	r7, sp, #12
   4:	e92d 0f00 	stmdb	sp!, {r8, r9, sl, fp}
   8:	f5ad 6d02 	sub.w	sp, sp, #2080	; 0x820
   c:	b083      	sub	sp, #12
   e:	4689      	mov	r9, r1
  10:	495f      	ldr	r1, [pc, #380]	; (190 <_ZL31stbi__load_and_postprocess_8bitP13stbi__contextPiS1_S1_i+0x190>)
  12:	4616      	mov	r6, r2
  14:	aa07      	add	r2, sp, #28
  16:	4479      	add	r1, pc
  18:	68bc      	ldr	r4, [r7, #8]
  1a:	4698      	mov	r8, r3
  1c:	6809      	ldr	r1, [r1, #0]
  1e:	6809      	ldr	r1, [r1, #0]
  20:	f847 1c20 	str.w	r1, [r7, #-32]
  24:	2108      	movs	r1, #8
  26:	e9cd 4200 	strd	r4, r2, [sp]
  2a:	4632      	mov	r2, r6
  2c:	9102      	str	r1, [sp, #8]
  2e:	4649      	mov	r1, r9
  30:	f7ff fffe 	bl	0 <_ZL31stbi__load_and_postprocess_8bitP13stbi__contextPiS1_S1_i>
  34:	4605      	mov	r5, r0
  36:	b375      	cbz	r5, 96 <_ZL31stbi__load_and_postprocess_8bitP13stbi__contextPiS1_S1_i+0x96>
  38:	9807      	ldr	r0, [sp, #28]
  3a:	2808      	cmp	r0, #8
  3c:	d02e      	beq.n	9c <_ZL31stbi__load_and_postprocess_8bitP13stbi__contextPiS1_S1_i+0x9c>
  3e:	2810      	cmp	r0, #16
  40:	f040 809c 	bne.w	17c <_ZL31stbi__load_and_postprocess_8bitP13stbi__contextPiS1_S1_i+0x17c>
  44:	6830      	ldr	r0, [r6, #0]
  46:	2c00      	cmp	r4, #0
  48:	f8d9 1000 	ldr.w	r1, [r9]
  4c:	4622      	mov	r2, r4
  4e:	bf08      	it	eq
  50:	f8d8 2000 	ldreq.w	r2, [r8]
  54:	4348      	muls	r0, r1
  56:	fb00 fa02 	mul.w	sl, r0, r2
  5a:	4650      	mov	r0, sl
  5c:	f7ff fffe 	bl	0 <malloc>
  60:	4601      	mov	r1, r0
  62:	2800      	cmp	r0, #0
  64:	9106      	str	r1, [sp, #24]
  66:	d01b      	beq.n	a0 <_ZL31stbi__load_and_postprocess_8bitP13stbi__contextPiS1_S1_i+0xa0>
  68:	f1ba 0f01 	cmp.w	sl, #1
  6c:	db2d      	blt.n	ca <_ZL31stbi__load_and_postprocess_8bitP13stbi__contextPiS1_S1_i+0xca>
  6e:	f1ba 0f07 	cmp.w	sl, #7
  72:	d91d      	bls.n	b0 <_ZL31stbi__load_and_postprocess_8bitP13stbi__contextPiS1_S1_i+0xb0>
  74:	f02a 0007 	bic.w	r0, sl, #7
  78:	b1d0      	cbz	r0, b0 <_ZL31stbi__load_and_postprocess_8bitP13stbi__contextPiS1_S1_i+0xb0>
  7a:	9a06      	ldr	r2, [sp, #24]
  7c:	4601      	mov	r1, r0
  7e:	462b      	mov	r3, r5
  80:	f963 0a4d 	vld1.16	{d16-d17}, [r3]!
  84:	3908      	subs	r1, #8
  86:	efc8 0830 	vshrn.i16	d16, q8, #8
  8a:	f942 070d 	vst1.8	{d16}, [r2]!
  8e:	d1f7      	bne.n	80 <_ZL31stbi__load_and_postprocess_8bitP13stbi__contextPiS1_S1_i+0x80>
  90:	4582      	cmp	sl, r0
  92:	d10e      	bne.n	b2 <_ZL31stbi__load_and_postprocess_8bitP13stbi__contextPiS1_S1_i+0xb2>
  94:	e019      	b.n	ca <_ZL31stbi__load_and_postprocess_8bitP13stbi__contextPiS1_S1_i+0xca>
  96:	2000      	movs	r0, #0
  98:	9006      	str	r0, [sp, #24]
  9a:	e05d      	b.n	158 <_ZL31stbi__load_and_postprocess_8bitP13stbi__contextPiS1_S1_i+0x158>
  9c:	9506      	str	r5, [sp, #24]
  9e:	e019      	b.n	d4 <_ZL31stbi__load_and_postprocess_8bitP13stbi__contextPiS1_S1_i+0xd4>
  a0:	483c      	ldr	r0, [pc, #240]	; (194 <_ZL31stbi__load_and_postprocess_8bitP13stbi__contextPiS1_S1_i+0x194>)
  a2:	493d      	ldr	r1, [pc, #244]	; (198 <_ZL31stbi__load_and_postprocess_8bitP13stbi__contextPiS1_S1_i+0x198>)
  a4:	4478      	add	r0, pc
  a6:	4479      	add	r1, pc
  a8:	6001      	str	r1, [r0, #0]
  aa:	2000      	movs	r0, #0
  ac:	9006      	str	r0, [sp, #24]
  ae:	e00f      	b.n	d0 <_ZL31stbi__load_and_postprocess_8bitP13stbi__contextPiS1_S1_i+0xd0>
  b0:	2000      	movs	r0, #0
  b2:	9a06      	ldr	r2, [sp, #24]
  b4:	eb05 0140 	add.w	r1, r5, r0, lsl #1
  b8:	4402      	add	r2, r0
  ba:	ebaa 0000 	sub.w	r0, sl, r0
  be:	784b      	ldrb	r3, [r1, #1]
  c0:	3102      	adds	r1, #2
  c2:	f802 3b01 	strb.w	r3, [r2], #1
  c6:	3801      	subs	r0, #1
  c8:	d1f9      	bne.n	be <_ZL31stbi__load_and_postprocess_8bitP13stbi__contextPiS1_S1_i+0xbe>
  ca:	4628      	mov	r0, r5
  cc:	f7ff fffe 	bl	0 <free>
  d0:	2008      	movs	r0, #8
  d2:	9007      	str	r0, [sp, #28]
  d4:	4831      	ldr	r0, [pc, #196]	; (19c <_ZL31stbi__load_and_postprocess_8bitP13stbi__contextPiS1_S1_i+0x19c>)
  d6:	4478      	add	r0, pc
  d8:	6840      	ldr	r0, [r0, #4]
  da:	b3e8      	cbz	r0, 158 <_ZL31stbi__load_and_postprocess_8bitP13stbi__contextPiS1_S1_i+0x158>
  dc:	2c00      	cmp	r4, #0
  de:	bf08      	it	eq
  e0:	f8d8 4000 	ldreq.w	r4, [r8]
  e4:	6830      	ldr	r0, [r6, #0]
  e6:	1041      	asrs	r1, r0, #1
  e8:	2901      	cmp	r1, #1
  ea:	9105      	str	r1, [sp, #20]
  ec:	db34      	blt.n	158 <_ZL31stbi__load_and_postprocess_8bitP13stbi__contextPiS1_S1_i+0x158>
  ee:	f8d9 1000 	ldr.w	r1, [r9]
  f2:	fb01 f904 	mul.w	r9, r1, r4
  f6:	f1b9 0f00 	cmp.w	r9, #0
  fa:	d02d      	beq.n	158 <_ZL31stbi__load_and_postprocess_8bitP13stbi__contextPiS1_S1_i+0x158>
  fc:	f10d 0828 	add.w	r8, sp, #40	; 0x28
 100:	f04f 0a00 	mov.w	sl, #0
 104:	3801      	subs	r0, #1
 106:	9004      	str	r0, [sp, #16]
 108:	9804      	ldr	r0, [sp, #16]
 10a:	46cb      	mov	fp, r9
 10c:	9906      	ldr	r1, [sp, #24]
 10e:	fb0a 1609 	mla	r6, sl, r9, r1
 112:	eba0 000a 	sub.w	r0, r0, sl
 116:	fb00 1409 	mla	r4, r0, r9, r1
 11a:	f5bb 6f00 	cmp.w	fp, #2048	; 0x800
 11e:	465d      	mov	r5, fp
 120:	bf28      	it	cs
 122:	f44f 6500 	movcs.w	r5, #2048	; 0x800
 126:	4640      	mov	r0, r8
 128:	4631      	mov	r1, r6
 12a:	462a      	mov	r2, r5
 12c:	f7ff fffe 	bl	0 <__aeabi_memcpy>
 130:	4630      	mov	r0, r6
 132:	4621      	mov	r1, r4
 134:	462a      	mov	r2, r5
 136:	f7ff fffe 	bl	0 <__aeabi_memcpy>
 13a:	4620      	mov	r0, r4
 13c:	4641      	mov	r1, r8
 13e:	462a      	mov	r2, r5
 140:	f7ff fffe 	bl	0 <__aeabi_memcpy>
 144:	ebbb 0b05 	subs.w	fp, fp, r5
 148:	442c      	add	r4, r5
 14a:	442e      	add	r6, r5
 14c:	d1e5      	bne.n	11a <_ZL31stbi__load_and_postprocess_8bitP13stbi__contextPiS1_S1_i+0x11a>
 14e:	9805      	ldr	r0, [sp, #20]
 150:	f10a 0a01 	add.w	sl, sl, #1
 154:	4582      	cmp	sl, r0
 156:	d1d7      	bne.n	108 <_ZL31stbi__load_and_postprocess_8bitP13stbi__contextPiS1_S1_i+0x108>
 158:	481a      	ldr	r0, [pc, #104]	; (1c4 <_ZL31stbi__load_and_postprocess_8bitP13stbi__contextPiS1_S1_i+0x1c4>)
 15a:	f857 1c20 	ldr.w	r1, [r7, #-32]
 15e:	4478      	add	r0, pc
 160:	6800      	ldr	r0, [r0, #0]
 162:	6800      	ldr	r0, [r0, #0]
 164:	1a40      	subs	r0, r0, r1
 166:	bf01      	itttt	eq
 168:	9806      	ldreq	r0, [sp, #24]
 16a:	f50d 6d02 	addeq.w	sp, sp, #2080	; 0x820
 16e:	b003      	addeq	sp, #12
 170:	e8bd 0f00 	ldmiaeq.w	sp!, {r8, r9, sl, fp}
 174:	bf08      	it	eq
 176:	bdf0      	popeq	{r4, r5, r6, r7, pc}
 178:	f7ff fffe 	bl	0 <__stack_chk_fail>
 17c:	4808      	ldr	r0, [pc, #32]	; (1a0 <_ZL31stbi__load_and_postprocess_8bitP13stbi__contextPiS1_S1_i+0x1a0>)
 17e:	a30a      	add	r3, pc, #40	; (adr r3, 1a8 <_ZL31stbi__load_and_postprocess_8bitP13stbi__contextPiS1_S1_i+0x1a8>)
 180:	4a08      	ldr	r2, [pc, #32]	; (1a4 <_ZL31stbi__load_and_postprocess_8bitP13stbi__contextPiS1_S1_i+0x1a4>)
 182:	f44f 618d 	mov.w	r1, #1128	; 0x468
 186:	4478      	add	r0, pc
 188:	447a      	add	r2, pc
 18a:	f7ff fffe 	bl	0 <__assert2>
 18e:	bf00      	nop
 190:	00000176 	.word	0x00000176
 194:	000000f0 	.word	0x000000f0
 198:	000000ee 	.word	0x000000ee
 19c:	000000c6 	.word	0x000000c6
 1a0:	00000016 	.word	0x00000016
 1a4:	00000018 	.word	0x00000018
 1a8:	622e6972 	.word	0x622e6972
 1ac:	5f737469 	.word	0x5f737469
 1b0:	5f726570 	.word	0x5f726570
 1b4:	6e616863 	.word	0x6e616863
 1b8:	206c656e 	.word	0x206c656e
 1bc:	31203d3d 	.word	0x31203d3d
 1c0:	00000036 	.word	0x00000036
 1c4:	00000062 	.word	0x00000062

Disassembly of section .text.stbi_load_from_file_16:

00000000 <stbi_load_from_file_16>:
   0:	b5f0      	push	{r4, r5, r6, r7, lr}
   2:	af03      	add	r7, sp, #12
   4:	e92d 0700 	stmdb	sp!, {r8, r9, sl}
   8:	b0b2      	sub	sp, #200	; 0xc8
   a:	4604      	mov	r4, r0
   c:	4825      	ldr	r0, [pc, #148]	; (a4 <stbi_load_from_file_16+0xa4>)
   e:	468a      	mov	sl, r1
  10:	4925      	ldr	r1, [pc, #148]	; (a8 <stbi_load_from_file_16+0xa8>)
  12:	4478      	add	r0, pc
  14:	ad02      	add	r5, sp, #8
  16:	4479      	add	r1, pc
  18:	4698      	mov	r8, r3
  1a:	6800      	ldr	r0, [r0, #0]
  1c:	f105 0628 	add.w	r6, r5, #40	; 0x28
  20:	4691      	mov	r9, r2
  22:	2280      	movs	r2, #128	; 0x80
  24:	6800      	ldr	r0, [r0, #0]
  26:	9031      	str	r0, [sp, #196]	; 0xc4
  28:	2080      	movs	r0, #128	; 0x80
  2a:	edd1 0b00 	vldr	d16, [r1]
  2e:	9409      	str	r4, [sp, #36]	; 0x24
  30:	900b      	str	r0, [sp, #44]	; 0x2c
  32:	6888      	ldr	r0, [r1, #8]
  34:	2101      	movs	r1, #1
  36:	910a      	str	r1, [sp, #40]	; 0x28
  38:	4631      	mov	r1, r6
  3a:	edcd 0b06 	vstr	d16, [sp, #24]
  3e:	9b06      	ldr	r3, [sp, #24]
  40:	962e      	str	r6, [sp, #184]	; 0xb8
  42:	9008      	str	r0, [sp, #32]
  44:	4620      	mov	r0, r4
  46:	4798      	blx	r3
  48:	68b9      	ldr	r1, [r7, #8]
  4a:	2800      	cmp	r0, #0
  4c:	d002      	beq.n	54 <stbi_load_from_file_16+0x54>
  4e:	4428      	add	r0, r5
  50:	3028      	adds	r0, #40	; 0x28
  52:	e005      	b.n	60 <stbi_load_from_file_16+0x60>
  54:	2000      	movs	r0, #0
  56:	f88d 0030 	strb.w	r0, [sp, #48]	; 0x30
  5a:	900a      	str	r0, [sp, #40]	; 0x28
  5c:	f105 0029 	add.w	r0, r5, #41	; 0x29
  60:	e9cd 602c 	strd	r6, r0, [sp, #176]	; 0xb0
  64:	464a      	mov	r2, r9
  66:	902f      	str	r0, [sp, #188]	; 0xbc
  68:	a802      	add	r0, sp, #8
  6a:	9100      	str	r1, [sp, #0]
  6c:	4651      	mov	r1, sl
  6e:	4643      	mov	r3, r8
  70:	f7ff fffe 	bl	0 <stbi_load_from_file_16>
  74:	4605      	mov	r5, r0
  76:	b135      	cbz	r5, 86 <stbi_load_from_file_16+0x86>
  78:	e9dd 012c 	ldrd	r0, r1, [sp, #176]	; 0xb0
  7c:	2201      	movs	r2, #1
  7e:	1a41      	subs	r1, r0, r1
  80:	4620      	mov	r0, r4
  82:	f7ff fffe 	bl	0 <fseek>
  86:	4809      	ldr	r0, [pc, #36]	; (ac <stbi_load_from_file_16+0xac>)
  88:	9931      	ldr	r1, [sp, #196]	; 0xc4
  8a:	4478      	add	r0, pc
  8c:	6800      	ldr	r0, [r0, #0]
  8e:	6800      	ldr	r0, [r0, #0]
  90:	1a40      	subs	r0, r0, r1
  92:	bf01      	itttt	eq
  94:	4628      	moveq	r0, r5
  96:	b032      	addeq	sp, #200	; 0xc8
  98:	e8bd 0700 	ldmiaeq.w	sp!, {r8, r9, sl}
  9c:	bdf0      	popeq	{r4, r5, r6, r7, pc}
  9e:	f7ff fffe 	bl	0 <__stack_chk_fail>
  a2:	bf00      	nop
  a4:	0000008e 	.word	0x0000008e
  a8:	0000008e 	.word	0x0000008e
  ac:	0000001e 	.word	0x0000001e

Disassembly of section .text._ZL32stbi__load_and_postprocess_16bitP13stbi__contextPiS1_S1_i:

00000000 <_ZL32stbi__load_and_postprocess_16bitP13stbi__contextPiS1_S1_i>:
   0:	b5f0      	push	{r4, r5, r6, r7, lr}
   2:	af03      	add	r7, sp, #12
   4:	e92d 0f00 	stmdb	sp!, {r8, r9, sl, fp}
   8:	f5ad 6d03 	sub.w	sp, sp, #2096	; 0x830
   c:	b081      	sub	sp, #4
   e:	468a      	mov	sl, r1
  10:	4968      	ldr	r1, [pc, #416]	; (1b4 <_ZL32stbi__load_and_postprocess_16bitP13stbi__contextPiS1_S1_i+0x1b4>)
  12:	4616      	mov	r6, r2
  14:	aa09      	add	r2, sp, #36	; 0x24
  16:	4479      	add	r1, pc
  18:	68bc      	ldr	r4, [r7, #8]
  1a:	4698      	mov	r8, r3
  1c:	6809      	ldr	r1, [r1, #0]
  1e:	6809      	ldr	r1, [r1, #0]
  20:	f847 1c20 	str.w	r1, [r7, #-32]
  24:	2110      	movs	r1, #16
  26:	e9cd 4200 	strd	r4, r2, [sp]
  2a:	4632      	mov	r2, r6
  2c:	9102      	str	r1, [sp, #8]
  2e:	4651      	mov	r1, sl
  30:	f7ff fffe 	bl	0 <_ZL32stbi__load_and_postprocess_16bitP13stbi__contextPiS1_S1_i>
  34:	4601      	mov	r1, r0
  36:	2800      	cmp	r0, #0
  38:	9105      	str	r1, [sp, #20]
  3a:	d00d      	beq.n	58 <_ZL32stbi__load_and_postprocess_16bitP13stbi__contextPiS1_S1_i+0x58>
  3c:	9809      	ldr	r0, [sp, #36]	; 0x24
  3e:	2808      	cmp	r0, #8
  40:	d00d      	beq.n	5e <_ZL32stbi__load_and_postprocess_16bitP13stbi__contextPiS1_S1_i+0x5e>
  42:	2810      	cmp	r0, #16
  44:	d063      	beq.n	10e <_ZL32stbi__load_and_postprocess_16bitP13stbi__contextPiS1_S1_i+0x10e>
  46:	485f      	ldr	r0, [pc, #380]	; (1c4 <_ZL32stbi__load_and_postprocess_16bitP13stbi__contextPiS1_S1_i+0x1c4>)
  48:	a360      	add	r3, pc, #384	; (adr r3, 1cc <_ZL32stbi__load_and_postprocess_16bitP13stbi__contextPiS1_S1_i+0x1cc>)
  4a:	4a5f      	ldr	r2, [pc, #380]	; (1c8 <_ZL32stbi__load_and_postprocess_16bitP13stbi__contextPiS1_S1_i+0x1c8>)
  4c:	f44f 6190 	mov.w	r1, #1152	; 0x480
  50:	4478      	add	r0, pc
  52:	447a      	add	r2, pc
  54:	f7ff fffe 	bl	0 <__assert2>
  58:	2000      	movs	r0, #0
  5a:	9005      	str	r0, [sp, #20]
  5c:	e098      	b.n	190 <_ZL32stbi__load_and_postprocess_16bitP13stbi__contextPiS1_S1_i+0x190>
  5e:	6830      	ldr	r0, [r6, #0]
  60:	2c00      	cmp	r4, #0
  62:	f8da 1000 	ldr.w	r1, [sl]
  66:	4622      	mov	r2, r4
  68:	bf08      	it	eq
  6a:	f8d8 2000 	ldreq.w	r2, [r8]
  6e:	4348      	muls	r0, r1
  70:	fb00 fb02 	mul.w	fp, r0, r2
  74:	ea4f 004b 	mov.w	r0, fp, lsl #1
  78:	f7ff fffe 	bl	0 <malloc>
  7c:	4681      	mov	r9, r0
  7e:	f1b9 0f00 	cmp.w	r9, #0
  82:	d024      	beq.n	ce <_ZL32stbi__load_and_postprocess_16bitP13stbi__contextPiS1_S1_i+0xce>
  84:	f1bb 0f01 	cmp.w	fp, #1
  88:	db3a      	blt.n	100 <_ZL32stbi__load_and_postprocess_16bitP13stbi__contextPiS1_S1_i+0x100>
  8a:	f1bb 0f07 	cmp.w	fp, #7
  8e:	d926      	bls.n	de <_ZL32stbi__load_and_postprocess_16bitP13stbi__contextPiS1_S1_i+0xde>
  90:	f02b 0c07 	bic.w	ip, fp, #7
  94:	f1bc 0f00 	cmp.w	ip, #0
  98:	d021      	beq.n	de <_ZL32stbi__load_and_postprocess_16bitP13stbi__contextPiS1_S1_i+0xde>
  9a:	efc0 0e51 	vmov.i8	q8, #1	; 0x01
  9e:	9805      	ldr	r0, [sp, #20]
  a0:	f10d 0e18 	add.w	lr, sp, #24
  a4:	4662      	mov	r2, ip
  a6:	464b      	mov	r3, r9
  a8:	6845      	ldr	r5, [r0, #4]
  aa:	3a08      	subs	r2, #8
  ac:	6801      	ldr	r1, [r0, #0]
  ae:	f100 0008 	add.w	r0, r0, #8
  b2:	e9cd 1506 	strd	r1, r5, [sp, #24]
  b6:	f96e 271f 	vld1.8	{d18}, [lr :64]
  ba:	ffc8 2a32 	vmovl.u8	q9, d18
  be:	ef52 29f0 	vmul.i16	q9, q9, q8
  c2:	f943 2a4d 	vst1.16	{d18-d19}, [r3]!
  c6:	d1ef      	bne.n	a8 <_ZL32stbi__load_and_postprocess_16bitP13stbi__contextPiS1_S1_i+0xa8>
  c8:	45e3      	cmp	fp, ip
  ca:	d10a      	bne.n	e2 <_ZL32stbi__load_and_postprocess_16bitP13stbi__contextPiS1_S1_i+0xe2>
  cc:	e018      	b.n	100 <_ZL32stbi__load_and_postprocess_16bitP13stbi__contextPiS1_S1_i+0x100>
  ce:	483a      	ldr	r0, [pc, #232]	; (1b8 <_ZL32stbi__load_and_postprocess_16bitP13stbi__contextPiS1_S1_i+0x1b8>)
  d0:	f04f 0900 	mov.w	r9, #0
  d4:	4939      	ldr	r1, [pc, #228]	; (1bc <_ZL32stbi__load_and_postprocess_16bitP13stbi__contextPiS1_S1_i+0x1bc>)
  d6:	4478      	add	r0, pc
  d8:	4479      	add	r1, pc
  da:	6001      	str	r1, [r0, #0]
  dc:	e013      	b.n	106 <_ZL32stbi__load_and_postprocess_16bitP13stbi__contextPiS1_S1_i+0x106>
  de:	f04f 0c00 	mov.w	ip, #0
  e2:	9805      	ldr	r0, [sp, #20]
  e4:	eb09 024c 	add.w	r2, r9, ip, lsl #1
  e8:	eb00 010c 	add.w	r1, r0, ip
  ec:	ebab 000c 	sub.w	r0, fp, ip
  f0:	f811 3b01 	ldrb.w	r3, [r1], #1
  f4:	3801      	subs	r0, #1
  f6:	ea43 2303 	orr.w	r3, r3, r3, lsl #8
  fa:	f822 3b02 	strh.w	r3, [r2], #2
  fe:	d1f7      	bne.n	f0 <_ZL32stbi__load_and_postprocess_16bitP13stbi__contextPiS1_S1_i+0xf0>
 100:	9805      	ldr	r0, [sp, #20]
 102:	f7ff fffe 	bl	0 <free>
 106:	2010      	movs	r0, #16
 108:	f8cd 9014 	str.w	r9, [sp, #20]
 10c:	9009      	str	r0, [sp, #36]	; 0x24
 10e:	482c      	ldr	r0, [pc, #176]	; (1c0 <_ZL32stbi__load_and_postprocess_16bitP13stbi__contextPiS1_S1_i+0x1c0>)
 110:	4478      	add	r0, pc
 112:	6840      	ldr	r0, [r0, #4]
 114:	b3e0      	cbz	r0, 190 <_ZL32stbi__load_and_postprocess_16bitP13stbi__contextPiS1_S1_i+0x190>
 116:	2c00      	cmp	r4, #0
 118:	bf08      	it	eq
 11a:	f8d8 4000 	ldreq.w	r4, [r8]
 11e:	6830      	ldr	r0, [r6, #0]
 120:	1041      	asrs	r1, r0, #1
 122:	2901      	cmp	r1, #1
 124:	9104      	str	r1, [sp, #16]
 126:	db33      	blt.n	190 <_ZL32stbi__load_and_postprocess_16bitP13stbi__contextPiS1_S1_i+0x190>
 128:	f8da 1000 	ldr.w	r1, [sl]
 12c:	4361      	muls	r1, r4
 12e:	ea5f 0b41 	movs.w	fp, r1, lsl #1
 132:	d02d      	beq.n	190 <_ZL32stbi__load_and_postprocess_16bitP13stbi__contextPiS1_S1_i+0x190>
 134:	f10d 0830 	add.w	r8, sp, #48	; 0x30
 138:	f04f 0900 	mov.w	r9, #0
 13c:	3801      	subs	r0, #1
 13e:	9003      	str	r0, [sp, #12]
 140:	9803      	ldr	r0, [sp, #12]
 142:	46da      	mov	sl, fp
 144:	9905      	ldr	r1, [sp, #20]
 146:	fb09 160b 	mla	r6, r9, fp, r1
 14a:	eba0 0009 	sub.w	r0, r0, r9
 14e:	fb00 140b 	mla	r4, r0, fp, r1
 152:	f5ba 6f00 	cmp.w	sl, #2048	; 0x800
 156:	4655      	mov	r5, sl
 158:	bf28      	it	cs
 15a:	f44f 6500 	movcs.w	r5, #2048	; 0x800
 15e:	4640      	mov	r0, r8
 160:	4631      	mov	r1, r6
 162:	462a      	mov	r2, r5
 164:	f7ff fffe 	bl	0 <__aeabi_memcpy>
 168:	4630      	mov	r0, r6
 16a:	4621      	mov	r1, r4
 16c:	462a      	mov	r2, r5
 16e:	f7ff fffe 	bl	0 <__aeabi_memcpy>
 172:	4620      	mov	r0, r4
 174:	4641      	mov	r1, r8
 176:	462a      	mov	r2, r5
 178:	f7ff fffe 	bl	0 <__aeabi_memcpy>
 17c:	ebba 0a05 	subs.w	sl, sl, r5
 180:	442c      	add	r4, r5
 182:	442e      	add	r6, r5
 184:	d1e5      	bne.n	152 <_ZL32stbi__load_and_postprocess_16bitP13stbi__contextPiS1_S1_i+0x152>
 186:	9804      	ldr	r0, [sp, #16]
 188:	f109 0901 	add.w	r9, r9, #1
 18c:	4581      	cmp	r9, r0
 18e:	d1d7      	bne.n	140 <_ZL32stbi__load_and_postprocess_16bitP13stbi__contextPiS1_S1_i+0x140>
 190:	4815      	ldr	r0, [pc, #84]	; (1e8 <_ZL32stbi__load_and_postprocess_16bitP13stbi__contextPiS1_S1_i+0x1e8>)
 192:	f857 1c20 	ldr.w	r1, [r7, #-32]
 196:	4478      	add	r0, pc
 198:	6800      	ldr	r0, [r0, #0]
 19a:	6800      	ldr	r0, [r0, #0]
 19c:	1a40      	subs	r0, r0, r1
 19e:	bf01      	itttt	eq
 1a0:	9805      	ldreq	r0, [sp, #20]
 1a2:	f50d 6d03 	addeq.w	sp, sp, #2096	; 0x830
 1a6:	b001      	addeq	sp, #4
 1a8:	e8bd 0f00 	ldmiaeq.w	sp!, {r8, r9, sl, fp}
 1ac:	bf08      	it	eq
 1ae:	bdf0      	popeq	{r4, r5, r6, r7, pc}
 1b0:	f7ff fffe 	bl	0 <__stack_chk_fail>
 1b4:	0000019a 	.word	0x0000019a
 1b8:	000000e2 	.word	0x000000e2
 1bc:	000000e0 	.word	0x000000e0
 1c0:	000000b0 	.word	0x000000b0
 1c4:	00000170 	.word	0x00000170
 1c8:	00000172 	.word	0x00000172
 1cc:	622e6972 	.word	0x622e6972
 1d0:	5f737469 	.word	0x5f737469
 1d4:	5f726570 	.word	0x5f726570
 1d8:	6e616863 	.word	0x6e616863
 1dc:	206c656e 	.word	0x206c656e
 1e0:	38203d3d 	.word	0x38203d3d
 1e4:	00000000 	.word	0x00000000
 1e8:	0000004e 	.word	0x0000004e

Disassembly of section .text.stbi_load_16:

00000000 <stbi_load_16>:
   0:	b5f0      	push	{r4, r5, r6, r7, lr}
   2:	af03      	add	r7, sp, #12
   4:	e92d 0f00 	stmdb	sp!, {r8, r9, sl, fp}
   8:	b0b1      	sub	sp, #196	; 0xc4
   a:	468b      	mov	fp, r1
   c:	492d      	ldr	r1, [pc, #180]	; (c4 <stbi_load_16+0xc4>)
   e:	4698      	mov	r8, r3
  10:	4691      	mov	r9, r2
  12:	4479      	add	r1, pc
  14:	6809      	ldr	r1, [r1, #0]
  16:	6809      	ldr	r1, [r1, #0]
  18:	9130      	str	r1, [sp, #192]	; 0xc0
  1a:	a12b      	add	r1, pc, #172	; (adr r1, c8 <stbi_load_16+0xc8>)
  1c:	f7ff fffe 	bl	0 <fopen>
  20:	4604      	mov	r4, r0
  22:	b1e4      	cbz	r4, 5e <stbi_load_16+0x5e>
  24:	4829      	ldr	r0, [pc, #164]	; (cc <stbi_load_16+0xcc>)
  26:	2180      	movs	r1, #128	; 0x80
  28:	9409      	str	r4, [sp, #36]	; 0x24
  2a:	ad02      	add	r5, sp, #8
  2c:	4478      	add	r0, pc
  2e:	910b      	str	r1, [sp, #44]	; 0x2c
  30:	f105 0628 	add.w	r6, r5, #40	; 0x28
  34:	2280      	movs	r2, #128	; 0x80
  36:	edd0 0b00 	vldr	d16, [r0]
  3a:	6881      	ldr	r1, [r0, #8]
  3c:	2001      	movs	r0, #1
  3e:	900a      	str	r0, [sp, #40]	; 0x28
  40:	4620      	mov	r0, r4
  42:	edcd 0b06 	vstr	d16, [sp, #24]
  46:	9b06      	ldr	r3, [sp, #24]
  48:	962e      	str	r6, [sp, #184]	; 0xb8
  4a:	9108      	str	r1, [sp, #32]
  4c:	4631      	mov	r1, r6
  4e:	f8d7 a008 	ldr.w	sl, [r7, #8]
  52:	4798      	blx	r3
  54:	2800      	cmp	r0, #0
  56:	d009      	beq.n	6c <stbi_load_16+0x6c>
  58:	4428      	add	r0, r5
  5a:	3028      	adds	r0, #40	; 0x28
  5c:	e00c      	b.n	78 <stbi_load_16+0x78>
  5e:	481c      	ldr	r0, [pc, #112]	; (d0 <stbi_load_16+0xd0>)
  60:	2500      	movs	r5, #0
  62:	491c      	ldr	r1, [pc, #112]	; (d4 <stbi_load_16+0xd4>)
  64:	4478      	add	r0, pc
  66:	4479      	add	r1, pc
  68:	6001      	str	r1, [r0, #0]
  6a:	e01c      	b.n	a6 <stbi_load_16+0xa6>
  6c:	2000      	movs	r0, #0
  6e:	f88d 0030 	strb.w	r0, [sp, #48]	; 0x30
  72:	900a      	str	r0, [sp, #40]	; 0x28
  74:	f105 0029 	add.w	r0, r5, #41	; 0x29
  78:	e9cd 602c 	strd	r6, r0, [sp, #176]	; 0xb0
  7c:	4659      	mov	r1, fp
  7e:	902f      	str	r0, [sp, #188]	; 0xbc
  80:	a802      	add	r0, sp, #8
  82:	464a      	mov	r2, r9
  84:	4643      	mov	r3, r8
  86:	f8cd a000 	str.w	sl, [sp]
  8a:	f7ff fffe 	bl	0 <stbi_load_16>
  8e:	4605      	mov	r5, r0
  90:	b135      	cbz	r5, a0 <stbi_load_16+0xa0>
  92:	e9dd 012c 	ldrd	r0, r1, [sp, #176]	; 0xb0
  96:	2201      	movs	r2, #1
  98:	1a41      	subs	r1, r0, r1
  9a:	4620      	mov	r0, r4
  9c:	f7ff fffe 	bl	0 <fseek>
  a0:	4620      	mov	r0, r4
  a2:	f7ff fffe 	bl	0 <fclose>
  a6:	480c      	ldr	r0, [pc, #48]	; (d8 <stbi_load_16+0xd8>)
  a8:	9930      	ldr	r1, [sp, #192]	; 0xc0
  aa:	4478      	add	r0, pc
  ac:	6800      	ldr	r0, [r0, #0]
  ae:	6800      	ldr	r0, [r0, #0]
  b0:	1a40      	subs	r0, r0, r1
  b2:	bf01      	itttt	eq
  b4:	4628      	moveq	r0, r5
  b6:	b031      	addeq	sp, #196	; 0xc4
  b8:	e8bd 0f00 	ldmiaeq.w	sp!, {r8, r9, sl, fp}
  bc:	bdf0      	popeq	{r4, r5, r6, r7, pc}
  be:	f7ff fffe 	bl	0 <__stack_chk_fail>
  c2:	bf00      	nop
  c4:	000000ae 	.word	0x000000ae
  c8:	00006272 	.word	0x00006272
  cc:	0000009c 	.word	0x0000009c
  d0:	0000006c 	.word	0x0000006c
  d4:	0000006a 	.word	0x0000006a
  d8:	0000002a 	.word	0x0000002a

Disassembly of section .text.stbi_load_16_from_memory:

00000000 <stbi_load_16_from_memory>:
   0:	b5b0      	push	{r4, r5, r7, lr}
   2:	af02      	add	r7, sp, #8
   4:	b0b0      	sub	sp, #192	; 0xc0
   6:	f8df c048 	ldr.w	ip, [pc, #72]	; 50 <stbi_load_16_from_memory+0x50>
   a:	2400      	movs	r4, #0
   c:	4401      	add	r1, r0
   e:	44fc      	add	ip, pc
  10:	f8dc c000 	ldr.w	ip, [ip]
  14:	f8dc e000 	ldr.w	lr, [ip]
  18:	e9d7 c502 	ldrd	ip, r5, [r7, #8]
  1c:	f8cd e0bc 	str.w	lr, [sp, #188]	; 0xbc
  20:	9409      	str	r4, [sp, #36]	; 0x24
  22:	9405      	str	r4, [sp, #20]
  24:	902d      	str	r0, [sp, #180]	; 0xb4
  26:	902b      	str	r0, [sp, #172]	; 0xac
  28:	a801      	add	r0, sp, #4
  2a:	912e      	str	r1, [sp, #184]	; 0xb8
  2c:	912c      	str	r1, [sp, #176]	; 0xb0
  2e:	4611      	mov	r1, r2
  30:	461a      	mov	r2, r3
  32:	4663      	mov	r3, ip
  34:	9500      	str	r5, [sp, #0]
  36:	f7ff fffe 	bl	0 <stbi_load_16_from_memory>
  3a:	4906      	ldr	r1, [pc, #24]	; (54 <stbi_load_16_from_memory+0x54>)
  3c:	9a2f      	ldr	r2, [sp, #188]	; 0xbc
  3e:	4479      	add	r1, pc
  40:	6809      	ldr	r1, [r1, #0]
  42:	6809      	ldr	r1, [r1, #0]
  44:	1a89      	subs	r1, r1, r2
  46:	bf04      	itt	eq
  48:	b030      	addeq	sp, #192	; 0xc0
  4a:	bdb0      	popeq	{r4, r5, r7, pc}
  4c:	f7ff fffe 	bl	0 <__stack_chk_fail>
  50:	0000003e 	.word	0x0000003e
  54:	00000012 	.word	0x00000012

Disassembly of section .text.stbi_load_16_from_callbacks:

00000000 <stbi_load_16_from_callbacks>:
   0:	b5f0      	push	{r4, r5, r6, r7, lr}
   2:	af03      	add	r7, sp, #12
   4:	f84d 8d04 	str.w	r8, [sp, #-4]!
   8:	b0b2      	sub	sp, #200	; 0xc8
   a:	4615      	mov	r5, r2
   c:	4a1d      	ldr	r2, [pc, #116]	; (84 <stbi_load_16_from_callbacks+0x84>)
   e:	ac02      	add	r4, sp, #8
  10:	4698      	mov	r8, r3
  12:	447a      	add	r2, pc
  14:	f104 0628 	add.w	r6, r4, #40	; 0x28
  18:	6812      	ldr	r2, [r2, #0]
  1a:	6812      	ldr	r2, [r2, #0]
  1c:	9231      	str	r2, [sp, #196]	; 0xc4
  1e:	2280      	movs	r2, #128	; 0x80
  20:	edd0 0b00 	vldr	d16, [r0]
  24:	6880      	ldr	r0, [r0, #8]
  26:	e9cd 0108 	strd	r0, r1, [sp, #32]
  2a:	2080      	movs	r0, #128	; 0x80
  2c:	900b      	str	r0, [sp, #44]	; 0x2c
  2e:	2001      	movs	r0, #1
  30:	900a      	str	r0, [sp, #40]	; 0x28
  32:	4608      	mov	r0, r1
  34:	edcd 0b06 	vstr	d16, [sp, #24]
  38:	4631      	mov	r1, r6
  3a:	9b06      	ldr	r3, [sp, #24]
  3c:	962e      	str	r6, [sp, #184]	; 0xb8
  3e:	4798      	blx	r3
  40:	e9d7 3102 	ldrd	r3, r1, [r7, #8]
  44:	b110      	cbz	r0, 4c <stbi_load_16_from_callbacks+0x4c>
  46:	4420      	add	r0, r4
  48:	3028      	adds	r0, #40	; 0x28
  4a:	e005      	b.n	58 <stbi_load_16_from_callbacks+0x58>
  4c:	2000      	movs	r0, #0
  4e:	f88d 0030 	strb.w	r0, [sp, #48]	; 0x30
  52:	900a      	str	r0, [sp, #40]	; 0x28
  54:	f104 0029 	add.w	r0, r4, #41	; 0x29
  58:	e9cd 602c 	strd	r6, r0, [sp, #176]	; 0xb0
  5c:	4642      	mov	r2, r8
  5e:	902f      	str	r0, [sp, #188]	; 0xbc
  60:	a802      	add	r0, sp, #8
  62:	9100      	str	r1, [sp, #0]
  64:	4629      	mov	r1, r5
  66:	f7ff fffe 	bl	0 <stbi_load_16_from_callbacks>
  6a:	4907      	ldr	r1, [pc, #28]	; (88 <stbi_load_16_from_callbacks+0x88>)
  6c:	9a31      	ldr	r2, [sp, #196]	; 0xc4
  6e:	4479      	add	r1, pc
  70:	6809      	ldr	r1, [r1, #0]
  72:	6809      	ldr	r1, [r1, #0]
  74:	1a89      	subs	r1, r1, r2
  76:	bf02      	ittt	eq
  78:	b032      	addeq	sp, #200	; 0xc8
  7a:	f85d 8b04 	ldreq.w	r8, [sp], #4
  7e:	bdf0      	popeq	{r4, r5, r6, r7, pc}
  80:	f7ff fffe 	bl	0 <__stack_chk_fail>
  84:	0000006e 	.word	0x0000006e
  88:	00000016 	.word	0x00000016

Disassembly of section .text.stbi_load_from_memory:

00000000 <stbi_load_from_memory>:
   0:	b5b0      	push	{r4, r5, r7, lr}
   2:	af02      	add	r7, sp, #8
   4:	b0b0      	sub	sp, #192	; 0xc0
   6:	f8df c048 	ldr.w	ip, [pc, #72]	; 50 <stbi_load_from_memory+0x50>
   a:	2400      	movs	r4, #0
   c:	4401      	add	r1, r0
   e:	44fc      	add	ip, pc
  10:	f8dc c000 	ldr.w	ip, [ip]
  14:	f8dc e000 	ldr.w	lr, [ip]
  18:	e9d7 c502 	ldrd	ip, r5, [r7, #8]
  1c:	f8cd e0bc 	str.w	lr, [sp, #188]	; 0xbc
  20:	9409      	str	r4, [sp, #36]	; 0x24
  22:	9405      	str	r4, [sp, #20]
  24:	902d      	str	r0, [sp, #180]	; 0xb4
  26:	902b      	str	r0, [sp, #172]	; 0xac
  28:	a801      	add	r0, sp, #4
  2a:	912e      	str	r1, [sp, #184]	; 0xb8
  2c:	912c      	str	r1, [sp, #176]	; 0xb0
  2e:	4611      	mov	r1, r2
  30:	461a      	mov	r2, r3
  32:	4663      	mov	r3, ip
  34:	9500      	str	r5, [sp, #0]
  36:	f7ff fffe 	bl	0 <stbi_load_from_memory>
  3a:	4906      	ldr	r1, [pc, #24]	; (54 <stbi_load_from_memory+0x54>)
  3c:	9a2f      	ldr	r2, [sp, #188]	; 0xbc
  3e:	4479      	add	r1, pc
  40:	6809      	ldr	r1, [r1, #0]
  42:	6809      	ldr	r1, [r1, #0]
  44:	1a89      	subs	r1, r1, r2
  46:	bf04      	itt	eq
  48:	b030      	addeq	sp, #192	; 0xc0
  4a:	bdb0      	popeq	{r4, r5, r7, pc}
  4c:	f7ff fffe 	bl	0 <__stack_chk_fail>
  50:	0000003e 	.word	0x0000003e
  54:	00000012 	.word	0x00000012

Disassembly of section .text.stbi_load_from_callbacks:

00000000 <stbi_load_from_callbacks>:
   0:	b5f0      	push	{r4, r5, r6, r7, lr}
   2:	af03      	add	r7, sp, #12
   4:	f84d 8d04 	str.w	r8, [sp, #-4]!
   8:	b0b2      	sub	sp, #200	; 0xc8
   a:	4615      	mov	r5, r2
   c:	4a1d      	ldr	r2, [pc, #116]	; (84 <stbi_load_from_callbacks+0x84>)
   e:	ac02      	add	r4, sp, #8
  10:	4698      	mov	r8, r3
  12:	447a      	add	r2, pc
  14:	f104 0628 	add.w	r6, r4, #40	; 0x28
  18:	6812      	ldr	r2, [r2, #0]
  1a:	6812      	ldr	r2, [r2, #0]
  1c:	9231      	str	r2, [sp, #196]	; 0xc4
  1e:	2280      	movs	r2, #128	; 0x80
  20:	edd0 0b00 	vldr	d16, [r0]
  24:	6880      	ldr	r0, [r0, #8]
  26:	e9cd 0108 	strd	r0, r1, [sp, #32]
  2a:	2080      	movs	r0, #128	; 0x80
  2c:	900b      	str	r0, [sp, #44]	; 0x2c
  2e:	2001      	movs	r0, #1
  30:	900a      	str	r0, [sp, #40]	; 0x28
  32:	4608      	mov	r0, r1
  34:	edcd 0b06 	vstr	d16, [sp, #24]
  38:	4631      	mov	r1, r6
  3a:	9b06      	ldr	r3, [sp, #24]
  3c:	962e      	str	r6, [sp, #184]	; 0xb8
  3e:	4798      	blx	r3
  40:	e9d7 3102 	ldrd	r3, r1, [r7, #8]
  44:	b110      	cbz	r0, 4c <stbi_load_from_callbacks+0x4c>
  46:	4420      	add	r0, r4
  48:	3028      	adds	r0, #40	; 0x28
  4a:	e005      	b.n	58 <stbi_load_from_callbacks+0x58>
  4c:	2000      	movs	r0, #0
  4e:	f88d 0030 	strb.w	r0, [sp, #48]	; 0x30
  52:	900a      	str	r0, [sp, #40]	; 0x28
  54:	f104 0029 	add.w	r0, r4, #41	; 0x29
  58:	e9cd 602c 	strd	r6, r0, [sp, #176]	; 0xb0
  5c:	4642      	mov	r2, r8
  5e:	902f      	str	r0, [sp, #188]	; 0xbc
  60:	a802      	add	r0, sp, #8
  62:	9100      	str	r1, [sp, #0]
  64:	4629      	mov	r1, r5
  66:	f7ff fffe 	bl	0 <stbi_load_from_callbacks>
  6a:	4907      	ldr	r1, [pc, #28]	; (88 <stbi_load_from_callbacks+0x88>)
  6c:	9a31      	ldr	r2, [sp, #196]	; 0xc4
  6e:	4479      	add	r1, pc
  70:	6809      	ldr	r1, [r1, #0]
  72:	6809      	ldr	r1, [r1, #0]
  74:	1a89      	subs	r1, r1, r2
  76:	bf02      	ittt	eq
  78:	b032      	addeq	sp, #200	; 0xc8
  7a:	f85d 8b04 	ldreq.w	r8, [sp], #4
  7e:	bdf0      	popeq	{r4, r5, r6, r7, pc}
  80:	f7ff fffe 	bl	0 <__stack_chk_fail>
  84:	0000006e 	.word	0x0000006e
  88:	00000016 	.word	0x00000016

Disassembly of section .text.stbi_load_gif_from_memory:

00000000 <stbi_load_gif_from_memory>:
   0:	b5f0      	push	{r4, r5, r6, r7, lr}
   2:	af03      	add	r7, sp, #12
   4:	e92d 0f00 	stmdb	sp!, {r8, r9, sl, fp}
   8:	f5ad 4d09 	sub.w	sp, sp, #35072	; 0x8900
   c:	b08f      	sub	sp, #60	; 0x3c
   e:	4615      	mov	r5, r2
  10:	4aa9      	ldr	r2, [pc, #676]	; (2b8 <stbi_load_gif_from_memory+0x2b8>)
  12:	9304      	str	r3, [sp, #16]
  14:	447a      	add	r2, pc
  16:	6812      	ldr	r2, [r2, #0]
  18:	6812      	ldr	r2, [r2, #0]
  1a:	f847 2c24 	str.w	r2, [r7, #-36]
  1e:	2200      	movs	r2, #0
  20:	9210      	str	r2, [sp, #64]	; 0x40
  22:	920c      	str	r2, [sp, #48]	; 0x30
  24:	9034      	str	r0, [sp, #208]	; 0xd0
  26:	9032      	str	r0, [sp, #200]	; 0xc8
  28:	4408      	add	r0, r1
  2a:	9035      	str	r0, [sp, #212]	; 0xd4
  2c:	9033      	str	r0, [sp, #204]	; 0xcc
  2e:	a808      	add	r0, sp, #32
  30:	f7ff fffe 	bl	0 <stbi_load_gif_from_memory>
  34:	68fa      	ldr	r2, [r7, #12]
  36:	2800      	cmp	r0, #0
  38:	d072      	beq.n	120 <stbi_load_gif_from_memory+0x120>
  3a:	a836      	add	r0, sp, #216	; 0xd8
  3c:	f648 0158 	movw	r1, #34904	; 0x8858
  40:	f7ff fffe 	bl	0 <__aeabi_memclr8>
  44:	2d00      	cmp	r5, #0
  46:	f10d 08d8 	add.w	r8, sp, #216	; 0xd8
  4a:	ac08      	add	r4, sp, #32
  4c:	693a      	ldr	r2, [r7, #16]
  4e:	bf1c      	itt	ne
  50:	2000      	movne	r0, #0
  52:	6028      	strne	r0, [r5, #0]
  54:	4641      	mov	r1, r8
  56:	4620      	mov	r0, r4
  58:	2300      	movs	r3, #0
  5a:	f04f 0b00 	mov.w	fp, #0
  5e:	f7ff fffe 	bl	0 <stbi_load_gif_from_memory>
  62:	4606      	mov	r6, r0
  64:	42a6      	cmp	r6, r4
  66:	d063      	beq.n	130 <stbi_load_gif_from_memory+0x130>
  68:	2e00      	cmp	r6, #0
  6a:	f04f 0000 	mov.w	r0, #0
  6e:	9503      	str	r5, [sp, #12]
  70:	f000 809d 	beq.w	1ae <stbi_load_gif_from_memory+0x1ae>
  74:	9803      	ldr	r0, [sp, #12]
  76:	2800      	cmp	r0, #0
  78:	d05c      	beq.n	134 <stbi_load_gif_from_memory+0x134>
  7a:	f648 0054 	movw	r0, #34900	; 0x8854
  7e:	f04f 0904 	mov.w	r9, #4
  82:	4440      	add	r0, r8
  84:	9002      	str	r0, [sp, #8]
  86:	f04f 0800 	mov.w	r8, #0
  8a:	2000      	movs	r0, #0
  8c:	2400      	movs	r4, #0
  8e:	9904      	ldr	r1, [sp, #16]
  90:	2800      	cmp	r0, #0
  92:	9b36      	ldr	r3, [sp, #216]	; 0xd8
  94:	9606      	str	r6, [sp, #24]
  96:	600b      	str	r3, [r1, #0]
  98:	9a37      	ldr	r2, [sp, #220]	; 0xdc
  9a:	fb02 f103 	mul.w	r1, r2, r3
  9e:	68bb      	ldr	r3, [r7, #8]
  a0:	9105      	str	r1, [sp, #20]
  a2:	ea4f 0a81 	mov.w	sl, r1, lsl #2
  a6:	f104 0101 	add.w	r1, r4, #1
  aa:	9107      	str	r1, [sp, #28]
  ac:	fb0a f101 	mul.w	r1, sl, r1
  b0:	601a      	str	r2, [r3, #0]
  b2:	d008      	beq.n	c6 <stbi_load_gif_from_memory+0xc6>
  b4:	f7ff fffe 	bl	0 <realloc>
  b8:	9e03      	ldr	r6, [sp, #12]
  ba:	4683      	mov	fp, r0
  bc:	4649      	mov	r1, r9
  be:	6830      	ldr	r0, [r6, #0]
  c0:	f7ff fffe 	bl	0 <realloc>
  c4:	e007      	b.n	d6 <stbi_load_gif_from_memory+0xd6>
  c6:	4608      	mov	r0, r1
  c8:	f7ff fffe 	bl	0 <malloc>
  cc:	4683      	mov	fp, r0
  ce:	4648      	mov	r0, r9
  d0:	f7ff fffe 	bl	0 <malloc>
  d4:	9e03      	ldr	r6, [sp, #12]
  d6:	4605      	mov	r5, r0
  d8:	fb0a b004 	mla	r0, sl, r4, fp
  dc:	6035      	str	r5, [r6, #0]
  de:	9906      	ldr	r1, [sp, #24]
  e0:	4652      	mov	r2, sl
  e2:	f7ff fffe 	bl	0 <__aeabi_memcpy>
  e6:	9802      	ldr	r0, [sp, #8]
  e8:	2c00      	cmp	r4, #0
  ea:	693a      	ldr	r2, [r7, #16]
  ec:	a936      	add	r1, sp, #216	; 0xd8
  ee:	6800      	ldr	r0, [r0, #0]
  f0:	f845 0024 	str.w	r0, [r5, r4, lsl #2]
  f4:	ac08      	add	r4, sp, #32
  f6:	465d      	mov	r5, fp
  f8:	9805      	ldr	r0, [sp, #20]
  fa:	bfc8      	it	gt
  fc:	ebab 08c0 	subgt.w	r8, fp, r0, lsl #3
 100:	4620      	mov	r0, r4
 102:	4643      	mov	r3, r8
 104:	f7ff fffe 	bl	0 <stbi_load_gif_from_memory>
 108:	4606      	mov	r6, r0
 10a:	42a6      	cmp	r6, r4
 10c:	d04a      	beq.n	1a4 <stbi_load_gif_from_memory+0x1a4>
 10e:	f8dd b01c 	ldr.w	fp, [sp, #28]
 112:	f109 0904 	add.w	r9, r9, #4
 116:	2e00      	cmp	r6, #0
 118:	4628      	mov	r0, r5
 11a:	465c      	mov	r4, fp
 11c:	d1b7      	bne.n	8e <stbi_load_gif_from_memory+0x8e>
 11e:	e046      	b.n	1ae <stbi_load_gif_from_memory+0x1ae>
 120:	4866      	ldr	r0, [pc, #408]	; (2bc <stbi_load_gif_from_memory+0x2bc>)
 122:	4967      	ldr	r1, [pc, #412]	; (2c0 <stbi_load_gif_from_memory+0x2c0>)
 124:	4478      	add	r0, pc
 126:	4479      	add	r1, pc
 128:	6001      	str	r1, [r0, #0]
 12a:	2000      	movs	r0, #0
 12c:	9001      	str	r0, [sp, #4]
 12e:	e05a      	b.n	1e6 <stbi_load_gif_from_memory+0x1e6>
 130:	2000      	movs	r0, #0
 132:	e03c      	b.n	1ae <stbi_load_gif_from_memory+0x1ae>
 134:	f10d 08d8 	add.w	r8, sp, #216	; 0xd8
 138:	f04f 0900 	mov.w	r9, #0
 13c:	2000      	movs	r0, #0
 13e:	2400      	movs	r4, #0
 140:	9904      	ldr	r1, [sp, #16]
 142:	f104 0b01 	add.w	fp, r4, #1
 146:	9b36      	ldr	r3, [sp, #216]	; 0xd8
 148:	2800      	cmp	r0, #0
 14a:	600b      	str	r3, [r1, #0]
 14c:	9a37      	ldr	r2, [sp, #220]	; 0xdc
 14e:	fb02 fa03 	mul.w	sl, r2, r3
 152:	68bb      	ldr	r3, [r7, #8]
 154:	601a      	str	r2, [r3, #0]
 156:	ea4f 058a 	mov.w	r5, sl, lsl #2
 15a:	fb05 f10b 	mul.w	r1, r5, fp
 15e:	d002      	beq.n	8 <realloc+0x8>
 160:	f7ff fffe 	bl	0 <realloc>
 164:	e002      	b.n	16c <stbi_load_gif_from_memory+0x16c>
 166:	4608      	mov	r0, r1
 168:	f7ff fffe 	bl	0 <malloc>
 16c:	4603      	mov	r3, r0
 16e:	4631      	mov	r1, r6
 170:	fb05 3004 	mla	r0, r5, r4, r3
 174:	462a      	mov	r2, r5
 176:	461e      	mov	r6, r3
 178:	f7ff fffe 	bl	0 <__aeabi_memcpy>
 17c:	2c00      	cmp	r4, #0
 17e:	ac08      	add	r4, sp, #32
 180:	693a      	ldr	r2, [r7, #16]
 182:	bfc8      	it	gt
 184:	eba6 09ca 	subgt.w	r9, r6, sl, lsl #3
 188:	4620      	mov	r0, r4
 18a:	4641      	mov	r1, r8
 18c:	464b      	mov	r3, r9
 18e:	4635      	mov	r5, r6
 190:	f7ff fffe 	bl	0 <stbi_load_gif_from_memory>
 194:	4606      	mov	r6, r0
 196:	42a6      	cmp	r6, r4
 198:	d008      	beq.n	1ac <stbi_load_gif_from_memory+0x1ac>
 19a:	2e00      	cmp	r6, #0
 19c:	465c      	mov	r4, fp
 19e:	4628      	mov	r0, r5
 1a0:	d1ce      	bne.n	140 <stbi_load_gif_from_memory+0x140>
 1a2:	e004      	b.n	1ae <stbi_load_gif_from_memory+0x1ae>
 1a4:	4628      	mov	r0, r5
 1a6:	f8dd b01c 	ldr.w	fp, [sp, #28]
 1aa:	e000      	b.n	1ae <stbi_load_gif_from_memory+0x1ae>
 1ac:	4628      	mov	r0, r5
 1ae:	9001      	str	r0, [sp, #4]
 1b0:	9838      	ldr	r0, [sp, #224]	; 0xe0
 1b2:	f7ff fffe 	bl	0 <free>
 1b6:	983a      	ldr	r0, [sp, #232]	; 0xe8
 1b8:	f7ff fffe 	bl	0 <free>
 1bc:	9839      	ldr	r0, [sp, #228]	; 0xe4
 1be:	f7ff fffe 	bl	0 <free>
 1c2:	697a      	ldr	r2, [r7, #20]
 1c4:	f042 0004 	orr.w	r0, r2, #4
 1c8:	2804      	cmp	r0, #4
 1ca:	d009      	beq.n	1e0 <stbi_load_gif_from_memory+0x1e0>
 1cc:	e9dd 0136 	ldrd	r0, r1, [sp, #216]	; 0xd8
 1d0:	9100      	str	r1, [sp, #0]
 1d2:	2104      	movs	r1, #4
 1d4:	fb00 f30b 	mul.w	r3, r0, fp
 1d8:	9801      	ldr	r0, [sp, #4]
 1da:	f7ff fffe 	bl	0 <stbi_load_gif_from_memory>
 1de:	9001      	str	r0, [sp, #4]
 1e0:	68fa      	ldr	r2, [r7, #12]
 1e2:	f8c2 b000 	str.w	fp, [r2]
 1e6:	4837      	ldr	r0, [pc, #220]	; (2c4 <stbi_load_gif_from_memory+0x2c4>)
 1e8:	4478      	add	r0, pc
 1ea:	6840      	ldr	r0, [r0, #4]
 1ec:	2800      	cmp	r0, #0
 1ee:	d051      	beq.n	294 <stbi_load_gif_from_memory+0x294>
 1f0:	6811      	ldr	r1, [r2, #0]
 1f2:	2901      	cmp	r1, #1
 1f4:	4608      	mov	r0, r1
 1f6:	9003      	str	r0, [sp, #12]
 1f8:	db4c      	blt.n	294 <stbi_load_gif_from_memory+0x294>
 1fa:	68b8      	ldr	r0, [r7, #8]
 1fc:	6800      	ldr	r0, [r0, #0]
 1fe:	1041      	asrs	r1, r0, #1
 200:	2901      	cmp	r1, #1
 202:	9106      	str	r1, [sp, #24]
 204:	db46      	blt.n	294 <stbi_load_gif_from_memory+0x294>
 206:	9904      	ldr	r1, [sp, #16]
 208:	693a      	ldr	r2, [r7, #16]
 20a:	6809      	ldr	r1, [r1, #0]
 20c:	6812      	ldr	r2, [r2, #0]
 20e:	fb02 f901 	mul.w	r9, r2, r1
 212:	f1b9 0f00 	cmp.w	r9, #0
 216:	d03d      	beq.n	294 <stbi_load_gif_from_memory+0x294>
 218:	4341      	muls	r1, r0
 21a:	3801      	subs	r0, #1
 21c:	f10d 08d8 	add.w	r8, sp, #216	; 0xd8
 220:	9005      	str	r0, [sp, #20]
 222:	9801      	ldr	r0, [sp, #4]
 224:	9007      	str	r0, [sp, #28]
 226:	4351      	muls	r1, r2
 228:	9102      	str	r1, [sp, #8]
 22a:	2100      	movs	r1, #0
 22c:	f04f 0b00 	mov.w	fp, #0
 230:	9104      	str	r1, [sp, #16]
 232:	9805      	ldr	r0, [sp, #20]
 234:	46ca      	mov	sl, r9
 236:	9907      	ldr	r1, [sp, #28]
 238:	fb0b 1609 	mla	r6, fp, r9, r1
 23c:	eba0 000b 	sub.w	r0, r0, fp
 240:	fb00 1509 	mla	r5, r0, r9, r1
 244:	f5ba 6f00 	cmp.w	sl, #2048	; 0x800
 248:	4654      	mov	r4, sl
 24a:	bf28      	it	cs
 24c:	f44f 6400 	movcs.w	r4, #2048	; 0x800
 250:	4640      	mov	r0, r8
 252:	4631      	mov	r1, r6
 254:	4622      	mov	r2, r4
 256:	f7ff fffe 	bl	0 <__aeabi_memcpy>
 25a:	4630      	mov	r0, r6
 25c:	4629      	mov	r1, r5
 25e:	4622      	mov	r2, r4
 260:	f7ff fffe 	bl	0 <__aeabi_memcpy>
 264:	4628      	mov	r0, r5
 266:	4641      	mov	r1, r8
 268:	4622      	mov	r2, r4
 26a:	f7ff fffe 	bl	0 <__aeabi_memcpy>
 26e:	ebba 0a04 	subs.w	sl, sl, r4
 272:	4425      	add	r5, r4
 274:	4426      	add	r6, r4
 276:	d1e5      	bne.n	244 <stbi_load_gif_from_memory+0x244>
 278:	9806      	ldr	r0, [sp, #24]
 27a:	f10b 0b01 	add.w	fp, fp, #1
 27e:	4583      	cmp	fp, r0
 280:	d1d7      	bne.n	232 <stbi_load_gif_from_memory+0x232>
 282:	9802      	ldr	r0, [sp, #8]
 284:	9907      	ldr	r1, [sp, #28]
 286:	4401      	add	r1, r0
 288:	9107      	str	r1, [sp, #28]
 28a:	9904      	ldr	r1, [sp, #16]
 28c:	9803      	ldr	r0, [sp, #12]
 28e:	3101      	adds	r1, #1
 290:	4281      	cmp	r1, r0
 292:	d1cb      	bne.n	22c <stbi_load_gif_from_memory+0x22c>
 294:	480c      	ldr	r0, [pc, #48]	; (2c8 <stbi_load_gif_from_memory+0x2c8>)
 296:	f857 1c24 	ldr.w	r1, [r7, #-36]
 29a:	4478      	add	r0, pc
 29c:	6800      	ldr	r0, [r0, #0]
 29e:	6800      	ldr	r0, [r0, #0]
 2a0:	1a40      	subs	r0, r0, r1
 2a2:	bf01      	itttt	eq
 2a4:	9801      	ldreq	r0, [sp, #4]
 2a6:	f50d 4d09 	addeq.w	sp, sp, #35072	; 0x8900
 2aa:	b00f      	addeq	sp, #60	; 0x3c
 2ac:	e8bd 0f00 	ldmiaeq.w	sp!, {r8, r9, sl, fp}
 2b0:	bf08      	it	eq
 2b2:	bdf0      	popeq	{r4, r5, r6, r7, pc}
 2b4:	f7ff fffe 	bl	0 <__stack_chk_fail>
 2b8:	000002a0 	.word	0x000002a0
 2bc:	00000198 	.word	0x00000198
 2c0:	00000196 	.word	0x00000196
 2c4:	000000dc 	.word	0x000000dc
 2c8:	0000002a 	.word	0x0000002a

Disassembly of section .text.stbi_loadf_from_memory:

00000000 <stbi_loadf_from_memory>:
   0:	b5b0      	push	{r4, r5, r7, lr}
   2:	af02      	add	r7, sp, #8
   4:	b0b0      	sub	sp, #192	; 0xc0
   6:	f8df c048 	ldr.w	ip, [pc, #72]	; 50 <stbi_loadf_from_memory+0x50>
   a:	2400      	movs	r4, #0
   c:	4401      	add	r1, r0
   e:	44fc      	add	ip, pc
  10:	f8dc c000 	ldr.w	ip, [ip]
  14:	f8dc e000 	ldr.w	lr, [ip]
  18:	e9d7 c502 	ldrd	ip, r5, [r7, #8]
  1c:	f8cd e0bc 	str.w	lr, [sp, #188]	; 0xbc
  20:	9409      	str	r4, [sp, #36]	; 0x24
  22:	9405      	str	r4, [sp, #20]
  24:	902d      	str	r0, [sp, #180]	; 0xb4
  26:	902b      	str	r0, [sp, #172]	; 0xac
  28:	a801      	add	r0, sp, #4
  2a:	912e      	str	r1, [sp, #184]	; 0xb8
  2c:	912c      	str	r1, [sp, #176]	; 0xb0
  2e:	4611      	mov	r1, r2
  30:	461a      	mov	r2, r3
  32:	4663      	mov	r3, ip
  34:	9500      	str	r5, [sp, #0]
  36:	f7ff fffe 	bl	0 <stbi_loadf_from_memory>
  3a:	4906      	ldr	r1, [pc, #24]	; (54 <stbi_loadf_from_memory+0x54>)
  3c:	9a2f      	ldr	r2, [sp, #188]	; 0xbc
  3e:	4479      	add	r1, pc
  40:	6809      	ldr	r1, [r1, #0]
  42:	6809      	ldr	r1, [r1, #0]
  44:	1a89      	subs	r1, r1, r2
  46:	bf04      	itt	eq
  48:	b030      	addeq	sp, #192	; 0xc0
  4a:	bdb0      	popeq	{r4, r5, r7, pc}
  4c:	f7ff fffe 	bl	0 <__stack_chk_fail>
  50:	0000003e 	.word	0x0000003e
  54:	00000012 	.word	0x00000012

Disassembly of section .text._ZL16stbi__loadf_mainP13stbi__contextPiS1_S1_i:

00000000 <_ZL16stbi__loadf_mainP13stbi__contextPiS1_S1_i>:
   0:	b5f0      	push	{r4, r5, r6, r7, lr}
   2:	af03      	add	r7, sp, #12
   4:	e92d 0f00 	stmdb	sp!, {r8, r9, sl, fp}
   8:	b081      	sub	sp, #4
   a:	ed2d 8b10 	vpush	{d8-d15}
   e:	f5ad 6d07 	sub.w	sp, sp, #2160	; 0x870
  12:	b082      	sub	sp, #8
  14:	466c      	mov	r4, sp
  16:	f36f 0403 	bfc	r4, #0, #4
  1a:	46a5      	mov	sp, r4
  1c:	4606      	mov	r6, r0
  1e:	f8df 0420 	ldr.w	r0, [pc, #1056]	; 440 <_ZL16stbi__loadf_mainP13stbi__contextPiS1_S1_i+0x440>
  22:	469b      	mov	fp, r3
  24:	4614      	mov	r4, r2
  26:	4478      	add	r0, pc
  28:	460d      	mov	r5, r1
  2a:	6800      	ldr	r0, [r0, #0]
  2c:	6800      	ldr	r0, [r0, #0]
  2e:	f8cd 0874 	str.w	r0, [sp, #2164]	; 0x874
  32:	4630      	mov	r0, r6
  34:	f7ff fffe 	bl	0 <_ZL16stbi__loadf_mainP13stbi__contextPiS1_S1_i>
  38:	f8d7 8008 	ldr.w	r8, [r7, #8]
  3c:	2800      	cmp	r0, #0
  3e:	d054      	beq.n	ea <_ZL16stbi__loadf_mainP13stbi__contextPiS1_S1_i+0xea>
  40:	4630      	mov	r0, r6
  42:	4629      	mov	r1, r5
  44:	4622      	mov	r2, r4
  46:	465b      	mov	r3, fp
  48:	f8cd 8000 	str.w	r8, [sp]
  4c:	f7ff fffe 	bl	0 <_ZL16stbi__loadf_mainP13stbi__contextPiS1_S1_i>
  50:	4601      	mov	r1, r0
  52:	2800      	cmp	r0, #0
  54:	9114      	str	r1, [sp, #80]	; 0x50
  56:	f000 8180 	beq.w	35a <_ZL16stbi__loadf_mainP13stbi__contextPiS1_S1_i+0x35a>
  5a:	f8df 03e8 	ldr.w	r0, [pc, #1000]	; 444 <_ZL16stbi__loadf_mainP13stbi__contextPiS1_S1_i+0x444>
  5e:	4478      	add	r0, pc
  60:	6840      	ldr	r0, [r0, #4]
  62:	2800      	cmp	r0, #0
  64:	f000 817b 	beq.w	35e <_ZL16stbi__loadf_mainP13stbi__contextPiS1_S1_i+0x35e>
  68:	f1b8 0f00 	cmp.w	r8, #0
  6c:	bf08      	it	eq
  6e:	f8db 8000 	ldreq.w	r8, [fp]
  72:	6820      	ldr	r0, [r4, #0]
  74:	1041      	asrs	r1, r0, #1
  76:	2901      	cmp	r1, #1
  78:	9119      	str	r1, [sp, #100]	; 0x64
  7a:	f2c0 8170 	blt.w	35e <_ZL16stbi__loadf_mainP13stbi__contextPiS1_S1_i+0x35e>
  7e:	6829      	ldr	r1, [r5, #0]
  80:	fb08 f101 	mul.w	r1, r8, r1
  84:	ea5f 0a81 	movs.w	sl, r1, lsl #2
  88:	f000 8169 	beq.w	35e <_ZL16stbi__loadf_mainP13stbi__contextPiS1_S1_i+0x35e>
  8c:	f10d 0870 	add.w	r8, sp, #112	; 0x70
  90:	f04f 0900 	mov.w	r9, #0
  94:	3801      	subs	r0, #1
  96:	9018      	str	r0, [sp, #96]	; 0x60
  98:	9818      	ldr	r0, [sp, #96]	; 0x60
  9a:	46d3      	mov	fp, sl
  9c:	9914      	ldr	r1, [sp, #80]	; 0x50
  9e:	fb09 150a 	mla	r5, r9, sl, r1
  a2:	eba0 0009 	sub.w	r0, r0, r9
  a6:	fb00 160a 	mla	r6, r0, sl, r1
  aa:	f5bb 6f00 	cmp.w	fp, #2048	; 0x800
  ae:	465c      	mov	r4, fp
  b0:	bf28      	it	cs
  b2:	f44f 6400 	movcs.w	r4, #2048	; 0x800
  b6:	4640      	mov	r0, r8
  b8:	4629      	mov	r1, r5
  ba:	4622      	mov	r2, r4
  bc:	f7ff fffe 	bl	0 <__aeabi_memcpy>
  c0:	4628      	mov	r0, r5
  c2:	4631      	mov	r1, r6
  c4:	4622      	mov	r2, r4
  c6:	f7ff fffe 	bl	0 <__aeabi_memcpy>
  ca:	4630      	mov	r0, r6
  cc:	4641      	mov	r1, r8
  ce:	4622      	mov	r2, r4
  d0:	f7ff fffe 	bl	0 <__aeabi_memcpy>
  d4:	ebbb 0b04 	subs.w	fp, fp, r4
  d8:	4426      	add	r6, r4
  da:	4425      	add	r5, r4
  dc:	d1e5      	bne.n	aa <_ZL16stbi__loadf_mainP13stbi__contextPiS1_S1_i+0xaa>
  de:	9819      	ldr	r0, [sp, #100]	; 0x64
  e0:	f109 0901 	add.w	r9, r9, #1
  e4:	4581      	cmp	r9, r0
  e6:	d1d7      	bne.n	98 <_ZL16stbi__loadf_mainP13stbi__contextPiS1_S1_i+0x98>
  e8:	e139      	b.n	35e <_ZL16stbi__loadf_mainP13stbi__contextPiS1_S1_i+0x35e>
  ea:	4630      	mov	r0, r6
  ec:	4629      	mov	r1, r5
  ee:	4622      	mov	r2, r4
  f0:	465b      	mov	r3, fp
  f2:	f8cd 8000 	str.w	r8, [sp]
  f6:	f7ff fffe 	bl	0 <_ZL16stbi__loadf_mainP13stbi__contextPiS1_S1_i>
  fa:	4681      	mov	r9, r0
  fc:	f1b9 0f00 	cmp.w	r9, #0
 100:	f000 8126 	beq.w	350 <_ZL16stbi__loadf_mainP13stbi__contextPiS1_S1_i+0x350>
 104:	6824      	ldr	r4, [r4, #0]
 106:	f1b8 0f00 	cmp.w	r8, #0
 10a:	682d      	ldr	r5, [r5, #0]
 10c:	bf08      	it	eq
 10e:	f8db 8000 	ldreq.w	r8, [fp]
 112:	ea44 0005 	orr.w	r0, r4, r5
 116:	2800      	cmp	r0, #0
 118:	f2c0 8112 	blt.w	340 <_ZL16stbi__loadf_mainP13stbi__contextPiS1_S1_i+0x340>
 11c:	b13c      	cbz	r4, 12e <_ZL16stbi__loadf_mainP13stbi__contextPiS1_S1_i+0x12e>
 11e:	f06f 4000 	mvn.w	r0, #2147483648	; 0x80000000
 122:	4621      	mov	r1, r4
 124:	f7ff fffe 	bl	0 <__aeabi_idiv>
 128:	42a8      	cmp	r0, r5
 12a:	f2c0 8109 	blt.w	340 <_ZL16stbi__loadf_mainP13stbi__contextPiS1_S1_i+0x340>
 12e:	fb04 fb05 	mul.w	fp, r4, r5
 132:	ea48 000b 	orr.w	r0, r8, fp
 136:	2800      	cmp	r0, #0
 138:	f2c0 8102 	blt.w	340 <_ZL16stbi__loadf_mainP13stbi__contextPiS1_S1_i+0x340>
 13c:	f1b8 0f00 	cmp.w	r8, #0
 140:	d00e      	beq.n	160 <_ZL16stbi__loadf_mainP13stbi__contextPiS1_S1_i+0x160>
 142:	f06f 4000 	mvn.w	r0, #2147483648	; 0x80000000
 146:	4641      	mov	r1, r8
 148:	f7ff fffe 	bl	0 <__aeabi_idiv>
 14c:	fb08 f10b 	mul.w	r1, r8, fp
 150:	2200      	movs	r2, #0
 152:	ebb2 7f51 	cmp.w	r2, r1, lsr #29
 156:	f040 80f3 	bne.w	340 <_ZL16stbi__loadf_mainP13stbi__contextPiS1_S1_i+0x340>
 15a:	4558      	cmp	r0, fp
 15c:	f2c0 80f0 	blt.w	340 <_ZL16stbi__loadf_mainP13stbi__contextPiS1_S1_i+0x340>
 160:	fb0b f008 	mul.w	r0, fp, r8
 164:	0080      	lsls	r0, r0, #2
 166:	f7ff fffe 	bl	0 <malloc>
 16a:	4601      	mov	r1, r0
 16c:	2800      	cmp	r0, #0
 16e:	9114      	str	r1, [sp, #80]	; 0x50
 170:	f000 80e6 	beq.w	340 <_ZL16stbi__loadf_mainP13stbi__contextPiS1_S1_i+0x340>
 174:	f018 0101 	ands.w	r1, r8, #1
 178:	4646      	mov	r6, r8
 17a:	f04f 0000 	mov.w	r0, #0
 17e:	bf08      	it	eq
 180:	3e01      	subeq	r6, #1
 182:	bf08      	it	eq
 184:	f04f 30ff 	moveq.w	r0, #4294967295	; 0xffffffff
 188:	f1bb 0f01 	cmp.w	fp, #1
 18c:	9006      	str	r0, [sp, #24]
 18e:	f2c0 8148 	blt.w	422 <_ZL16stbi__loadf_mainP13stbi__contextPiS1_S1_i+0x422>
 192:	2e01      	cmp	r6, #1
 194:	9105      	str	r1, [sp, #20]
 196:	f2c0 80ca 	blt.w	32e <_ZL16stbi__loadf_mainP13stbi__contextPiS1_S1_i+0x32e>
 19a:	48ab      	ldr	r0, [pc, #684]	; (448 <_ZL16stbi__loadf_mainP13stbi__contextPiS1_S1_i+0x448>)
 19c:	f10d 0e40 	add.w	lr, sp, #64	; 0x40
 1a0:	ed9f faaa 	vldr	s30, [pc, #680]	; 44c <_ZL16stbi__loadf_mainP13stbi__contextPiS1_S1_i+0x44c>
 1a4:	ea4f 0a88 	mov.w	sl, r8, lsl #2
 1a8:	4478      	add	r0, pc
 1aa:	464a      	mov	r2, r9
 1ac:	ed90 0a00 	vldr	s0, [r0]
 1b0:	ed90 1a01 	vldr	s2, [r0, #4]
 1b4:	f026 0003 	bic.w	r0, r6, #3
 1b8:	eeb7 aac0 	vcvt.f64.f32	d10, s0
 1bc:	900c      	str	r0, [sp, #48]	; 0x30
 1be:	2000      	movs	r0, #0
 1c0:	900f      	str	r0, [sp, #60]	; 0x3c
 1c2:	eeb0 bb4a 	vmov.f64	d11, d10
 1c6:	ec51 0b1a 	vmov	r0, r1, d10
 1ca:	eeb7 8ac1 	vcvt.f64.f32	d8, s2
 1ce:	eeb0 9b48 	vmov.f64	d9, d8
 1d2:	e9cd 1015 	strd	r1, r0, [sp, #84]	; 0x54
 1d6:	a096      	add	r0, pc, #600	; (adr r0, 430 <_ZL16stbi__loadf_mainP13stbi__contextPiS1_S1_i+0x430>)
 1d8:	f920 caef 	vld1.64	{d12-d13}, [r0 :128]
 1dc:	9814      	ldr	r0, [sp, #80]	; 0x50
 1de:	900e      	str	r0, [sp, #56]	; 0x38
 1e0:	2000      	movs	r0, #0
 1e2:	f8cd 802c 	str.w	r8, [sp, #44]	; 0x2c
 1e6:	e9cd b909 	strd	fp, r9, [sp, #36]	; 0x24
 1ea:	e9cd a607 	strd	sl, r6, [sp, #28]
 1ee:	f90e caef 	vst1.64	{d12-d13}, [lr :128]
 1f2:	2400      	movs	r4, #0
 1f4:	2e04      	cmp	r6, #4
 1f6:	900d      	str	r0, [sp, #52]	; 0x34
 1f8:	9217      	str	r2, [sp, #92]	; 0x5c
 1fa:	d36c      	bcc.n	2d6 <_ZL16stbi__loadf_mainP13stbi__contextPiS1_S1_i+0x2d6>
 1fc:	980c      	ldr	r0, [sp, #48]	; 0x30
 1fe:	2800      	cmp	r0, #0
 200:	d069      	beq.n	2d6 <_ZL16stbi__loadf_mainP13stbi__contextPiS1_S1_i+0x2d6>
 202:	980c      	ldr	r0, [sp, #48]	; 0x30
 204:	4691      	mov	r9, r2
 206:	f8dd b038 	ldr.w	fp, [sp, #56]	; 0x38
 20a:	4601      	mov	r1, r0
 20c:	9119      	str	r1, [sp, #100]	; 0x64
 20e:	ec53 2b1b 	vmov	r2, r3, d11
 212:	f859 0b04 	ldr.w	r0, [r9], #4
 216:	901b      	str	r0, [sp, #108]	; 0x6c
 218:	a81b      	add	r0, sp, #108	; 0x6c
 21a:	f9e0 083f 	vld1.32	{d16[0]}, [r0 :32]
 21e:	ffc8 0a30 	vmovl.u8	q8, d16
 222:	ffd0 0a30 	vmovl.u16	q8, d16
 226:	fffb 06e0 	vcvt.f32.u32	q8, q8
 22a:	ff00 0ddc 	vmul.f32	q0, q8, q6
 22e:	eef7 0ae0 	vcvt.f64.f32	d16, s1
 232:	ec51 0b30 	vmov	r0, r1, d16
 236:	eeb7 dac1 	vcvt.f64.f32	d13, s2
 23a:	eeb7 cae1 	vcvt.f64.f32	d12, s3
 23e:	eeb7 eac0 	vcvt.f64.f32	d14, s0
 242:	f7ff fffe 	bl	0 <pow>
 246:	ec55 4b1d 	vmov	r4, r5, d13
 24a:	ec53 2b1a 	vmov	r2, r3, d10
 24e:	ec56 8b1b 	vmov	r8, r6, d11
 252:	9618      	str	r6, [sp, #96]	; 0x60
 254:	ec56 ab1c 	vmov	sl, r6, d12
 258:	ec41 0b1c 	vmov	d12, r0, r1
 25c:	4620      	mov	r0, r4
 25e:	4629      	mov	r1, r5
 260:	f7ff fffe 	bl	0 <pow>
 264:	9b18      	ldr	r3, [sp, #96]	; 0x60
 266:	ec41 0b1d 	vmov	d13, r0, r1
 26a:	4650      	mov	r0, sl
 26c:	4631      	mov	r1, r6
 26e:	4642      	mov	r2, r8
 270:	f7ff fffe 	bl	0 <pow>
 274:	ec55 6b1e 	vmov	r6, r5, d14
 278:	ec53 2b1a 	vmov	r2, r3, d10
 27c:	ec41 0b1e 	vmov	d14, r0, r1
 280:	4630      	mov	r0, r6
 282:	4629      	mov	r1, r5
 284:	f7ff fffe 	bl	0 <pow>
 288:	ee6e 1b09 	vmul.f64	d17, d14, d9
 28c:	f10d 0e40 	add.w	lr, sp, #64	; 0x40
 290:	ee6d 2b08 	vmul.f64	d18, d13, d8
 294:	eef7 1be1 	vcvt.f32.f64	s3, d17
 298:	ee6c 3b09 	vmul.f64	d19, d12, d9
 29c:	eeb7 1be2 	vcvt.f32.f64	s2, d18
 2a0:	ec41 0b30 	vmov	d16, r0, r1
 2a4:	9919      	ldr	r1, [sp, #100]	; 0x64
 2a6:	eef7 0be3 	vcvt.f32.f64	s1, d19
 2aa:	3904      	subs	r1, #4
 2ac:	ee60 0b88 	vmul.f64	d16, d16, d8
 2b0:	eeb7 0be0 	vcvt.f32.f64	s0, d16
 2b4:	f92e caef 	vld1.64	{d12-d13}, [lr :128]
 2b8:	f90b 0a8d 	vst1.32	{d0-d1}, [fp]!
 2bc:	d1a6      	bne.n	20c <_ZL16stbi__loadf_mainP13stbi__contextPiS1_S1_i+0x20c>
 2be:	980c      	ldr	r0, [sp, #48]	; 0x30
 2c0:	9e08      	ldr	r6, [sp, #32]
 2c2:	f8dd 802c 	ldr.w	r8, [sp, #44]	; 0x2c
 2c6:	e9dd b909 	ldrd	fp, r9, [sp, #36]	; 0x24
 2ca:	4286      	cmp	r6, r0
 2cc:	f8dd a01c 	ldr.w	sl, [sp, #28]
 2d0:	4604      	mov	r4, r0
 2d2:	9a17      	ldr	r2, [sp, #92]	; 0x5c
 2d4:	d01f      	beq.n	316 <_ZL16stbi__loadf_mainP13stbi__contextPiS1_S1_i+0x316>
 2d6:	980f      	ldr	r0, [sp, #60]	; 0x3c
 2d8:	9914      	ldr	r1, [sp, #80]	; 0x50
 2da:	4420      	add	r0, r4
 2dc:	eb01 0580 	add.w	r5, r1, r0, lsl #2
 2e0:	5d10      	ldrb	r0, [r2, r4]
 2e2:	e9dd 3215 	ldrd	r3, r2, [sp, #84]	; 0x54
 2e6:	ee00 0a10 	vmov	s0, r0
 2ea:	fffb 0680 	vcvt.f32.u32	d16, d0
 2ee:	ff00 0d9f 	vmul.f32	d0, d16, d15
 2f2:	eef7 0ac0 	vcvt.f64.f32	d16, s0
 2f6:	ec51 0b30 	vmov	r0, r1, d16
 2fa:	f7ff fffe 	bl	0 <pow>
 2fe:	ec41 0b30 	vmov	d16, r0, r1
 302:	9a17      	ldr	r2, [sp, #92]	; 0x5c
 304:	3401      	adds	r4, #1
 306:	ee60 0b88 	vmul.f64	d16, d16, d8
 30a:	42a6      	cmp	r6, r4
 30c:	eeb7 0be0 	vcvt.f32.f64	s0, d16
 310:	eca5 0a01 	vstmia	r5!, {s0}
 314:	d1e4      	bne.n	2e0 <_ZL16stbi__loadf_mainP13stbi__contextPiS1_S1_i+0x2e0>
 316:	980f      	ldr	r0, [sp, #60]	; 0x3c
 318:	4442      	add	r2, r8
 31a:	4440      	add	r0, r8
 31c:	900f      	str	r0, [sp, #60]	; 0x3c
 31e:	980e      	ldr	r0, [sp, #56]	; 0x38
 320:	4450      	add	r0, sl
 322:	900e      	str	r0, [sp, #56]	; 0x38
 324:	980d      	ldr	r0, [sp, #52]	; 0x34
 326:	3001      	adds	r0, #1
 328:	4558      	cmp	r0, fp
 32a:	f47f af62 	bne.w	1f2 <_ZL16stbi__loadf_mainP13stbi__contextPiS1_S1_i+0x1f2>
 32e:	9805      	ldr	r0, [sp, #20]
 330:	2800      	cmp	r0, #0
 332:	d176      	bne.n	422 <_ZL16stbi__loadf_mainP13stbi__contextPiS1_S1_i+0x422>
 334:	f1bb 0f04 	cmp.w	fp, #4
 338:	d226      	bcs.n	388 <_ZL16stbi__loadf_mainP13stbi__contextPiS1_S1_i+0x388>
 33a:	f04f 0c00 	mov.w	ip, #0
 33e:	e050      	b.n	3e2 <_ZL16stbi__loadf_mainP13stbi__contextPiS1_S1_i+0x3e2>
 340:	4648      	mov	r0, r9
 342:	f7ff fffe 	bl	0 <free>
 346:	4842      	ldr	r0, [pc, #264]	; (450 <_ZL16stbi__loadf_mainP13stbi__contextPiS1_S1_i+0x450>)
 348:	4942      	ldr	r1, [pc, #264]	; (454 <_ZL16stbi__loadf_mainP13stbi__contextPiS1_S1_i+0x454>)
 34a:	4478      	add	r0, pc
 34c:	4479      	add	r1, pc
 34e:	e003      	b.n	358 <_ZL16stbi__loadf_mainP13stbi__contextPiS1_S1_i+0x358>
 350:	4841      	ldr	r0, [pc, #260]	; (458 <_ZL16stbi__loadf_mainP13stbi__contextPiS1_S1_i+0x458>)
 352:	4942      	ldr	r1, [pc, #264]	; (45c <_ZL16stbi__loadf_mainP13stbi__contextPiS1_S1_i+0x45c>)
 354:	4478      	add	r0, pc
 356:	4479      	add	r1, pc
 358:	6001      	str	r1, [r0, #0]
 35a:	2000      	movs	r0, #0
 35c:	9014      	str	r0, [sp, #80]	; 0x50
 35e:	4840      	ldr	r0, [pc, #256]	; (460 <_ZL16stbi__loadf_mainP13stbi__contextPiS1_S1_i+0x460>)
 360:	f8dd 1874 	ldr.w	r1, [sp, #2164]	; 0x874
 364:	4478      	add	r0, pc
 366:	6800      	ldr	r0, [r0, #0]
 368:	6800      	ldr	r0, [r0, #0]
 36a:	1a40      	subs	r0, r0, r1
 36c:	bf01      	itttt	eq
 36e:	9814      	ldreq	r0, [sp, #80]	; 0x50
 370:	f1a7 0460 	subeq.w	r4, r7, #96	; 0x60
 374:	46a5      	moveq	sp, r4
 376:	ecbd 8b10 	vpopeq	{d8-d15}
 37a:	bf02      	ittt	eq
 37c:	b001      	addeq	sp, #4
 37e:	e8bd 0f00 	ldmiaeq.w	sp!, {r8, r9, sl, fp}
 382:	bdf0      	popeq	{r4, r5, r6, r7, pc}
 384:	f7ff fffe 	bl	0 <__stack_chk_fail>
 388:	f02b 0e03 	bic.w	lr, fp, #3
 38c:	f04f 0c00 	mov.w	ip, #0
 390:	f1be 0f00 	cmp.w	lr, #0
 394:	d025      	beq.n	3e2 <_ZL16stbi__loadf_mainP13stbi__contextPiS1_S1_i+0x3e2>
 396:	f1b8 0f01 	cmp.w	r8, #1
 39a:	d122      	bne.n	3e2 <_ZL16stbi__loadf_mainP13stbi__contextPiS1_S1_i+0x3e2>
 39c:	9814      	ldr	r0, [sp, #80]	; 0x50
 39e:	46f4      	mov	ip, lr
 3a0:	eb09 0206 	add.w	r2, r9, r6
 3a4:	f10d 0a68 	add.w	sl, sp, #104	; 0x68
 3a8:	eb00 0386 	add.w	r3, r0, r6, lsl #2
 3ac:	a020      	add	r0, pc, #128	; (adr r0, 430 <_ZL16stbi__loadf_mainP13stbi__contextPiS1_S1_i+0x430>)
 3ae:	f960 0aef 	vld1.64	{d16-d17}, [r0 :128]
 3b2:	ea4f 0488 	mov.w	r4, r8, lsl #2
 3b6:	ea4f 1508 	mov.w	r5, r8, lsl #4
 3ba:	4660      	mov	r0, ip
 3bc:	6811      	ldr	r1, [r2, #0]
 3be:	4422      	add	r2, r4
 3c0:	911a      	str	r1, [sp, #104]	; 0x68
 3c2:	3804      	subs	r0, #4
 3c4:	f9ea 283f 	vld1.32	{d18[0]}, [sl :32]
 3c8:	ffc8 2a32 	vmovl.u8	q9, d18
 3cc:	ffd0 2a32 	vmovl.u16	q9, d18
 3d0:	fffb 26e2 	vcvt.f32.u32	q9, q9
 3d4:	ff42 2df0 	vmul.f32	q9, q9, q8
 3d8:	f943 2a85 	vst1.32	{d18-d19}, [r3], r5
 3dc:	d1ee      	bne.n	3bc <_ZL16stbi__loadf_mainP13stbi__contextPiS1_S1_i+0x3bc>
 3de:	45f3      	cmp	fp, lr
 3e0:	d01f      	beq.n	422 <_ZL16stbi__loadf_mainP13stbi__contextPiS1_S1_i+0x422>
 3e2:	f10c 0001 	add.w	r0, ip, #1
 3e6:	9b06      	ldr	r3, [sp, #24]
 3e8:	ed9f 0a18 	vldr	s0, [pc, #96]	; 44c <_ZL16stbi__loadf_mainP13stbi__contextPiS1_S1_i+0x44c>
 3ec:	fb08 f200 	mul.w	r2, r8, r0
 3f0:	fb08 3100 	mla	r1, r8, r0, r3
 3f4:	ebab 000c 	sub.w	r0, fp, ip
 3f8:	0092      	lsls	r2, r2, #2
 3fa:	eb02 0283 	add.w	r2, r2, r3, lsl #2
 3fe:	9b14      	ldr	r3, [sp, #80]	; 0x50
 400:	4449      	add	r1, r9
 402:	441a      	add	r2, r3
 404:	ea4f 0388 	mov.w	r3, r8, lsl #2
 408:	780e      	ldrb	r6, [r1, #0]
 40a:	4441      	add	r1, r8
 40c:	3801      	subs	r0, #1
 40e:	ee01 6a10 	vmov	s2, r6
 412:	fffb 0681 	vcvt.f32.u32	d16, d1
 416:	ff00 1d90 	vmul.f32	d1, d16, d0
 41a:	ed82 1a00 	vstr	s2, [r2]
 41e:	441a      	add	r2, r3
 420:	d1f2      	bne.n	408 <_ZL16stbi__loadf_mainP13stbi__contextPiS1_S1_i+0x408>
 422:	4648      	mov	r0, r9
 424:	f7ff fffe 	bl	0 <free>
 428:	e799      	b.n	35e <_ZL16stbi__loadf_mainP13stbi__contextPiS1_S1_i+0x35e>
 42a:	bf00      	nop
 42c:	f3af 8000 	nop.w
 430:	3b808081 	.word	0x3b808081
 434:	3b808081 	.word	0x3b808081
 438:	3b808081 	.word	0x3b808081
 43c:	3b808081 	.word	0x3b808081
 440:	00000416 	.word	0x00000416
 444:	000003e6 	.word	0x000003e6
 448:	000002cc 	.word	0x000002cc
 44c:	3b808081 	.word	0x3b808081
 450:	00000106 	.word	0x00000106
 454:	00000104 	.word	0x00000104
 458:	00000104 	.word	0x00000104
 45c:	00000102 	.word	0x00000102
 460:	000000f8 	.word	0x000000f8

Disassembly of section .text.stbi_loadf_from_callbacks:

00000000 <stbi_loadf_from_callbacks>:
   0:	b5f0      	push	{r4, r5, r6, r7, lr}
   2:	af03      	add	r7, sp, #12
   4:	f84d 8d04 	str.w	r8, [sp, #-4]!
   8:	b0b2      	sub	sp, #200	; 0xc8
   a:	4615      	mov	r5, r2
   c:	4a1d      	ldr	r2, [pc, #116]	; (84 <stbi_loadf_from_callbacks+0x84>)
   e:	ac02      	add	r4, sp, #8
  10:	4698      	mov	r8, r3
  12:	447a      	add	r2, pc
  14:	f104 0628 	add.w	r6, r4, #40	; 0x28
  18:	6812      	ldr	r2, [r2, #0]
  1a:	6812      	ldr	r2, [r2, #0]
  1c:	9231      	str	r2, [sp, #196]	; 0xc4
  1e:	2280      	movs	r2, #128	; 0x80
  20:	edd0 0b00 	vldr	d16, [r0]
  24:	6880      	ldr	r0, [r0, #8]
  26:	e9cd 0108 	strd	r0, r1, [sp, #32]
  2a:	2080      	movs	r0, #128	; 0x80
  2c:	900b      	str	r0, [sp, #44]	; 0x2c
  2e:	2001      	movs	r0, #1
  30:	900a      	str	r0, [sp, #40]	; 0x28
  32:	4608      	mov	r0, r1
  34:	edcd 0b06 	vstr	d16, [sp, #24]
  38:	4631      	mov	r1, r6
  3a:	9b06      	ldr	r3, [sp, #24]
  3c:	962e      	str	r6, [sp, #184]	; 0xb8
  3e:	4798      	blx	r3
  40:	e9d7 3102 	ldrd	r3, r1, [r7, #8]
  44:	b110      	cbz	r0, 4c <stbi_loadf_from_callbacks+0x4c>
  46:	4420      	add	r0, r4
  48:	3028      	adds	r0, #40	; 0x28
  4a:	e005      	b.n	58 <stbi_loadf_from_callbacks+0x58>
  4c:	2000      	movs	r0, #0
  4e:	f88d 0030 	strb.w	r0, [sp, #48]	; 0x30
  52:	900a      	str	r0, [sp, #40]	; 0x28
  54:	f104 0029 	add.w	r0, r4, #41	; 0x29
  58:	e9cd 602c 	strd	r6, r0, [sp, #176]	; 0xb0
  5c:	4642      	mov	r2, r8
  5e:	902f      	str	r0, [sp, #188]	; 0xbc
  60:	a802      	add	r0, sp, #8
  62:	9100      	str	r1, [sp, #0]
  64:	4629      	mov	r1, r5
  66:	f7ff fffe 	bl	0 <stbi_loadf_from_callbacks>
  6a:	4907      	ldr	r1, [pc, #28]	; (88 <stbi_loadf_from_callbacks+0x88>)
  6c:	9a31      	ldr	r2, [sp, #196]	; 0xc4
  6e:	4479      	add	r1, pc
  70:	6809      	ldr	r1, [r1, #0]
  72:	6809      	ldr	r1, [r1, #0]
  74:	1a89      	subs	r1, r1, r2
  76:	bf02      	ittt	eq
  78:	b032      	addeq	sp, #200	; 0xc8
  7a:	f85d 8b04 	ldreq.w	r8, [sp], #4
  7e:	bdf0      	popeq	{r4, r5, r6, r7, pc}
  80:	f7ff fffe 	bl	0 <__stack_chk_fail>
  84:	0000006e 	.word	0x0000006e
  88:	00000016 	.word	0x00000016

Disassembly of section .text.stbi_loadf:

00000000 <stbi_loadf>:
   0:	b5f0      	push	{r4, r5, r6, r7, lr}
   2:	af03      	add	r7, sp, #12
   4:	e92d 0f00 	stmdb	sp!, {r8, r9, sl, fp}
   8:	b0b1      	sub	sp, #196	; 0xc4
   a:	468b      	mov	fp, r1
   c:	4929      	ldr	r1, [pc, #164]	; (b4 <stbi_loadf+0xb4>)
   e:	4698      	mov	r8, r3
  10:	4691      	mov	r9, r2
  12:	4479      	add	r1, pc
  14:	6809      	ldr	r1, [r1, #0]
  16:	6809      	ldr	r1, [r1, #0]
  18:	9130      	str	r1, [sp, #192]	; 0xc0
  1a:	a127      	add	r1, pc, #156	; (adr r1, b8 <stbi_loadf+0xb8>)
  1c:	f7ff fffe 	bl	0 <fopen>
  20:	4604      	mov	r4, r0
  22:	b1e4      	cbz	r4, 5e <stbi_loadf+0x5e>
  24:	4825      	ldr	r0, [pc, #148]	; (bc <stbi_loadf+0xbc>)
  26:	2180      	movs	r1, #128	; 0x80
  28:	9409      	str	r4, [sp, #36]	; 0x24
  2a:	ae02      	add	r6, sp, #8
  2c:	4478      	add	r0, pc
  2e:	910b      	str	r1, [sp, #44]	; 0x2c
  30:	f106 0528 	add.w	r5, r6, #40	; 0x28
  34:	2280      	movs	r2, #128	; 0x80
  36:	edd0 0b00 	vldr	d16, [r0]
  3a:	6881      	ldr	r1, [r0, #8]
  3c:	2001      	movs	r0, #1
  3e:	900a      	str	r0, [sp, #40]	; 0x28
  40:	4620      	mov	r0, r4
  42:	edcd 0b06 	vstr	d16, [sp, #24]
  46:	9b06      	ldr	r3, [sp, #24]
  48:	952e      	str	r5, [sp, #184]	; 0xb8
  4a:	9108      	str	r1, [sp, #32]
  4c:	4629      	mov	r1, r5
  4e:	f8d7 a008 	ldr.w	sl, [r7, #8]
  52:	4798      	blx	r3
  54:	2800      	cmp	r0, #0
  56:	d009      	beq.n	6c <stbi_loadf+0x6c>
  58:	4430      	add	r0, r6
  5a:	3028      	adds	r0, #40	; 0x28
  5c:	e00c      	b.n	78 <stbi_loadf+0x78>
  5e:	4818      	ldr	r0, [pc, #96]	; (c0 <stbi_loadf+0xc0>)
  60:	2500      	movs	r5, #0
  62:	4918      	ldr	r1, [pc, #96]	; (c4 <stbi_loadf+0xc4>)
  64:	4478      	add	r0, pc
  66:	4479      	add	r1, pc
  68:	6001      	str	r1, [r0, #0]
  6a:	e014      	b.n	96 <stbi_loadf+0x96>
  6c:	2000      	movs	r0, #0
  6e:	f88d 0030 	strb.w	r0, [sp, #48]	; 0x30
  72:	900a      	str	r0, [sp, #40]	; 0x28
  74:	f106 0029 	add.w	r0, r6, #41	; 0x29
  78:	e9cd 502c 	strd	r5, r0, [sp, #176]	; 0xb0
  7c:	4659      	mov	r1, fp
  7e:	902f      	str	r0, [sp, #188]	; 0xbc
  80:	a802      	add	r0, sp, #8
  82:	464a      	mov	r2, r9
  84:	4643      	mov	r3, r8
  86:	f8cd a000 	str.w	sl, [sp]
  8a:	f7ff fffe 	bl	0 <stbi_loadf>
  8e:	4605      	mov	r5, r0
  90:	4620      	mov	r0, r4
  92:	f7ff fffe 	bl	0 <fclose>
  96:	480c      	ldr	r0, [pc, #48]	; (c8 <stbi_loadf+0xc8>)
  98:	9930      	ldr	r1, [sp, #192]	; 0xc0
  9a:	4478      	add	r0, pc
  9c:	6800      	ldr	r0, [r0, #0]
  9e:	6800      	ldr	r0, [r0, #0]
  a0:	1a40      	subs	r0, r0, r1
  a2:	bf01      	itttt	eq
  a4:	4628      	moveq	r0, r5
  a6:	b031      	addeq	sp, #196	; 0xc4
  a8:	e8bd 0f00 	ldmiaeq.w	sp!, {r8, r9, sl, fp}
  ac:	bdf0      	popeq	{r4, r5, r6, r7, pc}
  ae:	f7ff fffe 	bl	0 <__stack_chk_fail>
  b2:	bf00      	nop
  b4:	0000009e 	.word	0x0000009e
  b8:	00006272 	.word	0x00006272
  bc:	0000008c 	.word	0x0000008c
  c0:	0000005c 	.word	0x0000005c
  c4:	0000005a 	.word	0x0000005a
  c8:	0000002a 	.word	0x0000002a

Disassembly of section .text.stbi_loadf_from_file:

00000000 <stbi_loadf_from_file>:
   0:	b5f0      	push	{r4, r5, r6, r7, lr}
   2:	af03      	add	r7, sp, #12
   4:	e92d 0b00 	stmdb	sp!, {r8, r9, fp}
   8:	b0b2      	sub	sp, #200	; 0xc8
   a:	460e      	mov	r6, r1
   c:	491f      	ldr	r1, [pc, #124]	; (8c <stbi_loadf_from_file+0x8c>)
   e:	4691      	mov	r9, r2
  10:	4a1f      	ldr	r2, [pc, #124]	; (90 <stbi_loadf_from_file+0x90>)
  12:	4479      	add	r1, pc
  14:	ad02      	add	r5, sp, #8
  16:	447a      	add	r2, pc
  18:	4698      	mov	r8, r3
  1a:	6809      	ldr	r1, [r1, #0]
  1c:	f105 0428 	add.w	r4, r5, #40	; 0x28
  20:	6809      	ldr	r1, [r1, #0]
  22:	9131      	str	r1, [sp, #196]	; 0xc4
  24:	2180      	movs	r1, #128	; 0x80
  26:	edd2 0b00 	vldr	d16, [r2]
  2a:	9009      	str	r0, [sp, #36]	; 0x24
  2c:	910b      	str	r1, [sp, #44]	; 0x2c
  2e:	6891      	ldr	r1, [r2, #8]
  30:	2201      	movs	r2, #1
  32:	920a      	str	r2, [sp, #40]	; 0x28
  34:	2280      	movs	r2, #128	; 0x80
  36:	edcd 0b06 	vstr	d16, [sp, #24]
  3a:	9b06      	ldr	r3, [sp, #24]
  3c:	942e      	str	r4, [sp, #184]	; 0xb8
  3e:	9108      	str	r1, [sp, #32]
  40:	4621      	mov	r1, r4
  42:	4798      	blx	r3
  44:	68b9      	ldr	r1, [r7, #8]
  46:	2800      	cmp	r0, #0
  48:	d002      	beq.n	50 <stbi_loadf_from_file+0x50>
  4a:	4428      	add	r0, r5
  4c:	3028      	adds	r0, #40	; 0x28
  4e:	e005      	b.n	5c <stbi_loadf_from_file+0x5c>
  50:	2000      	movs	r0, #0
  52:	f88d 0030 	strb.w	r0, [sp, #48]	; 0x30
  56:	900a      	str	r0, [sp, #40]	; 0x28
  58:	f105 0029 	add.w	r0, r5, #41	; 0x29
  5c:	e9cd 402c 	strd	r4, r0, [sp, #176]	; 0xb0
  60:	464a      	mov	r2, r9
  62:	902f      	str	r0, [sp, #188]	; 0xbc
  64:	a802      	add	r0, sp, #8
  66:	9100      	str	r1, [sp, #0]
  68:	4631      	mov	r1, r6
  6a:	4643      	mov	r3, r8
  6c:	f7ff fffe 	bl	0 <stbi_loadf_from_file>
  70:	4908      	ldr	r1, [pc, #32]	; (94 <stbi_loadf_from_file+0x94>)
  72:	9a31      	ldr	r2, [sp, #196]	; 0xc4
  74:	4479      	add	r1, pc
  76:	6809      	ldr	r1, [r1, #0]
  78:	6809      	ldr	r1, [r1, #0]
  7a:	1a89      	subs	r1, r1, r2
  7c:	bf02      	ittt	eq
  7e:	b032      	addeq	sp, #200	; 0xc8
  80:	e8bd 0b00 	ldmiaeq.w	sp!, {r8, r9, fp}
  84:	bdf0      	popeq	{r4, r5, r6, r7, pc}
  86:	f7ff fffe 	bl	0 <__stack_chk_fail>
  8a:	bf00      	nop
  8c:	00000076 	.word	0x00000076
  90:	00000076 	.word	0x00000076
  94:	0000001c 	.word	0x0000001c

Disassembly of section .text.stbi_is_hdr_from_memory:

00000000 <stbi_is_hdr_from_memory>:
   0:	b580      	push	{r7, lr}
   2:	466f      	mov	r7, sp
   4:	b0b0      	sub	sp, #192	; 0xc0
   6:	4a0d      	ldr	r2, [pc, #52]	; (3c <stbi_is_hdr_from_memory+0x3c>)
   8:	447a      	add	r2, pc
   a:	6812      	ldr	r2, [r2, #0]
   c:	6812      	ldr	r2, [r2, #0]
   e:	922f      	str	r2, [sp, #188]	; 0xbc
  10:	2200      	movs	r2, #0
  12:	9209      	str	r2, [sp, #36]	; 0x24
  14:	9205      	str	r2, [sp, #20]
  16:	902d      	str	r0, [sp, #180]	; 0xb4
  18:	902b      	str	r0, [sp, #172]	; 0xac
  1a:	4408      	add	r0, r1
  1c:	902e      	str	r0, [sp, #184]	; 0xb8
  1e:	902c      	str	r0, [sp, #176]	; 0xb0
  20:	a801      	add	r0, sp, #4
  22:	f7ff fffe 	bl	0 <stbi_is_hdr_from_memory>
  26:	4906      	ldr	r1, [pc, #24]	; (40 <stbi_is_hdr_from_memory+0x40>)
  28:	9a2f      	ldr	r2, [sp, #188]	; 0xbc
  2a:	4479      	add	r1, pc
  2c:	6809      	ldr	r1, [r1, #0]
  2e:	6809      	ldr	r1, [r1, #0]
  30:	1a89      	subs	r1, r1, r2
  32:	bf04      	itt	eq
  34:	b030      	addeq	sp, #192	; 0xc0
  36:	bd80      	popeq	{r7, pc}
  38:	f7ff fffe 	bl	0 <__stack_chk_fail>
  3c:	00000030 	.word	0x00000030
  40:	00000012 	.word	0x00000012

Disassembly of section .text._ZL14stbi__hdr_testP13stbi__context:

00000000 <_ZL14stbi__hdr_testP13stbi__context>:
   0:	b5f0      	push	{r4, r5, r6, r7, lr}
   2:	af03      	add	r7, sp, #12
   4:	e92d 0700 	stmdb	sp!, {r8, r9, sl}
   8:	4604      	mov	r4, r0
   a:	f104 0829 	add.w	r8, r4, #41	; 0x29
   e:	e9d4 102a 	ldrd	r1, r0, [r4, #168]	; 0xa8
  12:	f104 0a28 	add.w	sl, r4, #40	; 0x28
  16:	f04f 0900 	mov.w	r9, #0
  1a:	2223      	movs	r2, #35	; 0x23
  1c:	a684      	add	r6, pc, #528	; (adr r6, 230 <_ZL14stbi__hdr_testP13stbi__context+0x230>)
  1e:	2500      	movs	r5, #0
  20:	4281      	cmp	r1, r0
  22:	d201      	bcs.n	28 <_ZL14stbi__hdr_testP13stbi__context+0x28>
  24:	460b      	mov	r3, r1
  26:	e014      	b.n	52 <_ZL14stbi__hdr_testP13stbi__context+0x52>
  28:	6a23      	ldr	r3, [r4, #32]
  2a:	b143      	cbz	r3, 3e <_ZL14stbi__hdr_testP13stbi__context+0x3e>
  2c:	6923      	ldr	r3, [r4, #16]
  2e:	4651      	mov	r1, sl
  30:	69e0      	ldr	r0, [r4, #28]
  32:	6a62      	ldr	r2, [r4, #36]	; 0x24
  34:	4798      	blx	r3
  36:	b120      	cbz	r0, 42 <_ZL14stbi__hdr_testP13stbi__context+0x42>
  38:	4420      	add	r0, r4
  3a:	3028      	adds	r0, #40	; 0x28
  3c:	e006      	b.n	4c <_ZL14stbi__hdr_testP13stbi__context+0x4c>
  3e:	2300      	movs	r3, #0
  40:	e00c      	b.n	5c <_ZL14stbi__hdr_testP13stbi__context+0x5c>
  42:	f884 9028 	strb.w	r9, [r4, #40]	; 0x28
  46:	4640      	mov	r0, r8
  48:	f8c4 9020 	str.w	r9, [r4, #32]
  4c:	4653      	mov	r3, sl
  4e:	e9c4 a02a 	strd	sl, r0, [r4, #168]	; 0xa8
  52:	1c59      	adds	r1, r3, #1
  54:	f8c4 10a8 	str.w	r1, [r4, #168]	; 0xa8
  58:	5d72      	ldrb	r2, [r6, r5]
  5a:	781b      	ldrb	r3, [r3, #0]
  5c:	b2d2      	uxtb	r2, r2
  5e:	4293      	cmp	r3, r2
  60:	d10d      	bne.n	7e <_ZL14stbi__hdr_testP13stbi__context+0x7e>
  62:	1972      	adds	r2, r6, r5
  64:	1c6b      	adds	r3, r5, #1
  66:	2b0b      	cmp	r3, #11
  68:	7852      	ldrb	r2, [r2, #1]
  6a:	461d      	mov	r5, r3
  6c:	d1d8      	bne.n	20 <_ZL14stbi__hdr_testP13stbi__context+0x20>
  6e:	e9d4 012c 	ldrd	r0, r1, [r4, #176]	; 0xb0
  72:	e9c4 012a 	strd	r0, r1, [r4, #168]	; 0xa8
  76:	2001      	movs	r0, #1
  78:	e8bd 0700 	ldmia.w	sp!, {r8, r9, sl}
  7c:	bdf0      	pop	{r4, r5, r6, r7, pc}
  7e:	e9d4 202c 	ldrd	r2, r0, [r4, #176]	; 0xb0
  82:	e9c4 202a 	strd	r2, r0, [r4, #168]	; 0xa8
  86:	4282      	cmp	r2, r0
  88:	d314      	bcc.n	b4 <_ZL14stbi__hdr_testP13stbi__context+0xb4>
  8a:	6a20      	ldr	r0, [r4, #32]
  8c:	2800      	cmp	r0, #0
  8e:	f000 80c7 	beq.w	220 <_ZL14stbi__hdr_testP13stbi__context+0x220>
  92:	6923      	ldr	r3, [r4, #16]
  94:	4651      	mov	r1, sl
  96:	69e0      	ldr	r0, [r4, #28]
  98:	6a62      	ldr	r2, [r4, #36]	; 0x24
  9a:	4798      	blx	r3
  9c:	b110      	cbz	r0, a4 <_ZL14stbi__hdr_testP13stbi__context+0xa4>
  9e:	4420      	add	r0, r4
  a0:	3028      	adds	r0, #40	; 0x28
  a2:	e004      	b.n	ae <_ZL14stbi__hdr_testP13stbi__context+0xae>
  a4:	2000      	movs	r0, #0
  a6:	f884 0028 	strb.w	r0, [r4, #40]	; 0x28
  aa:	6220      	str	r0, [r4, #32]
  ac:	4640      	mov	r0, r8
  ae:	4652      	mov	r2, sl
  b0:	e9c4 a02a 	strd	sl, r0, [r4, #168]	; 0xa8
  b4:	1c51      	adds	r1, r2, #1
  b6:	f8c4 10a8 	str.w	r1, [r4, #168]	; 0xa8
  ba:	7812      	ldrb	r2, [r2, #0]
  bc:	2a23      	cmp	r2, #35	; 0x23
  be:	f040 80af 	bne.w	220 <_ZL14stbi__hdr_testP13stbi__context+0x220>
  c2:	4281      	cmp	r1, r0
  c4:	d314      	bcc.n	f0 <_ZL14stbi__hdr_testP13stbi__context+0xf0>
  c6:	6a20      	ldr	r0, [r4, #32]
  c8:	2800      	cmp	r0, #0
  ca:	f000 80a9 	beq.w	220 <_ZL14stbi__hdr_testP13stbi__context+0x220>
  ce:	6923      	ldr	r3, [r4, #16]
  d0:	4651      	mov	r1, sl
  d2:	69e0      	ldr	r0, [r4, #28]
  d4:	6a62      	ldr	r2, [r4, #36]	; 0x24
  d6:	4798      	blx	r3
  d8:	b110      	cbz	r0, e0 <_ZL14stbi__hdr_testP13stbi__context+0xe0>
  da:	4420      	add	r0, r4
  dc:	3028      	adds	r0, #40	; 0x28
  de:	e004      	b.n	ea <_ZL14stbi__hdr_testP13stbi__context+0xea>
  e0:	2000      	movs	r0, #0
  e2:	f884 0028 	strb.w	r0, [r4, #40]	; 0x28
  e6:	6220      	str	r0, [r4, #32]
  e8:	4640      	mov	r0, r8
  ea:	4651      	mov	r1, sl
  ec:	e9c4 a02a 	strd	sl, r0, [r4, #168]	; 0xa8
  f0:	1c4a      	adds	r2, r1, #1
  f2:	f8c4 20a8 	str.w	r2, [r4, #168]	; 0xa8
  f6:	7809      	ldrb	r1, [r1, #0]
  f8:	293f      	cmp	r1, #63	; 0x3f
  fa:	f040 8091 	bne.w	220 <_ZL14stbi__hdr_testP13stbi__context+0x220>
  fe:	4282      	cmp	r2, r0
 100:	d314      	bcc.n	12c <_ZL14stbi__hdr_testP13stbi__context+0x12c>
 102:	6a20      	ldr	r0, [r4, #32]
 104:	2800      	cmp	r0, #0
 106:	f000 808b 	beq.w	220 <_ZL14stbi__hdr_testP13stbi__context+0x220>
 10a:	6923      	ldr	r3, [r4, #16]
 10c:	4651      	mov	r1, sl
 10e:	69e0      	ldr	r0, [r4, #28]
 110:	6a62      	ldr	r2, [r4, #36]	; 0x24
 112:	4798      	blx	r3
 114:	b110      	cbz	r0, 11c <_ZL14stbi__hdr_testP13stbi__context+0x11c>
 116:	4420      	add	r0, r4
 118:	3028      	adds	r0, #40	; 0x28
 11a:	e004      	b.n	126 <_ZL14stbi__hdr_testP13stbi__context+0x126>
 11c:	2000      	movs	r0, #0
 11e:	f884 0028 	strb.w	r0, [r4, #40]	; 0x28
 122:	6220      	str	r0, [r4, #32]
 124:	4640      	mov	r0, r8
 126:	4652      	mov	r2, sl
 128:	e9c4 a02a 	strd	sl, r0, [r4, #168]	; 0xa8
 12c:	1c51      	adds	r1, r2, #1
 12e:	f8c4 10a8 	str.w	r1, [r4, #168]	; 0xa8
 132:	7812      	ldrb	r2, [r2, #0]
 134:	2a52      	cmp	r2, #82	; 0x52
 136:	d173      	bne.n	220 <_ZL14stbi__hdr_testP13stbi__context+0x220>
 138:	4281      	cmp	r1, r0
 13a:	d313      	bcc.n	164 <_ZL14stbi__hdr_testP13stbi__context+0x164>
 13c:	6a20      	ldr	r0, [r4, #32]
 13e:	2800      	cmp	r0, #0
 140:	d06e      	beq.n	220 <_ZL14stbi__hdr_testP13stbi__context+0x220>
 142:	6923      	ldr	r3, [r4, #16]
 144:	4651      	mov	r1, sl
 146:	69e0      	ldr	r0, [r4, #28]
 148:	6a62      	ldr	r2, [r4, #36]	; 0x24
 14a:	4798      	blx	r3
 14c:	b110      	cbz	r0, 154 <_ZL14stbi__hdr_testP13stbi__context+0x154>
 14e:	4420      	add	r0, r4
 150:	3028      	adds	r0, #40	; 0x28
 152:	e004      	b.n	15e <_ZL14stbi__hdr_testP13stbi__context+0x15e>
 154:	2000      	movs	r0, #0
 156:	f884 0028 	strb.w	r0, [r4, #40]	; 0x28
 15a:	6220      	str	r0, [r4, #32]
 15c:	4640      	mov	r0, r8
 15e:	4651      	mov	r1, sl
 160:	e9c4 a02a 	strd	sl, r0, [r4, #168]	; 0xa8
 164:	1c4a      	adds	r2, r1, #1
 166:	f8c4 20a8 	str.w	r2, [r4, #168]	; 0xa8
 16a:	7809      	ldrb	r1, [r1, #0]
 16c:	2947      	cmp	r1, #71	; 0x47
 16e:	d157      	bne.n	220 <_ZL14stbi__hdr_testP13stbi__context+0x220>
 170:	4282      	cmp	r2, r0
 172:	d313      	bcc.n	19c <_ZL14stbi__hdr_testP13stbi__context+0x19c>
 174:	6a20      	ldr	r0, [r4, #32]
 176:	2800      	cmp	r0, #0
 178:	d052      	beq.n	220 <_ZL14stbi__hdr_testP13stbi__context+0x220>
 17a:	6923      	ldr	r3, [r4, #16]
 17c:	4651      	mov	r1, sl
 17e:	69e0      	ldr	r0, [r4, #28]
 180:	6a62      	ldr	r2, [r4, #36]	; 0x24
 182:	4798      	blx	r3
 184:	b110      	cbz	r0, 18c <_ZL14stbi__hdr_testP13stbi__context+0x18c>
 186:	4420      	add	r0, r4
 188:	3028      	adds	r0, #40	; 0x28
 18a:	e004      	b.n	196 <_ZL14stbi__hdr_testP13stbi__context+0x196>
 18c:	2000      	movs	r0, #0
 18e:	f884 0028 	strb.w	r0, [r4, #40]	; 0x28
 192:	6220      	str	r0, [r4, #32]
 194:	4640      	mov	r0, r8
 196:	4652      	mov	r2, sl
 198:	e9c4 a02a 	strd	sl, r0, [r4, #168]	; 0xa8
 19c:	1c51      	adds	r1, r2, #1
 19e:	f8c4 10a8 	str.w	r1, [r4, #168]	; 0xa8
 1a2:	7812      	ldrb	r2, [r2, #0]
 1a4:	2a42      	cmp	r2, #66	; 0x42
 1a6:	d13b      	bne.n	220 <_ZL14stbi__hdr_testP13stbi__context+0x220>
 1a8:	4281      	cmp	r1, r0
 1aa:	d312      	bcc.n	1d2 <_ZL14stbi__hdr_testP13stbi__context+0x1d2>
 1ac:	6a20      	ldr	r0, [r4, #32]
 1ae:	b3b8      	cbz	r0, 220 <_ZL14stbi__hdr_testP13stbi__context+0x220>
 1b0:	6923      	ldr	r3, [r4, #16]
 1b2:	4651      	mov	r1, sl
 1b4:	69e0      	ldr	r0, [r4, #28]
 1b6:	6a62      	ldr	r2, [r4, #36]	; 0x24
 1b8:	4798      	blx	r3
 1ba:	b110      	cbz	r0, 1c2 <_ZL14stbi__hdr_testP13stbi__context+0x1c2>
 1bc:	4420      	add	r0, r4
 1be:	3028      	adds	r0, #40	; 0x28
 1c0:	e004      	b.n	1cc <_ZL14stbi__hdr_testP13stbi__context+0x1cc>
 1c2:	2000      	movs	r0, #0
 1c4:	f884 0028 	strb.w	r0, [r4, #40]	; 0x28
 1c8:	6220      	str	r0, [r4, #32]
 1ca:	4640      	mov	r0, r8
 1cc:	4651      	mov	r1, sl
 1ce:	e9c4 a02a 	strd	sl, r0, [r4, #168]	; 0xa8
 1d2:	1c4a      	adds	r2, r1, #1
 1d4:	f8c4 20a8 	str.w	r2, [r4, #168]	; 0xa8
 1d8:	7809      	ldrb	r1, [r1, #0]
 1da:	2945      	cmp	r1, #69	; 0x45
 1dc:	d120      	bne.n	220 <_ZL14stbi__hdr_testP13stbi__context+0x220>
 1de:	4282      	cmp	r2, r0
 1e0:	d312      	bcc.n	208 <_ZL14stbi__hdr_testP13stbi__context+0x208>
 1e2:	6a20      	ldr	r0, [r4, #32]
 1e4:	b1e0      	cbz	r0, 220 <_ZL14stbi__hdr_testP13stbi__context+0x220>
 1e6:	6923      	ldr	r3, [r4, #16]
 1e8:	4651      	mov	r1, sl
 1ea:	69e0      	ldr	r0, [r4, #28]
 1ec:	6a62      	ldr	r2, [r4, #36]	; 0x24
 1ee:	4798      	blx	r3
 1f0:	b118      	cbz	r0, 1fa <_ZL14stbi__hdr_testP13stbi__context+0x1fa>
 1f2:	4420      	add	r0, r4
 1f4:	f100 0828 	add.w	r8, r0, #40	; 0x28
 1f8:	e003      	b.n	202 <_ZL14stbi__hdr_testP13stbi__context+0x202>
 1fa:	2000      	movs	r0, #0
 1fc:	f884 0028 	strb.w	r0, [r4, #40]	; 0x28
 200:	6220      	str	r0, [r4, #32]
 202:	4652      	mov	r2, sl
 204:	e9c4 a82a 	strd	sl, r8, [r4, #168]	; 0xa8
 208:	1c50      	adds	r0, r2, #1
 20a:	f8c4 00a8 	str.w	r0, [r4, #168]	; 0xa8
 20e:	7810      	ldrb	r0, [r2, #0]
 210:	280a      	cmp	r0, #10
 212:	d105      	bne.n	220 <_ZL14stbi__hdr_testP13stbi__context+0x220>
 214:	e9d4 122c 	ldrd	r1, r2, [r4, #176]	; 0xb0
 218:	2001      	movs	r0, #1
 21a:	e9c4 122a 	strd	r1, r2, [r4, #168]	; 0xa8
 21e:	e002      	b.n	226 <_ZL14stbi__hdr_testP13stbi__context+0x226>
 220:	e9d4 122c 	ldrd	r1, r2, [r4, #176]	; 0xb0
 224:	2000      	movs	r0, #0
 226:	e9c4 122a 	strd	r1, r2, [r4, #168]	; 0xa8
 22a:	e8bd 0700 	ldmia.w	sp!, {r8, r9, sl}
 22e:	bdf0      	pop	{r4, r5, r6, r7, pc}
 230:	41523f23 	.word	0x41523f23
 234:	4e414944 	.word	0x4e414944
 238:	000a4543 	.word	0x000a4543

Disassembly of section .text.stbi_is_hdr:

00000000 <stbi_is_hdr>:
   0:	b5f0      	push	{r4, r5, r6, r7, lr}
   2:	af03      	add	r7, sp, #12
   4:	f84d 8d04 	str.w	r8, [sp, #-4]!
   8:	b0b0      	sub	sp, #192	; 0xc0
   a:	4927      	ldr	r1, [pc, #156]	; (a8 <stbi_is_hdr+0xa8>)
   c:	4479      	add	r1, pc
   e:	6809      	ldr	r1, [r1, #0]
  10:	6809      	ldr	r1, [r1, #0]
  12:	912f      	str	r1, [sp, #188]	; 0xbc
  14:	a125      	add	r1, pc, #148	; (adr r1, ac <stbi_is_hdr+0xac>)
  16:	f7ff fffe 	bl	0 <fopen>
  1a:	4604      	mov	r4, r0
  1c:	b1f4      	cbz	r4, 5c <stbi_is_hdr+0x5c>
  1e:	4620      	mov	r0, r4
  20:	f7ff fffe 	bl	0 <ftell>
  24:	4680      	mov	r8, r0
  26:	4822      	ldr	r0, [pc, #136]	; (b0 <stbi_is_hdr+0xb0>)
  28:	2180      	movs	r1, #128	; 0x80
  2a:	9407      	str	r4, [sp, #28]
  2c:	4478      	add	r0, pc
  2e:	9109      	str	r1, [sp, #36]	; 0x24
  30:	466d      	mov	r5, sp
  32:	f105 0628 	add.w	r6, r5, #40	; 0x28
  36:	edd0 0b00 	vldr	d16, [r0]
  3a:	2280      	movs	r2, #128	; 0x80
  3c:	6881      	ldr	r1, [r0, #8]
  3e:	2001      	movs	r0, #1
  40:	9008      	str	r0, [sp, #32]
  42:	4620      	mov	r0, r4
  44:	edcd 0b04 	vstr	d16, [sp, #16]
  48:	9b04      	ldr	r3, [sp, #16]
  4a:	962c      	str	r6, [sp, #176]	; 0xb0
  4c:	9106      	str	r1, [sp, #24]
  4e:	4631      	mov	r1, r6
  50:	4798      	blx	r3
  52:	2800      	cmp	r0, #0
  54:	d004      	beq.n	60 <stbi_is_hdr+0x60>
  56:	4428      	add	r0, r5
  58:	3028      	adds	r0, #40	; 0x28
  5a:	e007      	b.n	6c <stbi_is_hdr+0x6c>
  5c:	2600      	movs	r6, #0
  5e:	e014      	b.n	8a <stbi_is_hdr+0x8a>
  60:	2000      	movs	r0, #0
  62:	f88d 0028 	strb.w	r0, [sp, #40]	; 0x28
  66:	9008      	str	r0, [sp, #32]
  68:	f105 0029 	add.w	r0, r5, #41	; 0x29
  6c:	e9cd 602a 	strd	r6, r0, [sp, #168]	; 0xa8
  70:	902d      	str	r0, [sp, #180]	; 0xb4
  72:	4668      	mov	r0, sp
  74:	f7ff fffe 	bl	0 <stbi_is_hdr>
  78:	4606      	mov	r6, r0
  7a:	4620      	mov	r0, r4
  7c:	4641      	mov	r1, r8
  7e:	2200      	movs	r2, #0
  80:	f7ff fffe 	bl	0 <fseek>
  84:	4620      	mov	r0, r4
  86:	f7ff fffe 	bl	0 <fclose>
  8a:	480a      	ldr	r0, [pc, #40]	; (b4 <stbi_is_hdr+0xb4>)
  8c:	992f      	ldr	r1, [sp, #188]	; 0xbc
  8e:	4478      	add	r0, pc
  90:	6800      	ldr	r0, [r0, #0]
  92:	6800      	ldr	r0, [r0, #0]
  94:	1a40      	subs	r0, r0, r1
  96:	bf01      	itttt	eq
  98:	4630      	moveq	r0, r6
  9a:	b030      	addeq	sp, #192	; 0xc0
  9c:	f85d 8b04 	ldreq.w	r8, [sp], #4
  a0:	bdf0      	popeq	{r4, r5, r6, r7, pc}
  a2:	f7ff fffe 	bl	0 <__stack_chk_fail>
  a6:	bf00      	nop
  a8:	00000098 	.word	0x00000098
  ac:	00006272 	.word	0x00006272
  b0:	00000080 	.word	0x00000080
  b4:	00000022 	.word	0x00000022

Disassembly of section .text.stbi_is_hdr_from_file:

00000000 <stbi_is_hdr_from_file>:
   0:	b5f0      	push	{r4, r5, r6, r7, lr}
   2:	af03      	add	r7, sp, #12
   4:	f84d 8d04 	str.w	r8, [sp, #-4]!
   8:	b0b0      	sub	sp, #192	; 0xc0
   a:	4604      	mov	r4, r0
   c:	4821      	ldr	r0, [pc, #132]	; (94 <stbi_is_hdr_from_file+0x94>)
   e:	4478      	add	r0, pc
  10:	6800      	ldr	r0, [r0, #0]
  12:	6800      	ldr	r0, [r0, #0]
  14:	902f      	str	r0, [sp, #188]	; 0xbc
  16:	4620      	mov	r0, r4
  18:	f7ff fffe 	bl	0 <ftell>
  1c:	4680      	mov	r8, r0
  1e:	481e      	ldr	r0, [pc, #120]	; (98 <stbi_is_hdr_from_file+0x98>)
  20:	2180      	movs	r1, #128	; 0x80
  22:	9407      	str	r4, [sp, #28]
  24:	4478      	add	r0, pc
  26:	9109      	str	r1, [sp, #36]	; 0x24
  28:	466d      	mov	r5, sp
  2a:	f105 0628 	add.w	r6, r5, #40	; 0x28
  2e:	edd0 0b00 	vldr	d16, [r0]
  32:	2280      	movs	r2, #128	; 0x80
  34:	6881      	ldr	r1, [r0, #8]
  36:	2001      	movs	r0, #1
  38:	9008      	str	r0, [sp, #32]
  3a:	4620      	mov	r0, r4
  3c:	edcd 0b04 	vstr	d16, [sp, #16]
  40:	9b04      	ldr	r3, [sp, #16]
  42:	962c      	str	r6, [sp, #176]	; 0xb0
  44:	9106      	str	r1, [sp, #24]
  46:	4631      	mov	r1, r6
  48:	4798      	blx	r3
  4a:	2800      	cmp	r0, #0
  4c:	d002      	beq.n	54 <stbi_is_hdr_from_file+0x54>
  4e:	4428      	add	r0, r5
  50:	3028      	adds	r0, #40	; 0x28
  52:	e005      	b.n	60 <stbi_is_hdr_from_file+0x60>
  54:	2000      	movs	r0, #0
  56:	f88d 0028 	strb.w	r0, [sp, #40]	; 0x28
  5a:	9008      	str	r0, [sp, #32]
  5c:	f105 0029 	add.w	r0, r5, #41	; 0x29
  60:	e9cd 602a 	strd	r6, r0, [sp, #168]	; 0xa8
  64:	902d      	str	r0, [sp, #180]	; 0xb4
  66:	4668      	mov	r0, sp
  68:	f7ff fffe 	bl	0 <stbi_is_hdr_from_file>
  6c:	4606      	mov	r6, r0
  6e:	4620      	mov	r0, r4
  70:	4641      	mov	r1, r8
  72:	2200      	movs	r2, #0
  74:	f7ff fffe 	bl	0 <fseek>
  78:	4808      	ldr	r0, [pc, #32]	; (9c <stbi_is_hdr_from_file+0x9c>)
  7a:	992f      	ldr	r1, [sp, #188]	; 0xbc
  7c:	4478      	add	r0, pc
  7e:	6800      	ldr	r0, [r0, #0]
  80:	6800      	ldr	r0, [r0, #0]
  82:	1a40      	subs	r0, r0, r1
  84:	bf01      	itttt	eq
  86:	4630      	moveq	r0, r6
  88:	b030      	addeq	sp, #192	; 0xc0
  8a:	f85d 8b04 	ldreq.w	r8, [sp], #4
  8e:	bdf0      	popeq	{r4, r5, r6, r7, pc}
  90:	f7ff fffe 	bl	0 <__stack_chk_fail>
  94:	00000082 	.word	0x00000082
  98:	00000070 	.word	0x00000070
  9c:	0000001c 	.word	0x0000001c

Disassembly of section .text.stbi_is_hdr_from_callbacks:

00000000 <stbi_is_hdr_from_callbacks>:
   0:	b5b0      	push	{r4, r5, r7, lr}
   2:	af02      	add	r7, sp, #8
   4:	b0b0      	sub	sp, #192	; 0xc0
   6:	4a1a      	ldr	r2, [pc, #104]	; (70 <stbi_is_hdr_from_callbacks+0x70>)
   8:	466d      	mov	r5, sp
   a:	f105 0428 	add.w	r4, r5, #40	; 0x28
   e:	447a      	add	r2, pc
  10:	6812      	ldr	r2, [r2, #0]
  12:	6812      	ldr	r2, [r2, #0]
  14:	922f      	str	r2, [sp, #188]	; 0xbc
  16:	2280      	movs	r2, #128	; 0x80
  18:	edd0 0b00 	vldr	d16, [r0]
  1c:	6880      	ldr	r0, [r0, #8]
  1e:	e9cd 0106 	strd	r0, r1, [sp, #24]
  22:	2080      	movs	r0, #128	; 0x80
  24:	9009      	str	r0, [sp, #36]	; 0x24
  26:	2001      	movs	r0, #1
  28:	9008      	str	r0, [sp, #32]
  2a:	4608      	mov	r0, r1
  2c:	edcd 0b04 	vstr	d16, [sp, #16]
  30:	4621      	mov	r1, r4
  32:	9b04      	ldr	r3, [sp, #16]
  34:	942c      	str	r4, [sp, #176]	; 0xb0
  36:	4798      	blx	r3
  38:	b110      	cbz	r0, 40 <stbi_is_hdr_from_callbacks+0x40>
  3a:	4428      	add	r0, r5
  3c:	3028      	adds	r0, #40	; 0x28
  3e:	e005      	b.n	4c <stbi_is_hdr_from_callbacks+0x4c>
  40:	2000      	movs	r0, #0
  42:	f88d 0028 	strb.w	r0, [sp, #40]	; 0x28
  46:	9008      	str	r0, [sp, #32]
  48:	f105 0029 	add.w	r0, r5, #41	; 0x29
  4c:	e9cd 402a 	strd	r4, r0, [sp, #168]	; 0xa8
  50:	902d      	str	r0, [sp, #180]	; 0xb4
  52:	4668      	mov	r0, sp
  54:	f7ff fffe 	bl	0 <stbi_is_hdr_from_callbacks>
  58:	4906      	ldr	r1, [pc, #24]	; (74 <stbi_is_hdr_from_callbacks+0x74>)
  5a:	9a2f      	ldr	r2, [sp, #188]	; 0xbc
  5c:	4479      	add	r1, pc
  5e:	6809      	ldr	r1, [r1, #0]
  60:	6809      	ldr	r1, [r1, #0]
  62:	1a89      	subs	r1, r1, r2
  64:	bf04      	itt	eq
  66:	b030      	addeq	sp, #192	; 0xc0
  68:	bdb0      	popeq	{r4, r5, r7, pc}
  6a:	f7ff fffe 	bl	0 <__stack_chk_fail>
  6e:	bf00      	nop
  70:	0000005e 	.word	0x0000005e
  74:	00000014 	.word	0x00000014

Disassembly of section .text.stbi_ldr_to_hdr_gamma:

00000000 <stbi_ldr_to_hdr_gamma>:
   0:	4901      	ldr	r1, [pc, #4]	; (8 <stbi_ldr_to_hdr_gamma+0x8>)
   2:	4479      	add	r1, pc
   4:	6008      	str	r0, [r1, #0]
   6:	4770      	bx	lr
   8:	00000032 	.word	0x00000032

Disassembly of section .text.stbi_ldr_to_hdr_scale:

00000000 <stbi_ldr_to_hdr_scale>:
   0:	4901      	ldr	r1, [pc, #4]	; (8 <stbi_ldr_to_hdr_scale+0x8>)
   2:	4479      	add	r1, pc
   4:	6048      	str	r0, [r1, #4]
   6:	4770      	bx	lr
   8:	00000032 	.word	0x00000032

Disassembly of section .text.stbi_hdr_to_ldr_gamma:

00000000 <stbi_hdr_to_ldr_gamma>:
   0:	ef87 0f10 	vmov.f32	d0, #1	; 0x3f800000
   4:	ec40 0b11 	vmov	d1, r0, r0
   8:	4803      	ldr	r0, [pc, #12]	; (18 <stbi_hdr_to_ldr_gamma+0x18>)
   a:	ee80 0a01 	vdiv.f32	s0, s0, s2
   e:	4478      	add	r0, pc
  10:	ed80 0a02 	vstr	s0, [r0, #8]
  14:	4770      	bx	lr
  16:	bf00      	nop
  18:	00000036 	.word	0x00000036

Disassembly of section .text.stbi_hdr_to_ldr_scale:

00000000 <stbi_hdr_to_ldr_scale>:
   0:	ef87 0f10 	vmov.f32	d0, #1	; 0x3f800000
   4:	ec40 0b11 	vmov	d1, r0, r0
   8:	4803      	ldr	r0, [pc, #12]	; (18 <stbi_hdr_to_ldr_scale+0x18>)
   a:	ee80 0a01 	vdiv.f32	s0, s0, s2
   e:	4478      	add	r0, pc
  10:	ed80 0a03 	vstr	s0, [r0, #12]
  14:	4770      	bx	lr
  16:	bf00      	nop
  18:	00000036 	.word	0x00000036

Disassembly of section .text.stbi_zlib_decode_malloc_guesssize:

00000000 <stbi_zlib_decode_malloc_guesssize>:
   0:	b5f0      	push	{r4, r5, r6, r7, lr}
   2:	af03      	add	r7, sp, #12
   4:	e92d 0700 	stmdb	sp!, {r8, r9, sl}
   8:	f5ad 6d7f 	sub.w	sp, sp, #4080	; 0xff0
   c:	4606      	mov	r6, r0
   e:	481b      	ldr	r0, [pc, #108]	; (7c <stbi_zlib_decode_malloc_guesssize+0x7c>)
  10:	4615      	mov	r5, r2
  12:	4698      	mov	r8, r3
  14:	4478      	add	r0, pc
  16:	460c      	mov	r4, r1
  18:	6800      	ldr	r0, [r0, #0]
  1a:	6800      	ldr	r0, [r0, #0]
  1c:	f847 0c1c 	str.w	r0, [r7, #-28]
  20:	4628      	mov	r0, r5
  22:	f7ff fffe 	bl	0 <malloc>
  26:	4601      	mov	r1, r0
  28:	b1b1      	cbz	r1, 58 <stbi_zlib_decode_malloc_guesssize+0x58>
  2a:	1930      	adds	r0, r6, r4
  2c:	462a      	mov	r2, r5
  2e:	2301      	movs	r3, #1
  30:	e9cd 6001 	strd	r6, r0, [sp, #4]
  34:	2001      	movs	r0, #1
  36:	9000      	str	r0, [sp, #0]
  38:	a801      	add	r0, sp, #4
  3a:	f7ff fffe 	bl	0 <stbi_zlib_decode_malloc_guesssize>
  3e:	b140      	cbz	r0, 52 <stbi_zlib_decode_malloc_guesssize+0x52>
  40:	f1b8 0f00 	cmp.w	r8, #0
  44:	d00a      	beq.n	5c <stbi_zlib_decode_malloc_guesssize+0x5c>
  46:	e9dd 1005 	ldrd	r1, r0, [sp, #20]
  4a:	1a09      	subs	r1, r1, r0
  4c:	f8c8 1000 	str.w	r1, [r8]
  50:	e005      	b.n	5e <stbi_zlib_decode_malloc_guesssize+0x5e>
  52:	9806      	ldr	r0, [sp, #24]
  54:	f7ff fffe 	bl	0 <free>
  58:	2000      	movs	r0, #0
  5a:	e000      	b.n	5e <stbi_zlib_decode_malloc_guesssize+0x5e>
  5c:	9806      	ldr	r0, [sp, #24]
  5e:	4908      	ldr	r1, [pc, #32]	; (80 <stbi_zlib_decode_malloc_guesssize+0x80>)
  60:	f857 2c1c 	ldr.w	r2, [r7, #-28]
  64:	4479      	add	r1, pc
  66:	6809      	ldr	r1, [r1, #0]
  68:	6809      	ldr	r1, [r1, #0]
  6a:	1a89      	subs	r1, r1, r2
  6c:	bf02      	ittt	eq
  6e:	f50d 6d7f 	addeq.w	sp, sp, #4080	; 0xff0
  72:	e8bd 0700 	ldmiaeq.w	sp!, {r8, r9, sl}
  76:	bdf0      	popeq	{r4, r5, r6, r7, pc}
  78:	f7ff fffe 	bl	0 <__stack_chk_fail>
  7c:	00000064 	.word	0x00000064
  80:	00000018 	.word	0x00000018

Disassembly of section .text._ZL13stbi__do_zlibP10stbi__zbufPciii:

00000000 <_ZL13stbi__do_zlibP10stbi__zbufPciii>:
   0:	b5f0      	push	{r4, r5, r6, r7, lr}
   2:	af03      	add	r7, sp, #12
   4:	e92d 0f00 	stmdb	sp!, {r8, r9, sl, fp}
   8:	b081      	sub	sp, #4
   a:	ed2d 8b04 	vpush	{d8-d9}
   e:	f5ad 6d1e 	sub.w	sp, sp, #2528	; 0x9e0
  12:	4604      	mov	r4, r0
  14:	f8df 09a8 	ldr.w	r0, [pc, #2472]	; 9c0 <_ZL13stbi__do_zlibP10stbi__zbufPciii+0x9c0>
  18:	460d      	mov	r5, r1
  1a:	68b9      	ldr	r1, [r7, #8]
  1c:	4478      	add	r0, pc
  1e:	2900      	cmp	r1, #0
  20:	6800      	ldr	r0, [r0, #0]
  22:	6800      	ldr	r0, [r0, #0]
  24:	f847 0c34 	str.w	r0, [r7, #-52]
  28:	eb05 0002 	add.w	r0, r5, r2
  2c:	e9c4 5504 	strd	r5, r5, [r4, #16]
  30:	e9c4 0306 	strd	r0, r3, [r4, #24]
  34:	d02d      	beq.n	92 <_ZL13stbi__do_zlibP10stbi__zbufPciii+0x92>
  36:	e9d4 1200 	ldrd	r1, r2, [r4]
  3a:	4291      	cmp	r1, r2
  3c:	d207      	bcs.n	4e <_ZL13stbi__do_zlibP10stbi__zbufPciii+0x4e>
  3e:	1c4b      	adds	r3, r1, #1
  40:	6023      	str	r3, [r4, #0]
  42:	7808      	ldrb	r0, [r1, #0]
  44:	4619      	mov	r1, r3
  46:	4291      	cmp	r1, r2
  48:	d304      	bcc.n	54 <_ZL13stbi__do_zlibP10stbi__zbufPciii+0x54>
  4a:	2100      	movs	r1, #0
  4c:	e005      	b.n	5a <_ZL13stbi__do_zlibP10stbi__zbufPciii+0x5a>
  4e:	2000      	movs	r0, #0
  50:	4291      	cmp	r1, r2
  52:	d2fa      	bcs.n	4a <_ZL13stbi__do_zlibP10stbi__zbufPciii+0x4a>
  54:	1c4a      	adds	r2, r1, #1
  56:	6022      	str	r2, [r4, #0]
  58:	7809      	ldrb	r1, [r1, #0]
  5a:	f241 0385 	movw	r3, #4229	; 0x1085
  5e:	ea41 2200 	orr.w	r2, r1, r0, lsl #8
  62:	f6c0 0342 	movt	r3, #2114	; 0x842
  66:	fba2 3603 	umull	r3, r6, r2, r3
  6a:	1b93      	subs	r3, r2, r6
  6c:	eb06 0353 	add.w	r3, r6, r3, lsr #1
  70:	091e      	lsrs	r6, r3, #4
  72:	0176      	lsls	r6, r6, #5
  74:	eba6 1313 	sub.w	r3, r6, r3, lsr #4
  78:	1ad2      	subs	r2, r2, r3
  7a:	d002      	beq.n	82 <_ZL13stbi__do_zlibP10stbi__zbufPciii+0x82>
  7c:	f60f 1044 	addw	r0, pc, #2372	; 0x944
  80:	e3da      	b.n	838 <_ZL13stbi__do_zlibP10stbi__zbufPciii+0x838>
  82:	0689      	lsls	r1, r1, #26
  84:	f100 83c5 	bmi.w	812 <_ZL13stbi__do_zlibP10stbi__zbufPciii+0x812>
  88:	f000 000f 	and.w	r0, r0, #15
  8c:	2808      	cmp	r0, #8
  8e:	f040 83d1 	bne.w	834 <_ZL13stbi__do_zlibP10stbi__zbufPciii+0x834>
  92:	f04f 0a00 	mov.w	sl, #0
  96:	f604 0004 	addw	r0, r4, #2052	; 0x804
  9a:	e9c4 aa02 	strd	sl, sl, [r4, #8]
  9e:	f04f 0b01 	mov.w	fp, #1
  a2:	9004      	str	r0, [sp, #16]
  a4:	f104 0020 	add.w	r0, r4, #32
  a8:	9005      	str	r0, [sp, #20]
  aa:	f50d 79fc 	add.w	r9, sp, #504	; 0x1f8
  ae:	ef80 8050 	vmov.i32	q4, #0	; 0x00000000
  b2:	a906      	add	r1, sp, #24
  b4:	2000      	movs	r0, #0
  b6:	2800      	cmp	r0, #0
  b8:	f300 835e 	bgt.w	778 <_ZL13stbi__do_zlibP10stbi__zbufPciii+0x778>
  bc:	e35e      	b.n	77c <_ZL13stbi__do_zlibP10stbi__zbufPciii+0x77c>
  be:	2b06      	cmp	r3, #6
  c0:	dc1c      	bgt.n	fc <_ZL13stbi__do_zlibP10stbi__zbufPciii+0xfc>
  c2:	f1a3 020a 	sub.w	r2, r3, #10
  c6:	f102 0008 	add.w	r0, r2, #8
  ca:	fa0b f300 	lsl.w	r3, fp, r0
  ce:	459c      	cmp	ip, r3
  d0:	f080 843c 	bcs.w	94c <_ZL13stbi__do_zlibP10stbi__zbufPciii+0x94c>
  d4:	e9d4 3600 	ldrd	r3, r6, [r4]
  d8:	42b3      	cmp	r3, r6
  da:	d203      	bcs.n	e4 <_ZL13stbi__do_zlibP10stbi__zbufPciii+0xe4>
  dc:	1c5e      	adds	r6, r3, #1
  de:	6026      	str	r6, [r4, #0]
  e0:	781b      	ldrb	r3, [r3, #0]
  e2:	e000      	b.n	e6 <_ZL13stbi__do_zlibP10stbi__zbufPciii+0xe6>
  e4:	2300      	movs	r3, #0
  e6:	4083      	lsls	r3, r0
  e8:	ea4c 0c03 	orr.w	ip, ip, r3
  ec:	3210      	adds	r2, #16
  ee:	2811      	cmp	r0, #17
  f0:	e9c4 2c02 	strd	r2, ip, [r4, #8]
  f4:	4602      	mov	r2, r0
  f6:	dbe6      	blt.n	c6 <_ZL13stbi__do_zlibP10stbi__zbufPciii+0xc6>
  f8:	f100 0208 	add.w	r2, r0, #8
  fc:	1f53      	subs	r3, r2, #5
  fe:	ea4f 1e5c 	mov.w	lr, ip, lsr #5
 102:	2a09      	cmp	r2, #9
 104:	e9c4 3e02 	strd	r3, lr, [r4, #8]
 108:	dc1c      	bgt.n	144 <_ZL13stbi__do_zlibP10stbi__zbufPciii+0x144>
 10a:	f1a2 030d 	sub.w	r3, r2, #13
 10e:	f103 0208 	add.w	r2, r3, #8
 112:	fa0b f602 	lsl.w	r6, fp, r2
 116:	45b6      	cmp	lr, r6
 118:	f080 8422 	bcs.w	960 <_ZL13stbi__do_zlibP10stbi__zbufPciii+0x960>
 11c:	e9d4 6500 	ldrd	r6, r5, [r4]
 120:	42ae      	cmp	r6, r5
 122:	d203      	bcs.n	12c <_ZL13stbi__do_zlibP10stbi__zbufPciii+0x12c>
 124:	1c75      	adds	r5, r6, #1
 126:	6025      	str	r5, [r4, #0]
 128:	7836      	ldrb	r6, [r6, #0]
 12a:	e000      	b.n	12e <_ZL13stbi__do_zlibP10stbi__zbufPciii+0x12e>
 12c:	2600      	movs	r6, #0
 12e:	4096      	lsls	r6, r2
 130:	ea4e 0e06 	orr.w	lr, lr, r6
 134:	3310      	adds	r3, #16
 136:	2a11      	cmp	r2, #17
 138:	e9c4 3e02 	strd	r3, lr, [r4, #8]
 13c:	4613      	mov	r3, r2
 13e:	dbe6      	blt.n	10e <_ZL13stbi__do_zlibP10stbi__zbufPciii+0x10e>
 140:	f102 0308 	add.w	r3, r2, #8
 144:	1f5e      	subs	r6, r3, #5
 146:	ea4f 185e 	mov.w	r8, lr, lsr #5
 14a:	2b08      	cmp	r3, #8
 14c:	e9c4 6802 	strd	r6, r8, [r4, #8]
 150:	dc1e      	bgt.n	190 <_ZL13stbi__do_zlibP10stbi__zbufPciii+0x190>
 152:	f1a3 060d 	sub.w	r6, r3, #13
 156:	f106 0308 	add.w	r3, r6, #8
 15a:	fa0b f503 	lsl.w	r5, fp, r3
 15e:	45a8      	cmp	r8, r5
 160:	f080 8408 	bcs.w	974 <_ZL13stbi__do_zlibP10stbi__zbufPciii+0x974>
 164:	e9d4 5000 	ldrd	r5, r0, [r4]
 168:	4285      	cmp	r5, r0
 16a:	d203      	bcs.n	174 <_ZL13stbi__do_zlibP10stbi__zbufPciii+0x174>
 16c:	1c68      	adds	r0, r5, #1
 16e:	6020      	str	r0, [r4, #0]
 170:	782d      	ldrb	r5, [r5, #0]
 172:	e000      	b.n	176 <_ZL13stbi__do_zlibP10stbi__zbufPciii+0x176>
 174:	2500      	movs	r5, #0
 176:	f106 0010 	add.w	r0, r6, #16
 17a:	fa05 f603 	lsl.w	r6, r5, r3
 17e:	ea48 0806 	orr.w	r8, r8, r6
 182:	2b11      	cmp	r3, #17
 184:	461e      	mov	r6, r3
 186:	e9c4 0802 	strd	r0, r8, [r4, #8]
 18a:	dbe4      	blt.n	156 <_ZL13stbi__do_zlibP10stbi__zbufPciii+0x156>
 18c:	f103 0608 	add.w	r6, r3, #8
 190:	f00c 001f 	and.w	r0, ip, #31
 194:	ea4f 1518 	mov.w	r5, r8, lsr #4
 198:	f200 1c01 	addw	ip, r0, #257	; 0x101
 19c:	f00e 001f 	and.w	r0, lr, #31
 1a0:	1c43      	adds	r3, r0, #1
 1a2:	4608      	mov	r0, r1
 1a4:	3e04      	subs	r6, #4
 1a6:	e9c4 6502 	strd	r6, r5, [r4, #8]
 1aa:	f900 8acd 	vst1.64	{d8-d9}, [r0]!
 1ae:	2200      	movs	r2, #0
 1b0:	8002      	strh	r2, [r0, #0]
 1b2:	eb03 000c 	add.w	r0, r3, ip
 1b6:	f8df e9a4 	ldr.w	lr, [pc, #2468]	; b5c <_ZL13stbi__do_zlibP10stbi__zbufPciii+0xb5c>
 1ba:	f88d 202a 	strb.w	r2, [sp, #42]	; 0x2a
 1be:	e9cd 3c01 	strd	r3, ip, [sp, #4]
 1c2:	44fe      	add	lr, pc
 1c4:	9003      	str	r0, [sp, #12]
 1c6:	f008 000f 	and.w	r0, r8, #15
 1ca:	f100 0c03 	add.w	ip, r0, #3
 1ce:	f10d 0831 	add.w	r8, sp, #49	; 0x31
 1d2:	2e02      	cmp	r6, #2
 1d4:	dc18      	bgt.n	208 <_ZL13stbi__do_zlibP10stbi__zbufPciii+0x208>
 1d6:	462b      	mov	r3, r5
 1d8:	fa0b f006 	lsl.w	r0, fp, r6
 1dc:	4283      	cmp	r3, r0
 1de:	f080 8365 	bcs.w	8ac <_ZL13stbi__do_zlibP10stbi__zbufPciii+0x8ac>
 1e2:	e9d4 0500 	ldrd	r0, r5, [r4]
 1e6:	42a8      	cmp	r0, r5
 1e8:	d203      	bcs.n	1f2 <_ZL13stbi__do_zlibP10stbi__zbufPciii+0x1f2>
 1ea:	1c45      	adds	r5, r0, #1
 1ec:	6025      	str	r5, [r4, #0]
 1ee:	7805      	ldrb	r5, [r0, #0]
 1f0:	e000      	b.n	1f4 <_ZL13stbi__do_zlibP10stbi__zbufPciii+0x1f4>
 1f2:	2500      	movs	r5, #0
 1f4:	f106 0008 	add.w	r0, r6, #8
 1f8:	40b5      	lsls	r5, r6
 1fa:	432b      	orrs	r3, r5
 1fc:	2e11      	cmp	r6, #17
 1fe:	4606      	mov	r6, r0
 200:	e9c4 0302 	strd	r0, r3, [r4, #8]
 204:	dbe8      	blt.n	1d8 <_ZL13stbi__do_zlibP10stbi__zbufPciii+0x1d8>
 206:	e001      	b.n	20c <_ZL13stbi__do_zlibP10stbi__zbufPciii+0x20c>
 208:	4630      	mov	r0, r6
 20a:	462b      	mov	r3, r5
 20c:	1ec6      	subs	r6, r0, #3
 20e:	f81e 0002 	ldrb.w	r0, [lr, r2]
 212:	08dd      	lsrs	r5, r3, #3
 214:	60a6      	str	r6, [r4, #8]
 216:	f003 0307 	and.w	r3, r3, #7
 21a:	60e5      	str	r5, [r4, #12]
 21c:	4562      	cmp	r2, ip
 21e:	540b      	strb	r3, [r1, r0]
 220:	f102 0001 	add.w	r0, r2, #1
 224:	4602      	mov	r2, r0
 226:	dbd4      	blt.n	1d2 <_ZL13stbi__do_zlibP10stbi__zbufPciii+0x1d2>
 228:	4648      	mov	r0, r9
 22a:	2213      	movs	r2, #19
 22c:	f7ff fffe 	bl	0 <_ZL13stbi__do_zlibP10stbi__zbufPciii>
 230:	2800      	cmp	r0, #0
 232:	f000 8174 	beq.w	51e <_ZL13stbi__do_zlibP10stbi__zbufPciii+0x51e>
 236:	9e03      	ldr	r6, [sp, #12]
 238:	f04f 0900 	mov.w	r9, #0
 23c:	a97e      	add	r1, sp, #504	; 0x1f8
 23e:	4620      	mov	r0, r4
 240:	f7ff fffe 	bl	0 <_ZL13stbi__do_zlibP10stbi__zbufPciii>
 244:	2813      	cmp	r0, #19
 246:	f080 814e 	bcs.w	4e6 <_ZL13stbi__do_zlibP10stbi__zbufPciii+0x4e6>
 24a:	280f      	cmp	r0, #15
 24c:	dc06      	bgt.n	25c <_ZL13stbi__do_zlibP10stbi__zbufPciii+0x25c>
 24e:	f808 0009 	strb.w	r0, [r8, r9]
 252:	f109 0901 	add.w	r9, r9, #1
 256:	454e      	cmp	r6, r9
 258:	dcf0      	bgt.n	23c <_ZL13stbi__do_zlibP10stbi__zbufPciii+0x23c>
 25a:	e08c      	b.n	376 <_ZL13stbi__do_zlibP10stbi__zbufPciii+0x376>
 25c:	2812      	cmp	r0, #18
 25e:	d020      	beq.n	2a2 <_ZL13stbi__do_zlibP10stbi__zbufPciii+0x2a2>
 260:	2811      	cmp	r0, #17
 262:	d03a      	beq.n	2da <_ZL13stbi__do_zlibP10stbi__zbufPciii+0x2da>
 264:	2810      	cmp	r0, #16
 266:	f040 8399 	bne.w	99c <_ZL13stbi__do_zlibP10stbi__zbufPciii+0x99c>
 26a:	e9d4 1002 	ldrd	r1, r0, [r4, #8]
 26e:	2901      	cmp	r1, #1
 270:	dc4f      	bgt.n	312 <_ZL13stbi__do_zlibP10stbi__zbufPciii+0x312>
 272:	fa0b f201 	lsl.w	r2, fp, r1
 276:	4290      	cmp	r0, r2
 278:	f080 834a 	bcs.w	910 <_ZL13stbi__do_zlibP10stbi__zbufPciii+0x910>
 27c:	e9d4 2300 	ldrd	r2, r3, [r4]
 280:	429a      	cmp	r2, r3
 282:	d203      	bcs.n	28c <_ZL13stbi__do_zlibP10stbi__zbufPciii+0x28c>
 284:	1c53      	adds	r3, r2, #1
 286:	6023      	str	r3, [r4, #0]
 288:	7813      	ldrb	r3, [r2, #0]
 28a:	e000      	b.n	28e <_ZL13stbi__do_zlibP10stbi__zbufPciii+0x28e>
 28c:	2300      	movs	r3, #0
 28e:	f101 0208 	add.w	r2, r1, #8
 292:	408b      	lsls	r3, r1
 294:	4318      	orrs	r0, r3
 296:	2911      	cmp	r1, #17
 298:	4611      	mov	r1, r2
 29a:	e9c4 2002 	strd	r2, r0, [r4, #8]
 29e:	dbe8      	blt.n	272 <_ZL13stbi__do_zlibP10stbi__zbufPciii+0x272>
 2a0:	e038      	b.n	314 <_ZL13stbi__do_zlibP10stbi__zbufPciii+0x314>
 2a2:	e9d4 1002 	ldrd	r1, r0, [r4, #8]
 2a6:	2906      	cmp	r1, #6
 2a8:	dc44      	bgt.n	334 <_ZL13stbi__do_zlibP10stbi__zbufPciii+0x334>
 2aa:	fa0b f201 	lsl.w	r2, fp, r1
 2ae:	4290      	cmp	r0, r2
 2b0:	f080 8338 	bcs.w	924 <_ZL13stbi__do_zlibP10stbi__zbufPciii+0x924>
 2b4:	e9d4 2300 	ldrd	r2, r3, [r4]
 2b8:	429a      	cmp	r2, r3
 2ba:	d203      	bcs.n	2c4 <_ZL13stbi__do_zlibP10stbi__zbufPciii+0x2c4>
 2bc:	1c53      	adds	r3, r2, #1
 2be:	6023      	str	r3, [r4, #0]
 2c0:	7813      	ldrb	r3, [r2, #0]
 2c2:	e000      	b.n	2c6 <_ZL13stbi__do_zlibP10stbi__zbufPciii+0x2c6>
 2c4:	2300      	movs	r3, #0
 2c6:	f101 0208 	add.w	r2, r1, #8
 2ca:	408b      	lsls	r3, r1
 2cc:	4318      	orrs	r0, r3
 2ce:	2911      	cmp	r1, #17
 2d0:	4611      	mov	r1, r2
 2d2:	e9c4 2002 	strd	r2, r0, [r4, #8]
 2d6:	dbe8      	blt.n	2aa <_ZL13stbi__do_zlibP10stbi__zbufPciii+0x2aa>
 2d8:	e02d      	b.n	336 <_ZL13stbi__do_zlibP10stbi__zbufPciii+0x336>
 2da:	e9d4 1002 	ldrd	r1, r0, [r4, #8]
 2de:	2902      	cmp	r1, #2
 2e0:	dc32      	bgt.n	348 <_ZL13stbi__do_zlibP10stbi__zbufPciii+0x348>
 2e2:	fa0b f201 	lsl.w	r2, fp, r1
 2e6:	4290      	cmp	r0, r2
 2e8:	f080 8326 	bcs.w	938 <_ZL13stbi__do_zlibP10stbi__zbufPciii+0x938>
 2ec:	e9d4 2300 	ldrd	r2, r3, [r4]
 2f0:	429a      	cmp	r2, r3
 2f2:	d203      	bcs.n	2fc <_ZL13stbi__do_zlibP10stbi__zbufPciii+0x2fc>
 2f4:	1c53      	adds	r3, r2, #1
 2f6:	6023      	str	r3, [r4, #0]
 2f8:	7813      	ldrb	r3, [r2, #0]
 2fa:	e000      	b.n	2fe <_ZL13stbi__do_zlibP10stbi__zbufPciii+0x2fe>
 2fc:	2300      	movs	r3, #0
 2fe:	f101 0208 	add.w	r2, r1, #8
 302:	408b      	lsls	r3, r1
 304:	4318      	orrs	r0, r3
 306:	2911      	cmp	r1, #17
 308:	4611      	mov	r1, r2
 30a:	e9c4 2002 	strd	r2, r0, [r4, #8]
 30e:	dbe8      	blt.n	2e2 <_ZL13stbi__do_zlibP10stbi__zbufPciii+0x2e2>
 310:	e01b      	b.n	34a <_ZL13stbi__do_zlibP10stbi__zbufPciii+0x34a>
 312:	460a      	mov	r2, r1
 314:	1e91      	subs	r1, r2, #2
 316:	0882      	lsrs	r2, r0, #2
 318:	f1b9 0f00 	cmp.w	r9, #0
 31c:	e9c4 1202 	strd	r1, r2, [r4, #8]
 320:	f000 80f6 	beq.w	510 <_ZL13stbi__do_zlibP10stbi__zbufPciii+0x510>
 324:	eb08 0109 	add.w	r1, r8, r9
 328:	f000 0003 	and.w	r0, r0, #3
 32c:	1cc5      	adds	r5, r0, #3
 32e:	f811 2c01 	ldrb.w	r2, [r1, #-1]
 332:	e012      	b.n	35a <_ZL13stbi__do_zlibP10stbi__zbufPciii+0x35a>
 334:	460a      	mov	r2, r1
 336:	1fd1      	subs	r1, r2, #7
 338:	09c2      	lsrs	r2, r0, #7
 33a:	f000 007f 	and.w	r0, r0, #127	; 0x7f
 33e:	e9c4 1202 	strd	r1, r2, [r4, #8]
 342:	f100 050b 	add.w	r5, r0, #11
 346:	e007      	b.n	358 <_ZL13stbi__do_zlibP10stbi__zbufPciii+0x358>
 348:	460a      	mov	r2, r1
 34a:	1ed1      	subs	r1, r2, #3
 34c:	08c2      	lsrs	r2, r0, #3
 34e:	f000 0007 	and.w	r0, r0, #7
 352:	e9c4 1202 	strd	r1, r2, [r4, #8]
 356:	1cc5      	adds	r5, r0, #3
 358:	2200      	movs	r2, #0
 35a:	eba6 0009 	sub.w	r0, r6, r9
 35e:	42a8      	cmp	r0, r5
 360:	f2c0 80c8 	blt.w	4f4 <_ZL13stbi__do_zlibP10stbi__zbufPciii+0x4f4>
 364:	eb08 0009 	add.w	r0, r8, r9
 368:	4629      	mov	r1, r5
 36a:	f7ff fffe 	bl	0 <__aeabi_memset>
 36e:	44a9      	add	r9, r5
 370:	454e      	cmp	r6, r9
 372:	f73f af63 	bgt.w	23c <_ZL13stbi__do_zlibP10stbi__zbufPciii+0x23c>
 376:	f040 80c4 	bne.w	502 <_ZL13stbi__do_zlibP10stbi__zbufPciii+0x502>
 37a:	9d02      	ldr	r5, [sp, #8]
 37c:	4641      	mov	r1, r8
 37e:	9805      	ldr	r0, [sp, #20]
 380:	462a      	mov	r2, r5
 382:	f7ff fffe 	bl	0 <_ZL13stbi__do_zlibP10stbi__zbufPciii>
 386:	2800      	cmp	r0, #0
 388:	f000 80c9 	beq.w	51e <_ZL13stbi__do_zlibP10stbi__zbufPciii+0x51e>
 38c:	9804      	ldr	r0, [sp, #16]
 38e:	eb08 0105 	add.w	r1, r8, r5
 392:	9a01      	ldr	r2, [sp, #4]
 394:	f7ff fffe 	bl	0 <_ZL13stbi__do_zlibP10stbi__zbufPciii>
 398:	2800      	cmp	r0, #0
 39a:	bf18      	it	ne
 39c:	2001      	movne	r0, #1
 39e:	2800      	cmp	r0, #0
 3a0:	f040 80c1 	bne.w	526 <_ZL13stbi__do_zlibP10stbi__zbufPciii+0x526>
 3a4:	e26e      	b.n	884 <_ZL13stbi__do_zlibP10stbi__zbufPciii+0x884>
 3a6:	f012 0107 	ands.w	r1, r2, #7
 3aa:	d039      	beq.n	420 <_ZL13stbi__do_zlibP10stbi__zbufPciii+0x420>
 3ac:	428a      	cmp	r2, r1
 3ae:	da1a      	bge.n	3e6 <_ZL13stbi__do_zlibP10stbi__zbufPciii+0x3e6>
 3b0:	3b0a      	subs	r3, #10
 3b2:	f103 0208 	add.w	r2, r3, #8
 3b6:	fa0b f602 	lsl.w	r6, fp, r2
 3ba:	45b4      	cmp	ip, r6
 3bc:	f080 82e4 	bcs.w	988 <_ZL13stbi__do_zlibP10stbi__zbufPciii+0x988>
 3c0:	e9d4 6500 	ldrd	r6, r5, [r4]
 3c4:	42ae      	cmp	r6, r5
 3c6:	d203      	bcs.n	3d0 <_ZL13stbi__do_zlibP10stbi__zbufPciii+0x3d0>
 3c8:	1c75      	adds	r5, r6, #1
 3ca:	6025      	str	r5, [r4, #0]
 3cc:	7836      	ldrb	r6, [r6, #0]
 3ce:	e000      	b.n	3d2 <_ZL13stbi__do_zlibP10stbi__zbufPciii+0x3d2>
 3d0:	2600      	movs	r6, #0
 3d2:	4096      	lsls	r6, r2
 3d4:	ea4c 0c06 	orr.w	ip, ip, r6
 3d8:	3310      	adds	r3, #16
 3da:	2a11      	cmp	r2, #17
 3dc:	e9c4 3c02 	strd	r3, ip, [r4, #8]
 3e0:	4613      	mov	r3, r2
 3e2:	dbe6      	blt.n	3b2 <_ZL13stbi__do_zlibP10stbi__zbufPciii+0x3b2>
 3e4:	3208      	adds	r2, #8
 3e6:	1a52      	subs	r2, r2, r1
 3e8:	fa2c fc01 	lsr.w	ip, ip, r1
 3ec:	2100      	movs	r1, #0
 3ee:	f8c4 c00c 	str.w	ip, [r4, #12]
 3f2:	e1b4      	b.n	75e <_ZL13stbi__do_zlibP10stbi__zbufPciii+0x75e>
 3f4:	f8df 174c 	ldr.w	r1, [pc, #1868]	; b44 <_ZL13stbi__do_zlibP10stbi__zbufPciii+0xb44>
 3f8:	f44f 7290 	mov.w	r2, #288	; 0x120
 3fc:	9805      	ldr	r0, [sp, #20]
 3fe:	4479      	add	r1, pc
 400:	f7ff fffe 	bl	0 <_ZL13stbi__do_zlibP10stbi__zbufPciii>
 404:	2800      	cmp	r0, #0
 406:	f000 823d 	beq.w	884 <_ZL13stbi__do_zlibP10stbi__zbufPciii+0x884>
 40a:	f8df 173c 	ldr.w	r1, [pc, #1852]	; b48 <_ZL13stbi__do_zlibP10stbi__zbufPciii+0xb48>
 40e:	2220      	movs	r2, #32
 410:	9804      	ldr	r0, [sp, #16]
 412:	4479      	add	r1, pc
 414:	f7ff fffe 	bl	0 <_ZL13stbi__do_zlibP10stbi__zbufPciii>
 418:	2800      	cmp	r0, #0
 41a:	f040 8084 	bne.w	526 <_ZL13stbi__do_zlibP10stbi__zbufPciii+0x526>
 41e:	e231      	b.n	884 <_ZL13stbi__do_zlibP10stbi__zbufPciii+0x884>
 420:	2100      	movs	r1, #0
 422:	2a01      	cmp	r2, #1
 424:	f280 819f 	bge.w	766 <_ZL13stbi__do_zlibP10stbi__zbufPciii+0x766>
 428:	2a00      	cmp	r2, #0
 42a:	f040 82c0 	bne.w	9ae <_ZL13stbi__do_zlibP10stbi__zbufPciii+0x9ae>
 42e:	2903      	cmp	r1, #3
 430:	dc0e      	bgt.n	450 <_ZL13stbi__do_zlibP10stbi__zbufPciii+0x450>
 432:	e9d4 0200 	ldrd	r0, r2, [r4]
 436:	4290      	cmp	r0, r2
 438:	d203      	bcs.n	442 <_ZL13stbi__do_zlibP10stbi__zbufPciii+0x442>
 43a:	1c42      	adds	r2, r0, #1
 43c:	6022      	str	r2, [r4, #0]
 43e:	7800      	ldrb	r0, [r0, #0]
 440:	e000      	b.n	444 <_ZL13stbi__do_zlibP10stbi__zbufPciii+0x444>
 442:	2000      	movs	r0, #0
 444:	f809 0001 	strb.w	r0, [r9, r1]
 448:	1c48      	adds	r0, r1, #1
 44a:	2903      	cmp	r1, #3
 44c:	4601      	mov	r1, r0
 44e:	dbf0      	blt.n	432 <_ZL13stbi__do_zlibP10stbi__zbufPciii+0x432>
 450:	f89d 11f9 	ldrb.w	r1, [sp, #505]	; 0x1f9
 454:	f89d 01f8 	ldrb.w	r0, [sp, #504]	; 0x1f8
 458:	f89d 31fb 	ldrb.w	r3, [sp, #507]	; 0x1fb
 45c:	f89d 21fa 	ldrb.w	r2, [sp, #506]	; 0x1fa
 460:	ea40 2501 	orr.w	r5, r0, r1, lsl #8
 464:	f64f 70ff 	movw	r0, #65535	; 0xffff
 468:	4068      	eors	r0, r5
 46a:	ea42 2103 	orr.w	r1, r2, r3, lsl #8
 46e:	4281      	cmp	r1, r0
 470:	f040 81fc 	bne.w	86c <_ZL13stbi__do_zlibP10stbi__zbufPciii+0x86c>
 474:	e9d4 1000 	ldrd	r1, r0, [r4]
 478:	194a      	adds	r2, r1, r5
 47a:	4282      	cmp	r2, r0
 47c:	f200 81f8 	bhi.w	870 <_ZL13stbi__do_zlibP10stbi__zbufPciii+0x870>
 480:	69a2      	ldr	r2, [r4, #24]
 482:	eb0e 0005 	add.w	r0, lr, r5
 486:	4290      	cmp	r0, r2
 488:	d91c      	bls.n	4c4 <_ZL13stbi__do_zlibP10stbi__zbufPciii+0x4c4>
 48a:	69e0      	ldr	r0, [r4, #28]
 48c:	2800      	cmp	r0, #0
 48e:	f000 81f1 	beq.w	874 <_ZL13stbi__do_zlibP10stbi__zbufPciii+0x874>
 492:	6960      	ldr	r0, [r4, #20]
 494:	ebae 0800 	sub.w	r8, lr, r0
 498:	1a11      	subs	r1, r2, r0
 49a:	eb08 0205 	add.w	r2, r8, r5
 49e:	460e      	mov	r6, r1
 4a0:	42b2      	cmp	r2, r6
 4a2:	ea4f 0146 	mov.w	r1, r6, lsl #1
 4a6:	dcfa      	bgt.n	49e <_ZL13stbi__do_zlibP10stbi__zbufPciii+0x49e>
 4a8:	4631      	mov	r1, r6
 4aa:	f7ff fffe 	bl	0 <realloc>
 4ae:	2800      	cmp	r0, #0
 4b0:	f000 81e3 	beq.w	87a <_ZL13stbi__do_zlibP10stbi__zbufPciii+0x87a>
 4b4:	6821      	ldr	r1, [r4, #0]
 4b6:	eb00 0308 	add.w	r3, r0, r8
 4ba:	1982      	adds	r2, r0, r6
 4bc:	e9c4 3004 	strd	r3, r0, [r4, #16]
 4c0:	61a2      	str	r2, [r4, #24]
 4c2:	e000      	b.n	4c6 <_ZL13stbi__do_zlibP10stbi__zbufPciii+0x4c6>
 4c4:	4673      	mov	r3, lr
 4c6:	4618      	mov	r0, r3
 4c8:	462a      	mov	r2, r5
 4ca:	f7ff fffe 	bl	0 <__aeabi_memcpy>
 4ce:	6820      	ldr	r0, [r4, #0]
 4d0:	6921      	ldr	r1, [r4, #16]
 4d2:	4428      	add	r0, r5
 4d4:	6020      	str	r0, [r4, #0]
 4d6:	440d      	add	r5, r1
 4d8:	6125      	str	r5, [r4, #16]
 4da:	a906      	add	r1, sp, #24
 4dc:	f01a 0001 	ands.w	r0, sl, #1
 4e0:	f000 8138 	beq.w	754 <_ZL13stbi__do_zlibP10stbi__zbufPciii+0x754>
 4e4:	e1c0      	b.n	868 <_ZL13stbi__do_zlibP10stbi__zbufPciii+0x868>
 4e6:	f8df 0678 	ldr.w	r0, [pc, #1656]	; b60 <_ZL13stbi__do_zlibP10stbi__zbufPciii+0xb60>
 4ea:	f8df 1678 	ldr.w	r1, [pc, #1656]	; b64 <_ZL13stbi__do_zlibP10stbi__zbufPciii+0xb64>
 4ee:	4478      	add	r0, pc
 4f0:	4479      	add	r1, pc
 4f2:	e013      	b.n	51c <_ZL13stbi__do_zlibP10stbi__zbufPciii+0x51c>
 4f4:	f8df 0678 	ldr.w	r0, [pc, #1656]	; b70 <_ZL13stbi__do_zlibP10stbi__zbufPciii+0xb70>
 4f8:	f8df 1678 	ldr.w	r1, [pc, #1656]	; b74 <_ZL13stbi__do_zlibP10stbi__zbufPciii+0xb74>
 4fc:	4478      	add	r0, pc
 4fe:	4479      	add	r1, pc
 500:	e00c      	b.n	51c <_ZL13stbi__do_zlibP10stbi__zbufPciii+0x51c>
 502:	f8df 0664 	ldr.w	r0, [pc, #1636]	; b68 <_ZL13stbi__do_zlibP10stbi__zbufPciii+0xb68>
 506:	f8df 1664 	ldr.w	r1, [pc, #1636]	; b6c <_ZL13stbi__do_zlibP10stbi__zbufPciii+0xb6c>
 50a:	4478      	add	r0, pc
 50c:	4479      	add	r1, pc
 50e:	e005      	b.n	51c <_ZL13stbi__do_zlibP10stbi__zbufPciii+0x51c>
 510:	f8df 0664 	ldr.w	r0, [pc, #1636]	; b78 <_ZL13stbi__do_zlibP10stbi__zbufPciii+0xb78>
 514:	f8df 1664 	ldr.w	r1, [pc, #1636]	; b7c <_ZL13stbi__do_zlibP10stbi__zbufPciii+0xb7c>
 518:	4478      	add	r0, pc
 51a:	4479      	add	r1, pc
 51c:	6001      	str	r1, [r0, #0]
 51e:	2000      	movs	r0, #0
 520:	2800      	cmp	r0, #0
 522:	f000 81af 	beq.w	884 <_ZL13stbi__do_zlibP10stbi__zbufPciii+0x884>
 526:	6925      	ldr	r5, [r4, #16]
 528:	e003      	b.n	532 <_ZL13stbi__do_zlibP10stbi__zbufPciii+0x532>
 52a:	f805 8b01 	strb.w	r8, [r5], #1
 52e:	e000      	b.n	532 <_ZL13stbi__do_zlibP10stbi__zbufPciii+0x532>
 530:	444d      	add	r5, r9
 532:	9905      	ldr	r1, [sp, #20]
 534:	4620      	mov	r0, r4
 536:	f7ff fffe 	bl	0 <_ZL13stbi__do_zlibP10stbi__zbufPciii>
 53a:	4680      	mov	r8, r0
 53c:	f1b8 0fff 	cmp.w	r8, #255	; 0xff
 540:	dc20      	bgt.n	584 <_ZL13stbi__do_zlibP10stbi__zbufPciii+0x584>
 542:	f1b8 3fff 	cmp.w	r8, #4294967295	; 0xffffffff
 546:	f340 8166 	ble.w	816 <_ZL13stbi__do_zlibP10stbi__zbufPciii+0x816>
 54a:	69a1      	ldr	r1, [r4, #24]
 54c:	428d      	cmp	r5, r1
 54e:	d3ec      	bcc.n	52a <_ZL13stbi__do_zlibP10stbi__zbufPciii+0x52a>
 550:	69e0      	ldr	r0, [r4, #28]
 552:	6125      	str	r5, [r4, #16]
 554:	2800      	cmp	r0, #0
 556:	f000 8173 	beq.w	840 <_ZL13stbi__do_zlibP10stbi__zbufPciii+0x840>
 55a:	6960      	ldr	r0, [r4, #20]
 55c:	1a09      	subs	r1, r1, r0
 55e:	1a2e      	subs	r6, r5, r0
 560:	460d      	mov	r5, r1
 562:	42ae      	cmp	r6, r5
 564:	ea4f 0145 	mov.w	r1, r5, lsl #1
 568:	dafa      	bge.n	560 <_ZL13stbi__do_zlibP10stbi__zbufPciii+0x560>
 56a:	4629      	mov	r1, r5
 56c:	f7ff fffe 	bl	0 <realloc>
 570:	2800      	cmp	r0, #0
 572:	f000 816a 	beq.w	84a <_ZL13stbi__do_zlibP10stbi__zbufPciii+0x84a>
 576:	1982      	adds	r2, r0, r6
 578:	1941      	adds	r1, r0, r5
 57a:	4615      	mov	r5, r2
 57c:	e9c4 5004 	strd	r5, r0, [r4, #16]
 580:	61a1      	str	r1, [r4, #24]
 582:	e7d2      	b.n	52a <_ZL13stbi__do_zlibP10stbi__zbufPciii+0x52a>
 584:	a906      	add	r1, sp, #24
 586:	f5b8 7f80 	cmp.w	r8, #256	; 0x100
 58a:	f000 80dc 	beq.w	746 <_ZL13stbi__do_zlibP10stbi__zbufPciii+0x746>
 58e:	f8df 05bc 	ldr.w	r0, [pc, #1468]	; b4c <_ZL13stbi__do_zlibP10stbi__zbufPciii+0xb4c>
 592:	f2a8 1101 	subw	r1, r8, #257	; 0x101
 596:	4478      	add	r0, pc
 598:	f850 9021 	ldr.w	r9, [r0, r1, lsl #2]
 59c:	f2a8 1009 	subw	r0, r8, #265	; 0x109
 5a0:	2813      	cmp	r0, #19
 5a2:	d82b      	bhi.n	5fc <_ZL13stbi__do_zlibP10stbi__zbufPciii+0x5fc>
 5a4:	f8df 35a8 	ldr.w	r3, [pc, #1448]	; b50 <_ZL13stbi__do_zlibP10stbi__zbufPciii+0xb50>
 5a8:	e9d4 2002 	ldrd	r2, r0, [r4, #8]
 5ac:	447b      	add	r3, pc
 5ae:	f853 1021 	ldr.w	r1, [r3, r1, lsl #2]
 5b2:	428a      	cmp	r2, r1
 5b4:	da17      	bge.n	5e6 <_ZL13stbi__do_zlibP10stbi__zbufPciii+0x5e6>
 5b6:	fa0b f302 	lsl.w	r3, fp, r2
 5ba:	4298      	cmp	r0, r3
 5bc:	f080 8180 	bcs.w	8c0 <_ZL13stbi__do_zlibP10stbi__zbufPciii+0x8c0>
 5c0:	e9d4 3600 	ldrd	r3, r6, [r4]
 5c4:	42b3      	cmp	r3, r6
 5c6:	d203      	bcs.n	5d0 <_ZL13stbi__do_zlibP10stbi__zbufPciii+0x5d0>
 5c8:	1c5e      	adds	r6, r3, #1
 5ca:	6026      	str	r6, [r4, #0]
 5cc:	781e      	ldrb	r6, [r3, #0]
 5ce:	e000      	b.n	5d2 <_ZL13stbi__do_zlibP10stbi__zbufPciii+0x5d2>
 5d0:	2600      	movs	r6, #0
 5d2:	f102 0308 	add.w	r3, r2, #8
 5d6:	4096      	lsls	r6, r2
 5d8:	4330      	orrs	r0, r6
 5da:	2a11      	cmp	r2, #17
 5dc:	461a      	mov	r2, r3
 5de:	e9c4 3002 	strd	r3, r0, [r4, #8]
 5e2:	dbe8      	blt.n	5b6 <_ZL13stbi__do_zlibP10stbi__zbufPciii+0x5b6>
 5e4:	e000      	b.n	5e8 <_ZL13stbi__do_zlibP10stbi__zbufPciii+0x5e8>
 5e6:	4613      	mov	r3, r2
 5e8:	1a5a      	subs	r2, r3, r1
 5ea:	fa20 f301 	lsr.w	r3, r0, r1
 5ee:	fa0b f101 	lsl.w	r1, fp, r1
 5f2:	e9c4 2302 	strd	r2, r3, [r4, #8]
 5f6:	3901      	subs	r1, #1
 5f8:	4008      	ands	r0, r1
 5fa:	4481      	add	r9, r0
 5fc:	9904      	ldr	r1, [sp, #16]
 5fe:	4620      	mov	r0, r4
 600:	f7ff fffe 	bl	0 <_ZL13stbi__do_zlibP10stbi__zbufPciii>
 604:	f1b0 3fff 	cmp.w	r0, #4294967295	; 0xffffffff
 608:	f340 810a 	ble.w	820 <_ZL13stbi__do_zlibP10stbi__zbufPciii+0x820>
 60c:	f8df 1544 	ldr.w	r1, [pc, #1348]	; b54 <_ZL13stbi__do_zlibP10stbi__zbufPciii+0xb54>
 610:	4479      	add	r1, pc
 612:	f851 8020 	ldr.w	r8, [r1, r0, lsl #2]
 616:	1f01      	subs	r1, r0, #4
 618:	2919      	cmp	r1, #25
 61a:	d82b      	bhi.n	674 <_ZL13stbi__do_zlibP10stbi__zbufPciii+0x674>
 61c:	f8df 3538 	ldr.w	r3, [pc, #1336]	; b58 <_ZL13stbi__do_zlibP10stbi__zbufPciii+0xb58>
 620:	e9d4 2102 	ldrd	r2, r1, [r4, #8]
 624:	447b      	add	r3, pc
 626:	f853 0020 	ldr.w	r0, [r3, r0, lsl #2]
 62a:	4282      	cmp	r2, r0
 62c:	da17      	bge.n	65e <_ZL13stbi__do_zlibP10stbi__zbufPciii+0x65e>
 62e:	fa0b f302 	lsl.w	r3, fp, r2
 632:	4299      	cmp	r1, r3
 634:	f080 814e 	bcs.w	8d4 <_ZL13stbi__do_zlibP10stbi__zbufPciii+0x8d4>
 638:	e9d4 3600 	ldrd	r3, r6, [r4]
 63c:	42b3      	cmp	r3, r6
 63e:	d203      	bcs.n	648 <_ZL13stbi__do_zlibP10stbi__zbufPciii+0x648>
 640:	1c5e      	adds	r6, r3, #1
 642:	6026      	str	r6, [r4, #0]
 644:	781e      	ldrb	r6, [r3, #0]
 646:	e000      	b.n	64a <_ZL13stbi__do_zlibP10stbi__zbufPciii+0x64a>
 648:	2600      	movs	r6, #0
 64a:	f102 0308 	add.w	r3, r2, #8
 64e:	4096      	lsls	r6, r2
 650:	4331      	orrs	r1, r6
 652:	2a11      	cmp	r2, #17
 654:	461a      	mov	r2, r3
 656:	e9c4 3102 	strd	r3, r1, [r4, #8]
 65a:	dbe8      	blt.n	62e <_ZL13stbi__do_zlibP10stbi__zbufPciii+0x62e>
 65c:	e000      	b.n	660 <_ZL13stbi__do_zlibP10stbi__zbufPciii+0x660>
 65e:	4613      	mov	r3, r2
 660:	1a1a      	subs	r2, r3, r0
 662:	fa21 f300 	lsr.w	r3, r1, r0
 666:	fa0b f000 	lsl.w	r0, fp, r0
 66a:	e9c4 2302 	strd	r2, r3, [r4, #8]
 66e:	3801      	subs	r0, #1
 670:	4008      	ands	r0, r1
 672:	4480      	add	r8, r0
 674:	6960      	ldr	r0, [r4, #20]
 676:	462b      	mov	r3, r5
 678:	1a1d      	subs	r5, r3, r0
 67a:	4545      	cmp	r5, r8
 67c:	f2c0 80d5 	blt.w	82a <_ZL13stbi__do_zlibP10stbi__zbufPciii+0x82a>
 680:	69a1      	ldr	r1, [r4, #24]
 682:	eb03 0209 	add.w	r2, r3, r9
 686:	428a      	cmp	r2, r1
 688:	d918      	bls.n	6bc <_ZL13stbi__do_zlibP10stbi__zbufPciii+0x6bc>
 68a:	69e2      	ldr	r2, [r4, #28]
 68c:	6123      	str	r3, [r4, #16]
 68e:	2a00      	cmp	r2, #0
 690:	f000 80e0 	beq.w	854 <_ZL13stbi__do_zlibP10stbi__zbufPciii+0x854>
 694:	eb05 0209 	add.w	r2, r5, r9
 698:	1a09      	subs	r1, r1, r0
 69a:	460e      	mov	r6, r1
 69c:	42b2      	cmp	r2, r6
 69e:	ea4f 0146 	mov.w	r1, r6, lsl #1
 6a2:	dcfa      	bgt.n	69a <_ZL13stbi__do_zlibP10stbi__zbufPciii+0x69a>
 6a4:	4631      	mov	r1, r6
 6a6:	f7ff fffe 	bl	0 <realloc>
 6aa:	2800      	cmp	r0, #0
 6ac:	f000 80d7 	beq.w	85e <_ZL13stbi__do_zlibP10stbi__zbufPciii+0x85e>
 6b0:	4405      	add	r5, r0
 6b2:	1981      	adds	r1, r0, r6
 6b4:	e9c4 5004 	strd	r5, r0, [r4, #16]
 6b8:	61a1      	str	r1, [r4, #24]
 6ba:	e000      	b.n	6be <_ZL13stbi__do_zlibP10stbi__zbufPciii+0x6be>
 6bc:	461d      	mov	r5, r3
 6be:	eba5 0008 	sub.w	r0, r5, r8
 6c2:	f1b8 0f01 	cmp.w	r8, #1
 6c6:	d109      	bne.n	6dc <_ZL13stbi__do_zlibP10stbi__zbufPciii+0x6dc>
 6c8:	f1b9 0f00 	cmp.w	r9, #0
 6cc:	f43f af31 	beq.w	532 <_ZL13stbi__do_zlibP10stbi__zbufPciii+0x532>
 6d0:	7802      	ldrb	r2, [r0, #0]
 6d2:	4628      	mov	r0, r5
 6d4:	4649      	mov	r1, r9
 6d6:	f7ff fffe 	bl	0 <__aeabi_memset>
 6da:	e729      	b.n	530 <_ZL13stbi__do_zlibP10stbi__zbufPciii+0x530>
 6dc:	f1b9 0f00 	cmp.w	r9, #0
 6e0:	f43f af27 	beq.w	532 <_ZL13stbi__do_zlibP10stbi__zbufPciii+0x532>
 6e4:	f1b9 0f10 	cmp.w	r9, #16
 6e8:	d324      	bcc.n	734 <_ZL13stbi__do_zlibP10stbi__zbufPciii+0x734>
 6ea:	f029 0c0f 	bic.w	ip, r9, #15
 6ee:	f1bc 0f00 	cmp.w	ip, #0
 6f2:	d01f      	beq.n	734 <_ZL13stbi__do_zlibP10stbi__zbufPciii+0x734>
 6f4:	eba9 0108 	sub.w	r1, r9, r8
 6f8:	4429      	add	r1, r5
 6fa:	428d      	cmp	r5, r1
 6fc:	d205      	bcs.n	70a <_ZL13stbi__do_zlibP10stbi__zbufPciii+0x70a>
 6fe:	eb05 0109 	add.w	r1, r5, r9
 702:	464a      	mov	r2, r9
 704:	4288      	cmp	r0, r1
 706:	4629      	mov	r1, r5
 708:	d316      	bcc.n	738 <_ZL13stbi__do_zlibP10stbi__zbufPciii+0x738>
 70a:	f1c8 0e00 	rsb	lr, r8, #0
 70e:	eba9 020c 	sub.w	r2, r9, ip
 712:	4460      	add	r0, ip
 714:	eb05 010c 	add.w	r1, r5, ip
 718:	4663      	mov	r3, ip
 71a:	46a8      	mov	r8, r5
 71c:	eb05 060e 	add.w	r6, r5, lr
 720:	3b10      	subs	r3, #16
 722:	f966 0a0f 	vld1.8	{d16-d17}, [r6]
 726:	f945 0a0d 	vst1.8	{d16-d17}, [r5]!
 72a:	d1f7      	bne.n	71c <_ZL13stbi__do_zlibP10stbi__zbufPciii+0x71c>
 72c:	45e1      	cmp	r9, ip
 72e:	4645      	mov	r5, r8
 730:	d102      	bne.n	738 <_ZL13stbi__do_zlibP10stbi__zbufPciii+0x738>
 732:	e6fd      	b.n	530 <_ZL13stbi__do_zlibP10stbi__zbufPciii+0x530>
 734:	4629      	mov	r1, r5
 736:	464a      	mov	r2, r9
 738:	f810 3b01 	ldrb.w	r3, [r0], #1
 73c:	3a01      	subs	r2, #1
 73e:	f801 3b01 	strb.w	r3, [r1], #1
 742:	d1f9      	bne.n	738 <_ZL13stbi__do_zlibP10stbi__zbufPciii+0x738>
 744:	e6f4      	b.n	530 <_ZL13stbi__do_zlibP10stbi__zbufPciii+0x530>
 746:	f50d 79fc 	add.w	r9, sp, #504	; 0x1f8
 74a:	6125      	str	r5, [r4, #16]
 74c:	f01a 0001 	ands.w	r0, sl, #1
 750:	f040 808a 	bne.w	868 <_ZL13stbi__do_zlibP10stbi__zbufPciii+0x868>
 754:	e9d4 0a02 	ldrd	r0, sl, [r4, #8]
 758:	2800      	cmp	r0, #0
 75a:	dc0d      	bgt.n	778 <_ZL13stbi__do_zlibP10stbi__zbufPciii+0x778>
 75c:	e00e      	b.n	77c <_ZL13stbi__do_zlibP10stbi__zbufPciii+0x77c>
 75e:	60a2      	str	r2, [r4, #8]
 760:	2a01      	cmp	r2, #1
 762:	f6ff ae61 	blt.w	428 <_ZL13stbi__do_zlibP10stbi__zbufPciii+0x428>
 766:	f809 c001 	strb.w	ip, [r9, r1]
 76a:	ea4f 2c1c 	mov.w	ip, ip, lsr #8
 76e:	3a08      	subs	r2, #8
 770:	f8c4 c00c 	str.w	ip, [r4, #12]
 774:	3101      	adds	r1, #1
 776:	e7f2      	b.n	75e <_ZL13stbi__do_zlibP10stbi__zbufPciii+0x75e>
 778:	4602      	mov	r2, r0
 77a:	e017      	b.n	7ac <_ZL13stbi__do_zlibP10stbi__zbufPciii+0x7ac>
 77c:	fa0b f200 	lsl.w	r2, fp, r0
 780:	4592      	cmp	sl, r2
 782:	f080 80bb 	bcs.w	8fc <_ZL13stbi__do_zlibP10stbi__zbufPciii+0x8fc>
 786:	e9d4 3200 	ldrd	r3, r2, [r4]
 78a:	4293      	cmp	r3, r2
 78c:	d203      	bcs.n	796 <_ZL13stbi__do_zlibP10stbi__zbufPciii+0x796>
 78e:	1c5a      	adds	r2, r3, #1
 790:	6022      	str	r2, [r4, #0]
 792:	781b      	ldrb	r3, [r3, #0]
 794:	e000      	b.n	798 <_ZL13stbi__do_zlibP10stbi__zbufPciii+0x798>
 796:	2300      	movs	r3, #0
 798:	f100 0208 	add.w	r2, r0, #8
 79c:	4083      	lsls	r3, r0
 79e:	ea4a 0a03 	orr.w	sl, sl, r3
 7a2:	2811      	cmp	r0, #17
 7a4:	4610      	mov	r0, r2
 7a6:	e9c4 2a02 	strd	r2, sl, [r4, #8]
 7aa:	dbe7      	blt.n	77c <_ZL13stbi__do_zlibP10stbi__zbufPciii+0x77c>
 7ac:	1e53      	subs	r3, r2, #1
 7ae:	46ae      	mov	lr, r5
 7b0:	ea4f 055a 	mov.w	r5, sl, lsr #1
 7b4:	2a02      	cmp	r2, #2
 7b6:	e9c4 3502 	strd	r3, r5, [r4, #8]
 7ba:	dc1a      	bgt.n	7f2 <_ZL13stbi__do_zlibP10stbi__zbufPciii+0x7f2>
 7bc:	3a09      	subs	r2, #9
 7be:	f102 0008 	add.w	r0, r2, #8
 7c2:	fa0b f300 	lsl.w	r3, fp, r0
 7c6:	429d      	cmp	r5, r3
 7c8:	f080 808e 	bcs.w	8e8 <_ZL13stbi__do_zlibP10stbi__zbufPciii+0x8e8>
 7cc:	e9d4 3600 	ldrd	r3, r6, [r4]
 7d0:	42b3      	cmp	r3, r6
 7d2:	d203      	bcs.n	7dc <_ZL13stbi__do_zlibP10stbi__zbufPciii+0x7dc>
 7d4:	1c5e      	adds	r6, r3, #1
 7d6:	6026      	str	r6, [r4, #0]
 7d8:	781b      	ldrb	r3, [r3, #0]
 7da:	e000      	b.n	7de <_ZL13stbi__do_zlibP10stbi__zbufPciii+0x7de>
 7dc:	2300      	movs	r3, #0
 7de:	4083      	lsls	r3, r0
 7e0:	431d      	orrs	r5, r3
 7e2:	3210      	adds	r2, #16
 7e4:	2811      	cmp	r0, #17
 7e6:	e9c4 2502 	strd	r2, r5, [r4, #8]
 7ea:	4602      	mov	r2, r0
 7ec:	dbe7      	blt.n	7be <_ZL13stbi__do_zlibP10stbi__zbufPciii+0x7be>
 7ee:	f100 0308 	add.w	r3, r0, #8
 7f2:	1e9a      	subs	r2, r3, #2
 7f4:	f015 0003 	ands.w	r0, r5, #3
 7f8:	ea4f 0c95 	mov.w	ip, r5, lsr #2
 7fc:	e9c4 2c02 	strd	r2, ip, [r4, #8]
 800:	f43f add1 	beq.w	3a6 <_ZL13stbi__do_zlibP10stbi__zbufPciii+0x3a6>
 804:	2801      	cmp	r0, #1
 806:	f43f adf5 	beq.w	3f4 <_ZL13stbi__do_zlibP10stbi__zbufPciii+0x3f4>
 80a:	2803      	cmp	r0, #3
 80c:	f47f ac57 	bne.w	be <_ZL13stbi__do_zlibP10stbi__zbufPciii+0xbe>
 810:	e038      	b.n	884 <_ZL13stbi__do_zlibP10stbi__zbufPciii+0x884>
 812:	a070      	add	r0, pc, #448	; (adr r0, 9d4 <_ZL13stbi__do_zlibP10stbi__zbufPciii+0x9d4>)
 814:	e010      	b.n	838 <_ZL13stbi__do_zlibP10stbi__zbufPciii+0x838>
 816:	48c6      	ldr	r0, [pc, #792]	; (b30 <_ZL13stbi__do_zlibP10stbi__zbufPciii+0xb30>)
 818:	49c6      	ldr	r1, [pc, #792]	; (b34 <_ZL13stbi__do_zlibP10stbi__zbufPciii+0xb34>)
 81a:	4478      	add	r0, pc
 81c:	4479      	add	r1, pc
 81e:	e030      	b.n	882 <_ZL13stbi__do_zlibP10stbi__zbufPciii+0x882>
 820:	48bd      	ldr	r0, [pc, #756]	; (b18 <_ZL13stbi__do_zlibP10stbi__zbufPciii+0xb18>)
 822:	49be      	ldr	r1, [pc, #760]	; (b1c <_ZL13stbi__do_zlibP10stbi__zbufPciii+0xb1c>)
 824:	4478      	add	r0, pc
 826:	4479      	add	r1, pc
 828:	e02b      	b.n	882 <_ZL13stbi__do_zlibP10stbi__zbufPciii+0x882>
 82a:	48b9      	ldr	r0, [pc, #740]	; (b10 <_ZL13stbi__do_zlibP10stbi__zbufPciii+0xb10>)
 82c:	49b9      	ldr	r1, [pc, #740]	; (b14 <_ZL13stbi__do_zlibP10stbi__zbufPciii+0xb14>)
 82e:	4478      	add	r0, pc
 830:	4479      	add	r1, pc
 832:	e026      	b.n	882 <_ZL13stbi__do_zlibP10stbi__zbufPciii+0x882>
 834:	486b      	ldr	r0, [pc, #428]	; (9e4 <_ZL13stbi__do_zlibP10stbi__zbufPciii+0x9e4>)
 836:	4478      	add	r0, pc
 838:	496b      	ldr	r1, [pc, #428]	; (9e8 <_ZL13stbi__do_zlibP10stbi__zbufPciii+0x9e8>)
 83a:	4479      	add	r1, pc
 83c:	6008      	str	r0, [r1, #0]
 83e:	e021      	b.n	884 <_ZL13stbi__do_zlibP10stbi__zbufPciii+0x884>
 840:	48b9      	ldr	r0, [pc, #740]	; (b28 <_ZL13stbi__do_zlibP10stbi__zbufPciii+0xb28>)
 842:	49ba      	ldr	r1, [pc, #744]	; (b2c <_ZL13stbi__do_zlibP10stbi__zbufPciii+0xb2c>)
 844:	4478      	add	r0, pc
 846:	4479      	add	r1, pc
 848:	e01b      	b.n	882 <_ZL13stbi__do_zlibP10stbi__zbufPciii+0x882>
 84a:	48b5      	ldr	r0, [pc, #724]	; (b20 <_ZL13stbi__do_zlibP10stbi__zbufPciii+0xb20>)
 84c:	49b5      	ldr	r1, [pc, #724]	; (b24 <_ZL13stbi__do_zlibP10stbi__zbufPciii+0xb24>)
 84e:	4478      	add	r0, pc
 850:	4479      	add	r1, pc
 852:	e016      	b.n	882 <_ZL13stbi__do_zlibP10stbi__zbufPciii+0x882>
 854:	48ac      	ldr	r0, [pc, #688]	; (b08 <_ZL13stbi__do_zlibP10stbi__zbufPciii+0xb08>)
 856:	49ad      	ldr	r1, [pc, #692]	; (b0c <_ZL13stbi__do_zlibP10stbi__zbufPciii+0xb0c>)
 858:	4478      	add	r0, pc
 85a:	4479      	add	r1, pc
 85c:	e011      	b.n	882 <_ZL13stbi__do_zlibP10stbi__zbufPciii+0x882>
 85e:	48a8      	ldr	r0, [pc, #672]	; (b00 <_ZL13stbi__do_zlibP10stbi__zbufPciii+0xb00>)
 860:	49a8      	ldr	r1, [pc, #672]	; (b04 <_ZL13stbi__do_zlibP10stbi__zbufPciii+0xb04>)
 862:	4478      	add	r0, pc
 864:	4479      	add	r1, pc
 866:	e00c      	b.n	882 <_ZL13stbi__do_zlibP10stbi__zbufPciii+0x882>
 868:	2001      	movs	r0, #1
 86a:	e00c      	b.n	886 <_ZL13stbi__do_zlibP10stbi__zbufPciii+0x886>
 86c:	a17b      	add	r1, pc, #492	; (adr r1, a5c <_ZL13stbi__do_zlibP10stbi__zbufPciii+0xa5c>)
 86e:	e006      	b.n	87e <_ZL13stbi__do_zlibP10stbi__zbufPciii+0x87e>
 870:	a17e      	add	r1, pc, #504	; (adr r1, a6c <_ZL13stbi__do_zlibP10stbi__zbufPciii+0xa6c>)
 872:	e004      	b.n	87e <_ZL13stbi__do_zlibP10stbi__zbufPciii+0x87e>
 874:	49b1      	ldr	r1, [pc, #708]	; (b3c <_ZL13stbi__do_zlibP10stbi__zbufPciii+0xb3c>)
 876:	4479      	add	r1, pc
 878:	e001      	b.n	87e <_ZL13stbi__do_zlibP10stbi__zbufPciii+0x87e>
 87a:	49b1      	ldr	r1, [pc, #708]	; (b40 <_ZL13stbi__do_zlibP10stbi__zbufPciii+0xb40>)
 87c:	4479      	add	r1, pc
 87e:	4880      	ldr	r0, [pc, #512]	; (a80 <_ZL13stbi__do_zlibP10stbi__zbufPciii+0xa80>)
 880:	4478      	add	r0, pc
 882:	6001      	str	r1, [r0, #0]
 884:	2000      	movs	r0, #0
 886:	49ac      	ldr	r1, [pc, #688]	; (b38 <_ZL13stbi__do_zlibP10stbi__zbufPciii+0xb38>)
 888:	f857 2c34 	ldr.w	r2, [r7, #-52]
 88c:	4479      	add	r1, pc
 88e:	6809      	ldr	r1, [r1, #0]
 890:	6809      	ldr	r1, [r1, #0]
 892:	1a89      	subs	r1, r1, r2
 894:	bf01      	itttt	eq
 896:	f50d 6d1e 	addeq.w	sp, sp, #2528	; 0x9e0
 89a:	ecbd 8b04 	vpopeq	{d8-d9}
 89e:	b001      	addeq	sp, #4
 8a0:	e8bd 0f00 	ldmiaeq.w	sp!, {r8, r9, sl, fp}
 8a4:	bf08      	it	eq
 8a6:	bdf0      	popeq	{r4, r5, r6, r7, pc}
 8a8:	f7ff fffe 	bl	0 <__stack_chk_fail>
 8ac:	487e      	ldr	r0, [pc, #504]	; (aa8 <_ZL13stbi__do_zlibP10stbi__zbufPciii+0xaa8>)
 8ae:	f640 717b 	movw	r1, #3963	; 0xf7b
 8b2:	4a7e      	ldr	r2, [pc, #504]	; (aac <_ZL13stbi__do_zlibP10stbi__zbufPciii+0xaac>)
 8b4:	4b7e      	ldr	r3, [pc, #504]	; (ab0 <_ZL13stbi__do_zlibP10stbi__zbufPciii+0xab0>)
 8b6:	4478      	add	r0, pc
 8b8:	447a      	add	r2, pc
 8ba:	447b      	add	r3, pc
 8bc:	f7ff fffe 	bl	0 <__assert2>
 8c0:	4889      	ldr	r0, [pc, #548]	; (ae8 <_ZL13stbi__do_zlibP10stbi__zbufPciii+0xae8>)
 8c2:	f640 717b 	movw	r1, #3963	; 0xf7b
 8c6:	4a89      	ldr	r2, [pc, #548]	; (aec <_ZL13stbi__do_zlibP10stbi__zbufPciii+0xaec>)
 8c8:	4b89      	ldr	r3, [pc, #548]	; (af0 <_ZL13stbi__do_zlibP10stbi__zbufPciii+0xaf0>)
 8ca:	4478      	add	r0, pc
 8cc:	447a      	add	r2, pc
 8ce:	447b      	add	r3, pc
 8d0:	f7ff fffe 	bl	0 <__assert2>
 8d4:	4887      	ldr	r0, [pc, #540]	; (af4 <_ZL13stbi__do_zlibP10stbi__zbufPciii+0xaf4>)
 8d6:	f640 717b 	movw	r1, #3963	; 0xf7b
 8da:	4a87      	ldr	r2, [pc, #540]	; (af8 <_ZL13stbi__do_zlibP10stbi__zbufPciii+0xaf8>)
 8dc:	4b87      	ldr	r3, [pc, #540]	; (afc <_ZL13stbi__do_zlibP10stbi__zbufPciii+0xafc>)
 8de:	4478      	add	r0, pc
 8e0:	447a      	add	r2, pc
 8e2:	447b      	add	r3, pc
 8e4:	f7ff fffe 	bl	0 <__assert2>
 8e8:	4843      	ldr	r0, [pc, #268]	; (9f8 <_ZL13stbi__do_zlibP10stbi__zbufPciii+0x9f8>)
 8ea:	f640 717b 	movw	r1, #3963	; 0xf7b
 8ee:	4a43      	ldr	r2, [pc, #268]	; (9fc <_ZL13stbi__do_zlibP10stbi__zbufPciii+0x9fc>)
 8f0:	4b43      	ldr	r3, [pc, #268]	; (a00 <_ZL13stbi__do_zlibP10stbi__zbufPciii+0xa00>)
 8f2:	4478      	add	r0, pc
 8f4:	447a      	add	r2, pc
 8f6:	447b      	add	r3, pc
 8f8:	f7ff fffe 	bl	0 <__assert2>
 8fc:	483b      	ldr	r0, [pc, #236]	; (9ec <_ZL13stbi__do_zlibP10stbi__zbufPciii+0x9ec>)
 8fe:	f640 717b 	movw	r1, #3963	; 0xf7b
 902:	4a3b      	ldr	r2, [pc, #236]	; (9f0 <_ZL13stbi__do_zlibP10stbi__zbufPciii+0x9f0>)
 904:	4b3b      	ldr	r3, [pc, #236]	; (9f4 <_ZL13stbi__do_zlibP10stbi__zbufPciii+0x9f4>)
 906:	4478      	add	r0, pc
 908:	447a      	add	r2, pc
 90a:	447b      	add	r3, pc
 90c:	f7ff fffe 	bl	0 <__assert2>
 910:	486e      	ldr	r0, [pc, #440]	; (acc <_ZL13stbi__do_zlibP10stbi__zbufPciii+0xacc>)
 912:	f640 717b 	movw	r1, #3963	; 0xf7b
 916:	4a6e      	ldr	r2, [pc, #440]	; (ad0 <_ZL13stbi__do_zlibP10stbi__zbufPciii+0xad0>)
 918:	4b6e      	ldr	r3, [pc, #440]	; (ad4 <_ZL13stbi__do_zlibP10stbi__zbufPciii+0xad4>)
 91a:	4478      	add	r0, pc
 91c:	447a      	add	r2, pc
 91e:	447b      	add	r3, pc
 920:	f7ff fffe 	bl	0 <__assert2>
 924:	4863      	ldr	r0, [pc, #396]	; (ab4 <_ZL13stbi__do_zlibP10stbi__zbufPciii+0xab4>)
 926:	f640 717b 	movw	r1, #3963	; 0xf7b
 92a:	4a63      	ldr	r2, [pc, #396]	; (ab8 <_ZL13stbi__do_zlibP10stbi__zbufPciii+0xab8>)
 92c:	4b63      	ldr	r3, [pc, #396]	; (abc <_ZL13stbi__do_zlibP10stbi__zbufPciii+0xabc>)
 92e:	4478      	add	r0, pc
 930:	447a      	add	r2, pc
 932:	447b      	add	r3, pc
 934:	f7ff fffe 	bl	0 <__assert2>
 938:	4861      	ldr	r0, [pc, #388]	; (ac0 <_ZL13stbi__do_zlibP10stbi__zbufPciii+0xac0>)
 93a:	f640 717b 	movw	r1, #3963	; 0xf7b
 93e:	4a61      	ldr	r2, [pc, #388]	; (ac4 <_ZL13stbi__do_zlibP10stbi__zbufPciii+0xac4>)
 940:	4b61      	ldr	r3, [pc, #388]	; (ac8 <_ZL13stbi__do_zlibP10stbi__zbufPciii+0xac8>)
 942:	4478      	add	r0, pc
 944:	447a      	add	r2, pc
 946:	447b      	add	r3, pc
 948:	f7ff fffe 	bl	0 <__assert2>
 94c:	484d      	ldr	r0, [pc, #308]	; (a84 <_ZL13stbi__do_zlibP10stbi__zbufPciii+0xa84>)
 94e:	f640 717b 	movw	r1, #3963	; 0xf7b
 952:	4a4d      	ldr	r2, [pc, #308]	; (a88 <_ZL13stbi__do_zlibP10stbi__zbufPciii+0xa88>)
 954:	4b4d      	ldr	r3, [pc, #308]	; (a8c <_ZL13stbi__do_zlibP10stbi__zbufPciii+0xa8c>)
 956:	4478      	add	r0, pc
 958:	447a      	add	r2, pc
 95a:	447b      	add	r3, pc
 95c:	f7ff fffe 	bl	0 <__assert2>
 960:	484b      	ldr	r0, [pc, #300]	; (a90 <_ZL13stbi__do_zlibP10stbi__zbufPciii+0xa90>)
 962:	f640 717b 	movw	r1, #3963	; 0xf7b
 966:	4a4b      	ldr	r2, [pc, #300]	; (a94 <_ZL13stbi__do_zlibP10stbi__zbufPciii+0xa94>)
 968:	4b4b      	ldr	r3, [pc, #300]	; (a98 <_ZL13stbi__do_zlibP10stbi__zbufPciii+0xa98>)
 96a:	4478      	add	r0, pc
 96c:	447a      	add	r2, pc
 96e:	447b      	add	r3, pc
 970:	f7ff fffe 	bl	0 <__assert2>
 974:	4849      	ldr	r0, [pc, #292]	; (a9c <_ZL13stbi__do_zlibP10stbi__zbufPciii+0xa9c>)
 976:	f640 717b 	movw	r1, #3963	; 0xf7b
 97a:	4a49      	ldr	r2, [pc, #292]	; (aa0 <_ZL13stbi__do_zlibP10stbi__zbufPciii+0xaa0>)
 97c:	4b49      	ldr	r3, [pc, #292]	; (aa4 <_ZL13stbi__do_zlibP10stbi__zbufPciii+0xaa4>)
 97e:	4478      	add	r0, pc
 980:	447a      	add	r2, pc
 982:	447b      	add	r3, pc
 984:	f7ff fffe 	bl	0 <__assert2>
 988:	481e      	ldr	r0, [pc, #120]	; (a04 <_ZL13stbi__do_zlibP10stbi__zbufPciii+0xa04>)
 98a:	f640 717b 	movw	r1, #3963	; 0xf7b
 98e:	4a1e      	ldr	r2, [pc, #120]	; (a08 <_ZL13stbi__do_zlibP10stbi__zbufPciii+0xa08>)
 990:	4b1e      	ldr	r3, [pc, #120]	; (a0c <_ZL13stbi__do_zlibP10stbi__zbufPciii+0xa0c>)
 992:	4478      	add	r0, pc
 994:	447a      	add	r2, pc
 996:	447b      	add	r3, pc
 998:	f7ff fffe 	bl	0 <__assert2>
 99c:	484e      	ldr	r0, [pc, #312]	; (ad8 <_ZL13stbi__do_zlibP10stbi__zbufPciii+0xad8>)
 99e:	a350      	add	r3, pc, #320	; (adr r3, ae0 <_ZL13stbi__do_zlibP10stbi__zbufPciii+0xae0>)
 9a0:	4a4e      	ldr	r2, [pc, #312]	; (adc <_ZL13stbi__do_zlibP10stbi__zbufPciii+0xadc>)
 9a2:	f241 0119 	movw	r1, #4121	; 0x1019
 9a6:	4478      	add	r0, pc
 9a8:	447a      	add	r2, pc
 9aa:	f7ff fffe 	bl	0 <__assert2>
 9ae:	4818      	ldr	r0, [pc, #96]	; (a10 <_ZL13stbi__do_zlibP10stbi__zbufPciii+0xa10>)
 9b0:	a218      	add	r2, pc, #96	; (adr r2, a14 <_ZL13stbi__do_zlibP10stbi__zbufPciii+0xa14>)
 9b2:	a325      	add	r3, pc, #148	; (adr r3, a48 <_ZL13stbi__do_zlibP10stbi__zbufPciii+0xa48>)
 9b4:	f241 0134 	movw	r1, #4148	; 0x1034
 9b8:	4478      	add	r0, pc
 9ba:	f7ff fffe 	bl	0 <__assert2>
 9be:	bf00      	nop
 9c0:	000009a0 	.word	0x000009a0
 9c4:	20646162 	.word	0x20646162
 9c8:	62696c7a 	.word	0x62696c7a
 9cc:	61656820 	.word	0x61656820
 9d0:	00726564 	.word	0x00726564
 9d4:	70206f6e 	.word	0x70206f6e
 9d8:	65736572 	.word	0x65736572
 9dc:	69642074 	.word	0x69642074
 9e0:	00007463 	.word	0x00007463
 9e4:	000001aa 	.word	0x000001aa
 9e8:	000001ae 	.word	0x000001ae
 9ec:	000000e2 	.word	0x000000e2
 9f0:	000000e4 	.word	0x000000e4
 9f4:	000000e6 	.word	0x000000e6
 9f8:	00000102 	.word	0x00000102
 9fc:	00000104 	.word	0x00000104
 a00:	00000106 	.word	0x00000106
 a04:	0000006e 	.word	0x0000006e
 a08:	00000070 	.word	0x00000070
 a0c:	00000072 	.word	0x00000072
 a10:	00000054 	.word	0x00000054
 a14:	20746e69 	.word	0x20746e69
 a18:	69627473 	.word	0x69627473
 a1c:	61705f5f 	.word	0x61705f5f
 a20:	5f657372 	.word	0x5f657372
 a24:	6f636e75 	.word	0x6f636e75
 a28:	6572706d 	.word	0x6572706d
 a2c:	64657373 	.word	0x64657373
 a30:	6f6c625f 	.word	0x6f6c625f
 a34:	73286b63 	.word	0x73286b63
 a38:	5f696274 	.word	0x5f696274
 a3c:	75627a5f 	.word	0x75627a5f
 a40:	292a2066 	.word	0x292a2066
 a44:	00000000 	.word	0x00000000
 a48:	6e3e2d61 	.word	0x6e3e2d61
 a4c:	625f6d75 	.word	0x625f6d75
 a50:	20737469 	.word	0x20737469
 a54:	30203d3d 	.word	0x30203d3d
 a58:	00000000 	.word	0x00000000
 a5c:	62696c7a 	.word	0x62696c7a
 a60:	726f6320 	.word	0x726f6320
 a64:	74707572 	.word	0x74707572
 a68:	00000000 	.word	0x00000000
 a6c:	64616572 	.word	0x64616572
 a70:	73617020 	.word	0x73617020
 a74:	75622074 	.word	0x75622074
 a78:	72656666 	.word	0x72656666
 a7c:	00000000 	.word	0x00000000
 a80:	00000200 	.word	0x00000200
 a84:	0000012a 	.word	0x0000012a
 a88:	0000012c 	.word	0x0000012c
 a8c:	0000012e 	.word	0x0000012e
 a90:	00000122 	.word	0x00000122
 a94:	00000124 	.word	0x00000124
 a98:	00000126 	.word	0x00000126
 a9c:	0000011a 	.word	0x0000011a
 aa0:	0000011c 	.word	0x0000011c
 aa4:	0000011e 	.word	0x0000011e
 aa8:	000001ee 	.word	0x000001ee
 aac:	000001f0 	.word	0x000001f0
 ab0:	000001f2 	.word	0x000001f2
 ab4:	00000182 	.word	0x00000182
 ab8:	00000184 	.word	0x00000184
 abc:	00000186 	.word	0x00000186
 ac0:	0000017a 	.word	0x0000017a
 ac4:	0000017c 	.word	0x0000017c
 ac8:	0000017e 	.word	0x0000017e
 acc:	000001ae 	.word	0x000001ae
 ad0:	000001b0 	.word	0x000001b0
 ad4:	000001b2 	.word	0x000001b2
 ad8:	0000012e 	.word	0x0000012e
 adc:	00000130 	.word	0x00000130
 ae0:	3d3d2063 	.word	0x3d3d2063
 ae4:	00383120 	.word	0x00383120
 ae8:	0000021a 	.word	0x0000021a
 aec:	0000021c 	.word	0x0000021c
 af0:	0000021e 	.word	0x0000021e
 af4:	00000212 	.word	0x00000212
 af8:	00000214 	.word	0x00000214
 afc:	00000216 	.word	0x00000216
 b00:	0000029e 	.word	0x0000029e
 b04:	0000029c 	.word	0x0000029c
 b08:	000002b0 	.word	0x000002b0
 b0c:	000002ae 	.word	0x000002ae
 b10:	000002e2 	.word	0x000002e2
 b14:	000002e0 	.word	0x000002e0
 b18:	000002f4 	.word	0x000002f4
 b1c:	000002f2 	.word	0x000002f2
 b20:	000002d2 	.word	0x000002d2
 b24:	000002d0 	.word	0x000002d0
 b28:	000002e4 	.word	0x000002e4
 b2c:	000002e2 	.word	0x000002e2
 b30:	00000316 	.word	0x00000316
 b34:	00000314 	.word	0x00000314
 b38:	000002a8 	.word	0x000002a8
 b3c:	000002c2 	.word	0x000002c2
 b40:	000002c0 	.word	0x000002c0
 b44:	000008e6 	.word	0x000008e6
 b48:	000009f6 	.word	0x000009f6
 b4c:	000008aa 	.word	0x000008aa
 b50:	00000914 	.word	0x00000914
 b54:	00000930 	.word	0x00000930
 b58:	000009a0 	.word	0x000009a0
 b5c:	00000c7a 	.word	0x00000c7a
 b60:	00000672 	.word	0x00000672
 b64:	00000670 	.word	0x00000670
 b68:	0000065e 	.word	0x0000065e
 b6c:	0000065c 	.word	0x0000065c
 b70:	00000674 	.word	0x00000674
 b74:	00000672 	.word	0x00000672
 b78:	00000660 	.word	0x00000660
 b7c:	0000065e 	.word	0x0000065e

Disassembly of section .text.stbi_zlib_decode_malloc:

00000000 <stbi_zlib_decode_malloc>:
   0:	b5f0      	push	{r4, r5, r6, r7, lr}
   2:	af03      	add	r7, sp, #12
   4:	f84d bd04 	str.w	fp, [sp, #-4]!
   8:	f5ad 6d7f 	sub.w	sp, sp, #4080	; 0xff0
   c:	4605      	mov	r5, r0
   e:	481a      	ldr	r0, [pc, #104]	; (78 <stbi_zlib_decode_malloc+0x78>)
  10:	4614      	mov	r4, r2
  12:	460e      	mov	r6, r1
  14:	4478      	add	r0, pc
  16:	6800      	ldr	r0, [r0, #0]
  18:	6800      	ldr	r0, [r0, #0]
  1a:	f847 0c14 	str.w	r0, [r7, #-20]
  1e:	f44f 4080 	mov.w	r0, #16384	; 0x4000
  22:	f7ff fffe 	bl	0 <malloc>
  26:	4601      	mov	r1, r0
  28:	b1a1      	cbz	r1, 54 <stbi_zlib_decode_malloc+0x54>
  2a:	19a8      	adds	r0, r5, r6
  2c:	f44f 4280 	mov.w	r2, #16384	; 0x4000
  30:	2301      	movs	r3, #1
  32:	e9cd 5001 	strd	r5, r0, [sp, #4]
  36:	2001      	movs	r0, #1
  38:	9000      	str	r0, [sp, #0]
  3a:	a801      	add	r0, sp, #4
  3c:	f7ff fffe 	bl	0 <stbi_zlib_decode_malloc>
  40:	b128      	cbz	r0, 4e <stbi_zlib_decode_malloc+0x4e>
  42:	b14c      	cbz	r4, 58 <stbi_zlib_decode_malloc+0x58>
  44:	e9dd 1005 	ldrd	r1, r0, [sp, #20]
  48:	1a09      	subs	r1, r1, r0
  4a:	6021      	str	r1, [r4, #0]
  4c:	e005      	b.n	5a <stbi_zlib_decode_malloc+0x5a>
  4e:	9806      	ldr	r0, [sp, #24]
  50:	f7ff fffe 	bl	0 <free>
  54:	2000      	movs	r0, #0
  56:	e000      	b.n	5a <stbi_zlib_decode_malloc+0x5a>
  58:	9806      	ldr	r0, [sp, #24]
  5a:	4908      	ldr	r1, [pc, #32]	; (7c <stbi_zlib_decode_malloc+0x7c>)
  5c:	f857 2c14 	ldr.w	r2, [r7, #-20]
  60:	4479      	add	r1, pc
  62:	6809      	ldr	r1, [r1, #0]
  64:	6809      	ldr	r1, [r1, #0]
  66:	1a89      	subs	r1, r1, r2
  68:	bf02      	ittt	eq
  6a:	f50d 6d7f 	addeq.w	sp, sp, #4080	; 0xff0
  6e:	f85d bb04 	ldreq.w	fp, [sp], #4
  72:	bdf0      	popeq	{r4, r5, r6, r7, pc}
  74:	f7ff fffe 	bl	0 <__stack_chk_fail>
  78:	00000060 	.word	0x00000060
  7c:	00000018 	.word	0x00000018

Disassembly of section .text.stbi_zlib_decode_malloc_guesssize_headerflag:

00000000 <stbi_zlib_decode_malloc_guesssize_headerflag>:
   0:	b5f0      	push	{r4, r5, r6, r7, lr}
   2:	af03      	add	r7, sp, #12
   4:	e92d 0700 	stmdb	sp!, {r8, r9, sl}
   8:	f5ad 6d7f 	sub.w	sp, sp, #4080	; 0xff0
   c:	4606      	mov	r6, r0
   e:	481b      	ldr	r0, [pc, #108]	; (7c <stbi_zlib_decode_malloc_guesssize_headerflag+0x7c>)
  10:	4615      	mov	r5, r2
  12:	4698      	mov	r8, r3
  14:	4478      	add	r0, pc
  16:	460c      	mov	r4, r1
  18:	6800      	ldr	r0, [r0, #0]
  1a:	6800      	ldr	r0, [r0, #0]
  1c:	f847 0c1c 	str.w	r0, [r7, #-28]
  20:	4628      	mov	r0, r5
  22:	f7ff fffe 	bl	0 <malloc>
  26:	4601      	mov	r1, r0
  28:	b1b1      	cbz	r1, 58 <stbi_zlib_decode_malloc_guesssize_headerflag+0x58>
  2a:	68b8      	ldr	r0, [r7, #8]
  2c:	1932      	adds	r2, r6, r4
  2e:	9202      	str	r2, [sp, #8]
  30:	462a      	mov	r2, r5
  32:	e9cd 0600 	strd	r0, r6, [sp]
  36:	a801      	add	r0, sp, #4
  38:	2301      	movs	r3, #1
  3a:	f7ff fffe 	bl	0 <stbi_zlib_decode_malloc_guesssize_headerflag>
  3e:	b140      	cbz	r0, 52 <stbi_zlib_decode_malloc_guesssize_headerflag+0x52>
  40:	f1b8 0f00 	cmp.w	r8, #0
  44:	d00a      	beq.n	5c <stbi_zlib_decode_malloc_guesssize_headerflag+0x5c>
  46:	e9dd 1005 	ldrd	r1, r0, [sp, #20]
  4a:	1a09      	subs	r1, r1, r0
  4c:	f8c8 1000 	str.w	r1, [r8]
  50:	e005      	b.n	5e <stbi_zlib_decode_malloc_guesssize_headerflag+0x5e>
  52:	9806      	ldr	r0, [sp, #24]
  54:	f7ff fffe 	bl	0 <free>
  58:	2000      	movs	r0, #0
  5a:	e000      	b.n	5e <stbi_zlib_decode_malloc_guesssize_headerflag+0x5e>
  5c:	9806      	ldr	r0, [sp, #24]
  5e:	4908      	ldr	r1, [pc, #32]	; (80 <stbi_zlib_decode_malloc_guesssize_headerflag+0x80>)
  60:	f857 2c1c 	ldr.w	r2, [r7, #-28]
  64:	4479      	add	r1, pc
  66:	6809      	ldr	r1, [r1, #0]
  68:	6809      	ldr	r1, [r1, #0]
  6a:	1a89      	subs	r1, r1, r2
  6c:	bf02      	ittt	eq
  6e:	f50d 6d7f 	addeq.w	sp, sp, #4080	; 0xff0
  72:	e8bd 0700 	ldmiaeq.w	sp!, {r8, r9, sl}
  76:	bdf0      	popeq	{r4, r5, r6, r7, pc}
  78:	f7ff fffe 	bl	0 <__stack_chk_fail>
  7c:	00000064 	.word	0x00000064
  80:	00000018 	.word	0x00000018

Disassembly of section .text.stbi_zlib_decode_buffer:

00000000 <stbi_zlib_decode_buffer>:
   0:	b5b0      	push	{r4, r5, r7, lr}
   2:	af02      	add	r7, sp, #8
   4:	f5ad 6d7f 	sub.w	sp, sp, #4080	; 0xff0
   8:	468c      	mov	ip, r1
   a:	4601      	mov	r1, r0
   c:	4811      	ldr	r0, [pc, #68]	; (54 <stbi_zlib_decode_buffer+0x54>)
   e:	4478      	add	r0, pc
  10:	6800      	ldr	r0, [r0, #0]
  12:	6800      	ldr	r0, [r0, #0]
  14:	f847 0c0c 	str.w	r0, [r7, #-12]
  18:	18d0      	adds	r0, r2, r3
  1a:	2300      	movs	r3, #0
  1c:	e9cd 2001 	strd	r2, r0, [sp, #4]
  20:	2001      	movs	r0, #1
  22:	9000      	str	r0, [sp, #0]
  24:	a801      	add	r0, sp, #4
  26:	4662      	mov	r2, ip
  28:	f7ff fffe 	bl	0 <stbi_zlib_decode_buffer>
  2c:	2800      	cmp	r0, #0
  2e:	bf1a      	itte	ne
  30:	e9dd 0105 	ldrdne	r0, r1, [sp, #20]
  34:	1a40      	subne	r0, r0, r1
  36:	f04f 30ff 	moveq.w	r0, #4294967295	; 0xffffffff
  3a:	f857 2c0c 	ldr.w	r2, [r7, #-12]
  3e:	4906      	ldr	r1, [pc, #24]	; (58 <stbi_zlib_decode_buffer+0x58>)
  40:	4479      	add	r1, pc
  42:	6809      	ldr	r1, [r1, #0]
  44:	6809      	ldr	r1, [r1, #0]
  46:	1a89      	subs	r1, r1, r2
  48:	bf04      	itt	eq
  4a:	f50d 6d7f 	addeq.w	sp, sp, #4080	; 0xff0
  4e:	bdb0      	popeq	{r4, r5, r7, pc}
  50:	f7ff fffe 	bl	0 <__stack_chk_fail>
  54:	00000042 	.word	0x00000042
  58:	00000014 	.word	0x00000014

Disassembly of section .text.stbi_zlib_decode_noheader_malloc:

00000000 <stbi_zlib_decode_noheader_malloc>:
   0:	b5f0      	push	{r4, r5, r6, r7, lr}
   2:	af03      	add	r7, sp, #12
   4:	f84d bd04 	str.w	fp, [sp, #-4]!
   8:	f5ad 6d7f 	sub.w	sp, sp, #4080	; 0xff0
   c:	4605      	mov	r5, r0
   e:	481a      	ldr	r0, [pc, #104]	; (78 <stbi_zlib_decode_noheader_malloc+0x78>)
  10:	4614      	mov	r4, r2
  12:	460e      	mov	r6, r1
  14:	4478      	add	r0, pc
  16:	6800      	ldr	r0, [r0, #0]
  18:	6800      	ldr	r0, [r0, #0]
  1a:	f847 0c14 	str.w	r0, [r7, #-20]
  1e:	f44f 4080 	mov.w	r0, #16384	; 0x4000
  22:	f7ff fffe 	bl	0 <malloc>
  26:	4601      	mov	r1, r0
  28:	2000      	movs	r0, #0
  2a:	b1b1      	cbz	r1, 5a <stbi_zlib_decode_noheader_malloc+0x5a>
  2c:	19aa      	adds	r2, r5, r6
  2e:	9202      	str	r2, [sp, #8]
  30:	e9cd 0500 	strd	r0, r5, [sp]
  34:	a801      	add	r0, sp, #4
  36:	f44f 4280 	mov.w	r2, #16384	; 0x4000
  3a:	2301      	movs	r3, #1
  3c:	f7ff fffe 	bl	0 <stbi_zlib_decode_noheader_malloc>
  40:	b128      	cbz	r0, 4e <stbi_zlib_decode_noheader_malloc+0x4e>
  42:	b14c      	cbz	r4, 58 <stbi_zlib_decode_noheader_malloc+0x58>
  44:	e9dd 1005 	ldrd	r1, r0, [sp, #20]
  48:	1a09      	subs	r1, r1, r0
  4a:	6021      	str	r1, [r4, #0]
  4c:	e005      	b.n	5a <stbi_zlib_decode_noheader_malloc+0x5a>
  4e:	9806      	ldr	r0, [sp, #24]
  50:	f7ff fffe 	bl	0 <free>
  54:	2000      	movs	r0, #0
  56:	e000      	b.n	5a <stbi_zlib_decode_noheader_malloc+0x5a>
  58:	9806      	ldr	r0, [sp, #24]
  5a:	4908      	ldr	r1, [pc, #32]	; (7c <stbi_zlib_decode_noheader_malloc+0x7c>)
  5c:	f857 2c14 	ldr.w	r2, [r7, #-20]
  60:	4479      	add	r1, pc
  62:	6809      	ldr	r1, [r1, #0]
  64:	6809      	ldr	r1, [r1, #0]
  66:	1a89      	subs	r1, r1, r2
  68:	bf02      	ittt	eq
  6a:	f50d 6d7f 	addeq.w	sp, sp, #4080	; 0xff0
  6e:	f85d bb04 	ldreq.w	fp, [sp], #4
  72:	bdf0      	popeq	{r4, r5, r6, r7, pc}
  74:	f7ff fffe 	bl	0 <__stack_chk_fail>
  78:	00000060 	.word	0x00000060
  7c:	00000018 	.word	0x00000018

Disassembly of section .text.stbi_zlib_decode_noheader_buffer:

00000000 <stbi_zlib_decode_noheader_buffer>:
   0:	b5b0      	push	{r4, r5, r7, lr}
   2:	af02      	add	r7, sp, #8
   4:	f5ad 6d7f 	sub.w	sp, sp, #4080	; 0xff0
   8:	468c      	mov	ip, r1
   a:	4601      	mov	r1, r0
   c:	4811      	ldr	r0, [pc, #68]	; (54 <stbi_zlib_decode_noheader_buffer+0x54>)
   e:	4478      	add	r0, pc
  10:	6800      	ldr	r0, [r0, #0]
  12:	6800      	ldr	r0, [r0, #0]
  14:	f847 0c0c 	str.w	r0, [r7, #-12]
  18:	18d0      	adds	r0, r2, r3
  1a:	2300      	movs	r3, #0
  1c:	e9cd 2001 	strd	r2, r0, [sp, #4]
  20:	2000      	movs	r0, #0
  22:	9000      	str	r0, [sp, #0]
  24:	a801      	add	r0, sp, #4
  26:	4662      	mov	r2, ip
  28:	f7ff fffe 	bl	0 <stbi_zlib_decode_noheader_buffer>
  2c:	2800      	cmp	r0, #0
  2e:	bf1a      	itte	ne
  30:	e9dd 0105 	ldrdne	r0, r1, [sp, #20]
  34:	1a40      	subne	r0, r0, r1
  36:	f04f 30ff 	moveq.w	r0, #4294967295	; 0xffffffff
  3a:	f857 2c0c 	ldr.w	r2, [r7, #-12]
  3e:	4906      	ldr	r1, [pc, #24]	; (58 <stbi_zlib_decode_noheader_buffer+0x58>)
  40:	4479      	add	r1, pc
  42:	6809      	ldr	r1, [r1, #0]
  44:	6809      	ldr	r1, [r1, #0]
  46:	1a89      	subs	r1, r1, r2
  48:	bf04      	itt	eq
  4a:	f50d 6d7f 	addeq.w	sp, sp, #4080	; 0xff0
  4e:	bdb0      	popeq	{r4, r5, r7, pc}
  50:	f7ff fffe 	bl	0 <__stack_chk_fail>
  54:	00000042 	.word	0x00000042
  58:	00000014 	.word	0x00000014

Disassembly of section .text.stbi_set_unpremultiply_on_load:

00000000 <stbi_set_unpremultiply_on_load>:
   0:	4901      	ldr	r1, [pc, #4]	; (8 <stbi_set_unpremultiply_on_load+0x8>)
   2:	4479      	add	r1, pc
   4:	6088      	str	r0, [r1, #8]
   6:	4770      	bx	lr
   8:	00000006 	.word	0x00000006

Disassembly of section .text.stbi_convert_iphone_png_to_rgb:

00000000 <stbi_convert_iphone_png_to_rgb>:
   0:	4901      	ldr	r1, [pc, #4]	; (8 <stbi_convert_iphone_png_to_rgb+0x8>)
   2:	4479      	add	r1, pc
   4:	60c8      	str	r0, [r1, #12]
   6:	4770      	bx	lr
   8:	00000006 	.word	0x00000006

Disassembly of section .text.stbi_info:

00000000 <stbi_info>:
   0:	b5f0      	push	{r4, r5, r6, r7, lr}
   2:	af03      	add	r7, sp, #12
   4:	e92d 0f00 	stmdb	sp!, {r8, r9, sl, fp}
   8:	b0af      	sub	sp, #188	; 0xbc
   a:	468b      	mov	fp, r1
   c:	492b      	ldr	r1, [pc, #172]	; (bc <stbi_info+0xbc>)
   e:	4698      	mov	r8, r3
  10:	4692      	mov	sl, r2
  12:	4479      	add	r1, pc
  14:	6809      	ldr	r1, [r1, #0]
  16:	6809      	ldr	r1, [r1, #0]
  18:	912e      	str	r1, [sp, #184]	; 0xb8
  1a:	a129      	add	r1, pc, #164	; (adr r1, c0 <stbi_info+0xc0>)
  1c:	f7ff fffe 	bl	0 <fopen>
  20:	4606      	mov	r6, r0
  22:	b1f6      	cbz	r6, 62 <stbi_info+0x62>
  24:	4630      	mov	r0, r6
  26:	f7ff fffe 	bl	0 <ftell>
  2a:	4681      	mov	r9, r0
  2c:	4825      	ldr	r0, [pc, #148]	; (c4 <stbi_info+0xc4>)
  2e:	2180      	movs	r1, #128	; 0x80
  30:	9607      	str	r6, [sp, #28]
  32:	4478      	add	r0, pc
  34:	9109      	str	r1, [sp, #36]	; 0x24
  36:	466c      	mov	r4, sp
  38:	f104 0528 	add.w	r5, r4, #40	; 0x28
  3c:	edd0 0b00 	vldr	d16, [r0]
  40:	2280      	movs	r2, #128	; 0x80
  42:	6881      	ldr	r1, [r0, #8]
  44:	2001      	movs	r0, #1
  46:	9008      	str	r0, [sp, #32]
  48:	4630      	mov	r0, r6
  4a:	edcd 0b04 	vstr	d16, [sp, #16]
  4e:	9b04      	ldr	r3, [sp, #16]
  50:	952c      	str	r5, [sp, #176]	; 0xb0
  52:	9106      	str	r1, [sp, #24]
  54:	4629      	mov	r1, r5
  56:	4798      	blx	r3
  58:	2800      	cmp	r0, #0
  5a:	d009      	beq.n	70 <stbi_info+0x70>
  5c:	4420      	add	r0, r4
  5e:	3028      	adds	r0, #40	; 0x28
  60:	e00c      	b.n	7c <stbi_info+0x7c>
  62:	4819      	ldr	r0, [pc, #100]	; (c8 <stbi_info+0xc8>)
  64:	2400      	movs	r4, #0
  66:	4919      	ldr	r1, [pc, #100]	; (cc <stbi_info+0xcc>)
  68:	4478      	add	r0, pc
  6a:	4479      	add	r1, pc
  6c:	6001      	str	r1, [r0, #0]
  6e:	e017      	b.n	a0 <stbi_info+0xa0>
  70:	2000      	movs	r0, #0
  72:	f88d 0028 	strb.w	r0, [sp, #40]	; 0x28
  76:	9008      	str	r0, [sp, #32]
  78:	f104 0029 	add.w	r0, r4, #41	; 0x29
  7c:	e9cd 502a 	strd	r5, r0, [sp, #168]	; 0xa8
  80:	4659      	mov	r1, fp
  82:	902d      	str	r0, [sp, #180]	; 0xb4
  84:	4668      	mov	r0, sp
  86:	4652      	mov	r2, sl
  88:	4643      	mov	r3, r8
  8a:	f7ff fffe 	bl	0 <stbi_info>
  8e:	4604      	mov	r4, r0
  90:	4630      	mov	r0, r6
  92:	4649      	mov	r1, r9
  94:	2200      	movs	r2, #0
  96:	f7ff fffe 	bl	0 <fseek>
  9a:	4630      	mov	r0, r6
  9c:	f7ff fffe 	bl	0 <fclose>
  a0:	480b      	ldr	r0, [pc, #44]	; (d0 <stbi_info+0xd0>)
  a2:	992e      	ldr	r1, [sp, #184]	; 0xb8
  a4:	4478      	add	r0, pc
  a6:	6800      	ldr	r0, [r0, #0]
  a8:	6800      	ldr	r0, [r0, #0]
  aa:	1a40      	subs	r0, r0, r1
  ac:	bf01      	itttt	eq
  ae:	4620      	moveq	r0, r4
  b0:	b02f      	addeq	sp, #188	; 0xbc
  b2:	e8bd 0f00 	ldmiaeq.w	sp!, {r8, r9, sl, fp}
  b6:	bdf0      	popeq	{r4, r5, r6, r7, pc}
  b8:	f7ff fffe 	bl	0 <__stack_chk_fail>
  bc:	000000a6 	.word	0x000000a6
  c0:	00006272 	.word	0x00006272
  c4:	0000008e 	.word	0x0000008e
  c8:	00000060 	.word	0x00000060
  cc:	0000005e 	.word	0x0000005e
  d0:	00000028 	.word	0x00000028

Disassembly of section .text.stbi_info_from_file:

00000000 <stbi_info_from_file>:
   0:	b5f0      	push	{r4, r5, r6, r7, lr}
   2:	af03      	add	r7, sp, #12
   4:	e92d 0f00 	stmdb	sp!, {r8, r9, sl, fp}
   8:	b0af      	sub	sp, #188	; 0xbc
   a:	4604      	mov	r4, r0
   c:	4824      	ldr	r0, [pc, #144]	; (a0 <stbi_info_from_file+0xa0>)
   e:	4698      	mov	r8, r3
  10:	4691      	mov	r9, r2
  12:	4478      	add	r0, pc
  14:	468a      	mov	sl, r1
  16:	6800      	ldr	r0, [r0, #0]
  18:	6800      	ldr	r0, [r0, #0]
  1a:	902e      	str	r0, [sp, #184]	; 0xb8
  1c:	4620      	mov	r0, r4
  1e:	f7ff fffe 	bl	0 <ftell>
  22:	4683      	mov	fp, r0
  24:	481f      	ldr	r0, [pc, #124]	; (a4 <stbi_info_from_file+0xa4>)
  26:	2180      	movs	r1, #128	; 0x80
  28:	9407      	str	r4, [sp, #28]
  2a:	4478      	add	r0, pc
  2c:	9109      	str	r1, [sp, #36]	; 0x24
  2e:	466e      	mov	r6, sp
  30:	f106 0528 	add.w	r5, r6, #40	; 0x28
  34:	edd0 0b00 	vldr	d16, [r0]
  38:	2280      	movs	r2, #128	; 0x80
  3a:	6881      	ldr	r1, [r0, #8]
  3c:	2001      	movs	r0, #1
  3e:	9008      	str	r0, [sp, #32]
  40:	4620      	mov	r0, r4
  42:	edcd 0b04 	vstr	d16, [sp, #16]
  46:	9b04      	ldr	r3, [sp, #16]
  48:	952c      	str	r5, [sp, #176]	; 0xb0
  4a:	9106      	str	r1, [sp, #24]
  4c:	4629      	mov	r1, r5
  4e:	4798      	blx	r3
  50:	2800      	cmp	r0, #0
  52:	d002      	beq.n	5a <stbi_info_from_file+0x5a>
  54:	4430      	add	r0, r6
  56:	3028      	adds	r0, #40	; 0x28
  58:	e005      	b.n	66 <stbi_info_from_file+0x66>
  5a:	2000      	movs	r0, #0
  5c:	f88d 0028 	strb.w	r0, [sp, #40]	; 0x28
  60:	9008      	str	r0, [sp, #32]
  62:	f106 0029 	add.w	r0, r6, #41	; 0x29
  66:	e9cd 502a 	strd	r5, r0, [sp, #168]	; 0xa8
  6a:	4651      	mov	r1, sl
  6c:	902d      	str	r0, [sp, #180]	; 0xb4
  6e:	4668      	mov	r0, sp
  70:	464a      	mov	r2, r9
  72:	4643      	mov	r3, r8
  74:	f7ff fffe 	bl	0 <stbi_info_from_file>
  78:	4605      	mov	r5, r0
  7a:	4620      	mov	r0, r4
  7c:	4659      	mov	r1, fp
  7e:	2200      	movs	r2, #0
  80:	f7ff fffe 	bl	0 <fseek>
  84:	4808      	ldr	r0, [pc, #32]	; (a8 <stbi_info_from_file+0xa8>)
  86:	992e      	ldr	r1, [sp, #184]	; 0xb8
  88:	4478      	add	r0, pc
  8a:	6800      	ldr	r0, [r0, #0]
  8c:	6800      	ldr	r0, [r0, #0]
  8e:	1a40      	subs	r0, r0, r1
  90:	bf01      	itttt	eq
  92:	4628      	moveq	r0, r5
  94:	b02f      	addeq	sp, #188	; 0xbc
  96:	e8bd 0f00 	ldmiaeq.w	sp!, {r8, r9, sl, fp}
  9a:	bdf0      	popeq	{r4, r5, r6, r7, pc}
  9c:	f7ff fffe 	bl	0 <__stack_chk_fail>
  a0:	0000008a 	.word	0x0000008a
  a4:	00000076 	.word	0x00000076
  a8:	0000001c 	.word	0x0000001c

Disassembly of section .text._ZL15stbi__info_mainP13stbi__contextPiS1_S1_:

00000000 <_ZL15stbi__info_mainP13stbi__contextPiS1_S1_>:
   0:	b5f0      	push	{r4, r5, r6, r7, lr}
   2:	af03      	add	r7, sp, #12
   4:	e92d 0f00 	stmdb	sp!, {r8, r9, sl, fp}
   8:	f5ad 6d85 	sub.w	sp, sp, #1064	; 0x428
   c:	b081      	sub	sp, #4
   e:	4604      	mov	r4, r0
  10:	f8df 0d38 	ldr.w	r0, [pc, #3384]	; d4c <_ZL15stbi__info_mainP13stbi__contextPiS1_S1_+0xd4c>
  14:	469a      	mov	sl, r3
  16:	4691      	mov	r9, r2
  18:	4478      	add	r0, pc
  1a:	460e      	mov	r6, r1
  1c:	6800      	ldr	r0, [r0, #0]
  1e:	6800      	ldr	r0, [r0, #0]
  20:	f847 0c20 	str.w	r0, [r7, #-32]
  24:	f644 0018 	movw	r0, #18456	; 0x4818
  28:	f7ff fffe 	bl	0 <malloc>
  2c:	4605      	mov	r5, r0
  2e:	2102      	movs	r1, #2
  30:	602c      	str	r4, [r5, #0]
  32:	f7ff fffe 	bl	0 <_ZL15stbi__info_mainP13stbi__contextPiS1_S1_>
  36:	b1d0      	cbz	r0, 6e <_ZL15stbi__info_mainP13stbi__contextPiS1_S1_+0x6e>
  38:	2e00      	cmp	r6, #0
  3a:	bf1e      	ittt	ne
  3c:	6828      	ldrne	r0, [r5, #0]
  3e:	6800      	ldrne	r0, [r0, #0]
  40:	6030      	strne	r0, [r6, #0]
  42:	f1b9 0f00 	cmp.w	r9, #0
  46:	bf1e      	ittt	ne
  48:	6828      	ldrne	r0, [r5, #0]
  4a:	6840      	ldrne	r0, [r0, #4]
  4c:	f8c9 0000 	strne.w	r0, [r9]
  50:	f1ba 0f00 	cmp.w	sl, #0
  54:	d007      	beq.n	66 <_ZL15stbi__info_mainP13stbi__contextPiS1_S1_+0x66>
  56:	6828      	ldr	r0, [r5, #0]
  58:	2101      	movs	r1, #1
  5a:	6880      	ldr	r0, [r0, #8]
  5c:	2802      	cmp	r0, #2
  5e:	bfc8      	it	gt
  60:	2103      	movgt	r1, #3
  62:	f8ca 1000 	str.w	r1, [sl]
  66:	4628      	mov	r0, r5
  68:	f7ff fffe 	bl	0 <free>
  6c:	e021      	b.n	b2 <_ZL15stbi__info_mainP13stbi__contextPiS1_S1_+0xb2>
  6e:	6828      	ldr	r0, [r5, #0]
  70:	e9d0 122c 	ldrd	r1, r2, [r0, #176]	; 0xb0
  74:	e9c0 122a 	strd	r1, r2, [r0, #168]	; 0xa8
  78:	4628      	mov	r0, r5
  7a:	f7ff fffe 	bl	0 <free>
  7e:	a80a      	add	r0, sp, #40	; 0x28
  80:	2102      	movs	r1, #2
  82:	2200      	movs	r2, #0
  84:	940a      	str	r4, [sp, #40]	; 0x28
  86:	f7ff fffe 	bl	0 <_ZL15stbi__info_mainP13stbi__contextPiS1_S1_>
  8a:	b320      	cbz	r0, d6 <_ZL15stbi__info_mainP13stbi__contextPiS1_S1_+0xd6>
  8c:	2e00      	cmp	r6, #0
  8e:	bf1e      	ittt	ne
  90:	980a      	ldrne	r0, [sp, #40]	; 0x28
  92:	6800      	ldrne	r0, [r0, #0]
  94:	6030      	strne	r0, [r6, #0]
  96:	f1b9 0f00 	cmp.w	r9, #0
  9a:	bf1e      	ittt	ne
  9c:	980a      	ldrne	r0, [sp, #40]	; 0x28
  9e:	6840      	ldrne	r0, [r0, #4]
  a0:	f8c9 0000 	strne.w	r0, [r9]
  a4:	f1ba 0f00 	cmp.w	sl, #0
  a8:	bf1e      	ittt	ne
  aa:	980a      	ldrne	r0, [sp, #40]	; 0x28
  ac:	6880      	ldrne	r0, [r0, #8]
  ae:	f8ca 0000 	strne.w	r0, [sl]
  b2:	2001      	movs	r0, #1
  b4:	f8df 1c98 	ldr.w	r1, [pc, #3224]	; d50 <_ZL15stbi__info_mainP13stbi__contextPiS1_S1_+0xd50>
  b8:	f857 2c20 	ldr.w	r2, [r7, #-32]
  bc:	4479      	add	r1, pc
  be:	6809      	ldr	r1, [r1, #0]
  c0:	6809      	ldr	r1, [r1, #0]
  c2:	1a89      	subs	r1, r1, r2
  c4:	bf01      	itttt	eq
  c6:	f50d 6d85 	addeq.w	sp, sp, #1064	; 0x428
  ca:	b001      	addeq	sp, #4
  cc:	e8bd 0f00 	ldmiaeq.w	sp!, {r8, r9, sl, fp}
  d0:	bdf0      	popeq	{r4, r5, r6, r7, pc}
  d2:	f7ff fffe 	bl	0 <__stack_chk_fail>
  d6:	980a      	ldr	r0, [sp, #40]	; 0x28
  d8:	e9d0 122c 	ldrd	r1, r2, [r0, #176]	; 0xb0
  dc:	e9c0 122a 	strd	r1, r2, [r0, #168]	; 0xa8
  e0:	f648 0058 	movw	r0, #34904	; 0x8858
  e4:	f7ff fffe 	bl	0 <malloc>
  e8:	4605      	mov	r5, r0
  ea:	4620      	mov	r0, r4
  ec:	4629      	mov	r1, r5
  ee:	4652      	mov	r2, sl
  f0:	2301      	movs	r3, #1
  f2:	f7ff fffe 	bl	0 <_ZL15stbi__info_mainP13stbi__contextPiS1_S1_>
  f6:	b150      	cbz	r0, 10e <_ZL15stbi__info_mainP13stbi__contextPiS1_S1_+0x10e>
  f8:	2e00      	cmp	r6, #0
  fa:	bf1c      	itt	ne
  fc:	6828      	ldrne	r0, [r5, #0]
  fe:	6030      	strne	r0, [r6, #0]
 100:	f1b9 0f00 	cmp.w	r9, #0
 104:	bf1c      	itt	ne
 106:	6868      	ldrne	r0, [r5, #4]
 108:	f8c9 0000 	strne.w	r0, [r9]
 10c:	e7ab      	b.n	66 <_ZL15stbi__info_mainP13stbi__contextPiS1_S1_+0x66>
 10e:	4628      	mov	r0, r5
 110:	f7ff fffe 	bl	0 <free>
 114:	e9d4 012c 	ldrd	r0, r1, [r4, #176]	; 0xb0
 118:	ad0a      	add	r5, sp, #40	; 0x28
 11a:	e9c4 012a 	strd	r0, r1, [r4, #168]	; 0xa8
 11e:	20ff      	movs	r0, #255	; 0xff
 120:	9011      	str	r0, [sp, #68]	; 0x44
 122:	4620      	mov	r0, r4
 124:	4629      	mov	r1, r5
 126:	f7ff fffe 	bl	0 <_ZL15stbi__info_mainP13stbi__contextPiS1_S1_>
 12a:	e9d4 122c 	ldrd	r1, r2, [r4, #176]	; 0xb0
 12e:	2800      	cmp	r0, #0
 130:	e9c4 122a 	strd	r1, r2, [r4, #168]	; 0xa8
 134:	d014      	beq.n	160 <_ZL15stbi__info_mainP13stbi__contextPiS1_S1_+0x160>
 136:	2e00      	cmp	r6, #0
 138:	bf1c      	itt	ne
 13a:	6820      	ldrne	r0, [r4, #0]
 13c:	6030      	strne	r0, [r6, #0]
 13e:	f1b9 0f00 	cmp.w	r9, #0
 142:	bf1c      	itt	ne
 144:	6860      	ldrne	r0, [r4, #4]
 146:	f8c9 0000 	strne.w	r0, [r9]
 14a:	f1ba 0f00 	cmp.w	sl, #0
 14e:	d0b0      	beq.n	b2 <_ZL15stbi__info_mainP13stbi__contextPiS1_S1_+0xb2>
 150:	9810      	ldr	r0, [sp, #64]	; 0x40
 152:	2103      	movs	r1, #3
 154:	2800      	cmp	r0, #0
 156:	bf18      	it	ne
 158:	2104      	movne	r1, #4
 15a:	f8ca 1000 	str.w	r1, [sl]
 15e:	e7a8      	b.n	b2 <_ZL15stbi__info_mainP13stbi__contextPiS1_S1_+0xb2>
 160:	f1ba 0f00 	cmp.w	sl, #0
 164:	46d3      	mov	fp, sl
 166:	bf08      	it	eq
 168:	46ab      	moveq	fp, r5
 16a:	f1b9 0f00 	cmp.w	r9, #0
 16e:	4648      	mov	r0, r9
 170:	bf08      	it	eq
 172:	4628      	moveq	r0, r5
 174:	2e00      	cmp	r6, #0
 176:	9004      	str	r0, [sp, #16]
 178:	4630      	mov	r0, r6
 17a:	bf08      	it	eq
 17c:	4628      	moveq	r0, r5
 17e:	9007      	str	r0, [sp, #28]
 180:	4620      	mov	r0, r4
 182:	f7ff fffe 	bl	0 <_ZL15stbi__info_mainP13stbi__contextPiS1_S1_>
 186:	f245 0153 	movw	r1, #20563	; 0x5053
 18a:	e9cd 6905 	strd	r6, r9, [sp, #20]
 18e:	f6c3 0142 	movt	r1, #14402	; 0x3842
 192:	4288      	cmp	r0, r1
 194:	f040 8151 	bne.w	43a <_ZL15stbi__info_mainP13stbi__contextPiS1_S1_+0x43a>
 198:	e9d4 012a 	ldrd	r0, r1, [r4, #168]	; 0xa8
 19c:	4288      	cmp	r0, r1
 19e:	d201      	bcs.n	1a4 <_ZL15stbi__info_mainP13stbi__contextPiS1_S1_+0x1a4>
 1a0:	4605      	mov	r5, r0
 1a2:	e017      	b.n	1d4 <_ZL15stbi__info_mainP13stbi__contextPiS1_S1_+0x1d4>
 1a4:	6a22      	ldr	r2, [r4, #32]
 1a6:	b15a      	cbz	r2, 1c0 <_ZL15stbi__info_mainP13stbi__contextPiS1_S1_+0x1c0>
 1a8:	f104 0528 	add.w	r5, r4, #40	; 0x28
 1ac:	6923      	ldr	r3, [r4, #16]
 1ae:	69e0      	ldr	r0, [r4, #28]
 1b0:	6a62      	ldr	r2, [r4, #36]	; 0x24
 1b2:	4629      	mov	r1, r5
 1b4:	4798      	blx	r3
 1b6:	b128      	cbz	r0, 1c4 <_ZL15stbi__info_mainP13stbi__contextPiS1_S1_+0x1c4>
 1b8:	4420      	add	r0, r4
 1ba:	f100 0128 	add.w	r1, r0, #40	; 0x28
 1be:	e007      	b.n	1d0 <_ZL15stbi__info_mainP13stbi__contextPiS1_S1_+0x1d0>
 1c0:	2200      	movs	r2, #0
 1c2:	e00b      	b.n	1dc <_ZL15stbi__info_mainP13stbi__contextPiS1_S1_+0x1dc>
 1c4:	2000      	movs	r0, #0
 1c6:	f104 0129 	add.w	r1, r4, #41	; 0x29
 1ca:	f884 0028 	strb.w	r0, [r4, #40]	; 0x28
 1ce:	6220      	str	r0, [r4, #32]
 1d0:	e9c4 512a 	strd	r5, r1, [r4, #168]	; 0xa8
 1d4:	1c68      	adds	r0, r5, #1
 1d6:	f8c4 00a8 	str.w	r0, [r4, #168]	; 0xa8
 1da:	782a      	ldrb	r2, [r5, #0]
 1dc:	ea4f 2802 	mov.w	r8, r2, lsl #8
 1e0:	4288      	cmp	r0, r1
 1e2:	d201      	bcs.n	1e8 <_ZL15stbi__info_mainP13stbi__contextPiS1_S1_+0x1e8>
 1e4:	4605      	mov	r5, r0
 1e6:	e017      	b.n	218 <_ZL15stbi__info_mainP13stbi__contextPiS1_S1_+0x218>
 1e8:	6a22      	ldr	r2, [r4, #32]
 1ea:	b15a      	cbz	r2, 204 <_ZL15stbi__info_mainP13stbi__contextPiS1_S1_+0x204>
 1ec:	f104 0528 	add.w	r5, r4, #40	; 0x28
 1f0:	6923      	ldr	r3, [r4, #16]
 1f2:	69e0      	ldr	r0, [r4, #28]
 1f4:	6a62      	ldr	r2, [r4, #36]	; 0x24
 1f6:	4629      	mov	r1, r5
 1f8:	4798      	blx	r3
 1fa:	b128      	cbz	r0, 208 <_ZL15stbi__info_mainP13stbi__contextPiS1_S1_+0x208>
 1fc:	4420      	add	r0, r4
 1fe:	f100 0128 	add.w	r1, r0, #40	; 0x28
 202:	e007      	b.n	214 <_ZL15stbi__info_mainP13stbi__contextPiS1_S1_+0x214>
 204:	2200      	movs	r2, #0
 206:	e00b      	b.n	220 <_ZL15stbi__info_mainP13stbi__contextPiS1_S1_+0x220>
 208:	2000      	movs	r0, #0
 20a:	f104 0129 	add.w	r1, r4, #41	; 0x29
 20e:	f884 0028 	strb.w	r0, [r4, #40]	; 0x28
 212:	6220      	str	r0, [r4, #32]
 214:	e9c4 512a 	strd	r5, r1, [r4, #168]	; 0xa8
 218:	1c68      	adds	r0, r5, #1
 21a:	f8c4 00a8 	str.w	r0, [r4, #168]	; 0xa8
 21e:	782a      	ldrb	r2, [r5, #0]
 220:	ea42 0208 	orr.w	r2, r2, r8
 224:	2a01      	cmp	r2, #1
 226:	f040 8108 	bne.w	43a <_ZL15stbi__info_mainP13stbi__contextPiS1_S1_+0x43a>
 22a:	6922      	ldr	r2, [r4, #16]
 22c:	b162      	cbz	r2, 248 <_ZL15stbi__info_mainP13stbi__contextPiS1_S1_+0x248>
 22e:	1a0a      	subs	r2, r1, r0
 230:	2a05      	cmp	r2, #5
 232:	dc09      	bgt.n	248 <_ZL15stbi__info_mainP13stbi__contextPiS1_S1_+0x248>
 234:	6963      	ldr	r3, [r4, #20]
 236:	69e0      	ldr	r0, [r4, #28]
 238:	f8c4 10a8 	str.w	r1, [r4, #168]	; 0xa8
 23c:	f1c2 0106 	rsb	r1, r2, #6
 240:	4798      	blx	r3
 242:	e9d4 512a 	ldrd	r5, r1, [r4, #168]	; 0xa8
 246:	e002      	b.n	24e <_ZL15stbi__info_mainP13stbi__contextPiS1_S1_+0x24e>
 248:	1d85      	adds	r5, r0, #6
 24a:	f8c4 50a8 	str.w	r5, [r4, #168]	; 0xa8
 24e:	428d      	cmp	r5, r1
 250:	f8cd b00c 	str.w	fp, [sp, #12]
 254:	d201      	bcs.n	25a <_ZL15stbi__info_mainP13stbi__contextPiS1_S1_+0x25a>
 256:	46ab      	mov	fp, r5
 258:	e017      	b.n	28a <_ZL15stbi__info_mainP13stbi__contextPiS1_S1_+0x28a>
 25a:	6a20      	ldr	r0, [r4, #32]
 25c:	b158      	cbz	r0, 276 <_ZL15stbi__info_mainP13stbi__contextPiS1_S1_+0x276>
 25e:	f104 0b28 	add.w	fp, r4, #40	; 0x28
 262:	6923      	ldr	r3, [r4, #16]
 264:	69e0      	ldr	r0, [r4, #28]
 266:	6a62      	ldr	r2, [r4, #36]	; 0x24
 268:	4659      	mov	r1, fp
 26a:	4798      	blx	r3
 26c:	b128      	cbz	r0, 27a <_ZL15stbi__info_mainP13stbi__contextPiS1_S1_+0x27a>
 26e:	4420      	add	r0, r4
 270:	f100 0128 	add.w	r1, r0, #40	; 0x28
 274:	e007      	b.n	286 <_ZL15stbi__info_mainP13stbi__contextPiS1_S1_+0x286>
 276:	2000      	movs	r0, #0
 278:	e011      	b.n	29e <_ZL15stbi__info_mainP13stbi__contextPiS1_S1_+0x29e>
 27a:	2000      	movs	r0, #0
 27c:	f104 0129 	add.w	r1, r4, #41	; 0x29
 280:	f884 0028 	strb.w	r0, [r4, #40]	; 0x28
 284:	6220      	str	r0, [r4, #32]
 286:	e9c4 b12a 	strd	fp, r1, [r4, #168]	; 0xa8
 28a:	f10b 0501 	add.w	r5, fp, #1
 28e:	f8c4 50a8 	str.w	r5, [r4, #168]	; 0xa8
 292:	f89b 0000 	ldrb.w	r0, [fp]
 296:	e9dd 6905 	ldrd	r6, r9, [sp, #20]
 29a:	f8dd b00c 	ldr.w	fp, [sp, #12]
 29e:	ea4f 2800 	mov.w	r8, r0, lsl #8
 2a2:	428d      	cmp	r5, r1
 2a4:	d316      	bcc.n	2d4 <_ZL15stbi__info_mainP13stbi__contextPiS1_S1_+0x2d4>
 2a6:	6a20      	ldr	r0, [r4, #32]
 2a8:	b150      	cbz	r0, 2c0 <_ZL15stbi__info_mainP13stbi__contextPiS1_S1_+0x2c0>
 2aa:	f104 0528 	add.w	r5, r4, #40	; 0x28
 2ae:	6923      	ldr	r3, [r4, #16]
 2b0:	69e0      	ldr	r0, [r4, #28]
 2b2:	6a62      	ldr	r2, [r4, #36]	; 0x24
 2b4:	4629      	mov	r1, r5
 2b6:	4798      	blx	r3
 2b8:	b120      	cbz	r0, 2c4 <_ZL15stbi__info_mainP13stbi__contextPiS1_S1_+0x2c4>
 2ba:	4420      	add	r0, r4
 2bc:	3028      	adds	r0, #40	; 0x28
 2be:	e007      	b.n	2d0 <_ZL15stbi__info_mainP13stbi__contextPiS1_S1_+0x2d0>
 2c0:	2000      	movs	r0, #0
 2c2:	e00b      	b.n	2dc <_ZL15stbi__info_mainP13stbi__contextPiS1_S1_+0x2dc>
 2c4:	2000      	movs	r0, #0
 2c6:	f884 0028 	strb.w	r0, [r4, #40]	; 0x28
 2ca:	6220      	str	r0, [r4, #32]
 2cc:	f104 0029 	add.w	r0, r4, #41	; 0x29
 2d0:	e9c4 502a 	strd	r5, r0, [r4, #168]	; 0xa8
 2d4:	1c68      	adds	r0, r5, #1
 2d6:	f8c4 00a8 	str.w	r0, [r4, #168]	; 0xa8
 2da:	7828      	ldrb	r0, [r5, #0]
 2dc:	ea40 0008 	orr.w	r0, r0, r8
 2e0:	2810      	cmp	r0, #16
 2e2:	f200 80aa 	bhi.w	43a <_ZL15stbi__info_mainP13stbi__contextPiS1_S1_+0x43a>
 2e6:	4620      	mov	r0, r4
 2e8:	f7ff fffe 	bl	0 <_ZL15stbi__info_mainP13stbi__contextPiS1_S1_>
 2ec:	9904      	ldr	r1, [sp, #16]
 2ee:	6008      	str	r0, [r1, #0]
 2f0:	4620      	mov	r0, r4
 2f2:	f7ff fffe 	bl	0 <_ZL15stbi__info_mainP13stbi__contextPiS1_S1_>
 2f6:	9907      	ldr	r1, [sp, #28]
 2f8:	6008      	str	r0, [r1, #0]
 2fa:	e9d4 502a 	ldrd	r5, r0, [r4, #168]	; 0xa8
 2fe:	4285      	cmp	r5, r0
 300:	d201      	bcs.n	306 <_ZL15stbi__info_mainP13stbi__contextPiS1_S1_+0x306>
 302:	46ab      	mov	fp, r5
 304:	e016      	b.n	334 <_ZL15stbi__info_mainP13stbi__contextPiS1_S1_+0x334>
 306:	6a21      	ldr	r1, [r4, #32]
 308:	b151      	cbz	r1, 320 <_ZL15stbi__info_mainP13stbi__contextPiS1_S1_+0x320>
 30a:	f104 0b28 	add.w	fp, r4, #40	; 0x28
 30e:	6923      	ldr	r3, [r4, #16]
 310:	69e0      	ldr	r0, [r4, #28]
 312:	6a62      	ldr	r2, [r4, #36]	; 0x24
 314:	4659      	mov	r1, fp
 316:	4798      	blx	r3
 318:	b120      	cbz	r0, 324 <_ZL15stbi__info_mainP13stbi__contextPiS1_S1_+0x324>
 31a:	4420      	add	r0, r4
 31c:	3028      	adds	r0, #40	; 0x28
 31e:	e007      	b.n	330 <_ZL15stbi__info_mainP13stbi__contextPiS1_S1_+0x330>
 320:	2100      	movs	r1, #0
 322:	e011      	b.n	348 <_ZL15stbi__info_mainP13stbi__contextPiS1_S1_+0x348>
 324:	2000      	movs	r0, #0
 326:	f884 0028 	strb.w	r0, [r4, #40]	; 0x28
 32a:	6220      	str	r0, [r4, #32]
 32c:	f104 0029 	add.w	r0, r4, #41	; 0x29
 330:	e9c4 b02a 	strd	fp, r0, [r4, #168]	; 0xa8
 334:	f10b 0501 	add.w	r5, fp, #1
 338:	f8c4 50a8 	str.w	r5, [r4, #168]	; 0xa8
 33c:	f89b 1000 	ldrb.w	r1, [fp]
 340:	e9dd 6905 	ldrd	r6, r9, [sp, #20]
 344:	f8dd b00c 	ldr.w	fp, [sp, #12]
 348:	ea4f 2801 	mov.w	r8, r1, lsl #8
 34c:	4285      	cmp	r5, r0
 34e:	d201      	bcs.n	354 <_ZL15stbi__info_mainP13stbi__contextPiS1_S1_+0x354>
 350:	46ab      	mov	fp, r5
 352:	e016      	b.n	382 <_ZL15stbi__info_mainP13stbi__contextPiS1_S1_+0x382>
 354:	6a21      	ldr	r1, [r4, #32]
 356:	b151      	cbz	r1, 36e <_ZL15stbi__info_mainP13stbi__contextPiS1_S1_+0x36e>
 358:	f104 0b28 	add.w	fp, r4, #40	; 0x28
 35c:	6923      	ldr	r3, [r4, #16]
 35e:	69e0      	ldr	r0, [r4, #28]
 360:	6a62      	ldr	r2, [r4, #36]	; 0x24
 362:	4659      	mov	r1, fp
 364:	4798      	blx	r3
 366:	b120      	cbz	r0, 372 <_ZL15stbi__info_mainP13stbi__contextPiS1_S1_+0x372>
 368:	4420      	add	r0, r4
 36a:	3028      	adds	r0, #40	; 0x28
 36c:	e007      	b.n	37e <_ZL15stbi__info_mainP13stbi__contextPiS1_S1_+0x37e>
 36e:	2100      	movs	r1, #0
 370:	e011      	b.n	396 <_ZL15stbi__info_mainP13stbi__contextPiS1_S1_+0x396>
 372:	2000      	movs	r0, #0
 374:	f884 0028 	strb.w	r0, [r4, #40]	; 0x28
 378:	6220      	str	r0, [r4, #32]
 37a:	f104 0029 	add.w	r0, r4, #41	; 0x29
 37e:	e9c4 b02a 	strd	fp, r0, [r4, #168]	; 0xa8
 382:	f10b 0501 	add.w	r5, fp, #1
 386:	f8c4 50a8 	str.w	r5, [r4, #168]	; 0xa8
 38a:	f89b 1000 	ldrb.w	r1, [fp]
 38e:	e9dd 6905 	ldrd	r6, r9, [sp, #20]
 392:	f8dd b00c 	ldr.w	fp, [sp, #12]
 396:	ea41 0108 	orr.w	r1, r1, r8
 39a:	2910      	cmp	r1, #16
 39c:	bf18      	it	ne
 39e:	2908      	cmpne	r1, #8
 3a0:	d14b      	bne.n	43a <_ZL15stbi__info_mainP13stbi__contextPiS1_S1_+0x43a>
 3a2:	4285      	cmp	r5, r0
 3a4:	d201      	bcs.n	3aa <_ZL15stbi__info_mainP13stbi__contextPiS1_S1_+0x3aa>
 3a6:	46ab      	mov	fp, r5
 3a8:	e016      	b.n	3d8 <_ZL15stbi__info_mainP13stbi__contextPiS1_S1_+0x3d8>
 3aa:	6a21      	ldr	r1, [r4, #32]
 3ac:	b151      	cbz	r1, 3c4 <_ZL15stbi__info_mainP13stbi__contextPiS1_S1_+0x3c4>
 3ae:	f104 0b28 	add.w	fp, r4, #40	; 0x28
 3b2:	6923      	ldr	r3, [r4, #16]
 3b4:	69e0      	ldr	r0, [r4, #28]
 3b6:	6a62      	ldr	r2, [r4, #36]	; 0x24
 3b8:	4659      	mov	r1, fp
 3ba:	4798      	blx	r3
 3bc:	b120      	cbz	r0, 3c8 <_ZL15stbi__info_mainP13stbi__contextPiS1_S1_+0x3c8>
 3be:	4420      	add	r0, r4
 3c0:	3028      	adds	r0, #40	; 0x28
 3c2:	e007      	b.n	3d4 <_ZL15stbi__info_mainP13stbi__contextPiS1_S1_+0x3d4>
 3c4:	2100      	movs	r1, #0
 3c6:	e011      	b.n	3ec <_ZL15stbi__info_mainP13stbi__contextPiS1_S1_+0x3ec>
 3c8:	2000      	movs	r0, #0
 3ca:	f884 0028 	strb.w	r0, [r4, #40]	; 0x28
 3ce:	6220      	str	r0, [r4, #32]
 3d0:	f104 0029 	add.w	r0, r4, #41	; 0x29
 3d4:	e9c4 b02a 	strd	fp, r0, [r4, #168]	; 0xa8
 3d8:	f10b 0501 	add.w	r5, fp, #1
 3dc:	f8c4 50a8 	str.w	r5, [r4, #168]	; 0xa8
 3e0:	f89b 1000 	ldrb.w	r1, [fp]
 3e4:	e9dd 6905 	ldrd	r6, r9, [sp, #20]
 3e8:	f8dd b00c 	ldr.w	fp, [sp, #12]
 3ec:	ea4f 2801 	mov.w	r8, r1, lsl #8
 3f0:	4285      	cmp	r5, r0
 3f2:	d316      	bcc.n	422 <_ZL15stbi__info_mainP13stbi__contextPiS1_S1_+0x422>
 3f4:	6a20      	ldr	r0, [r4, #32]
 3f6:	b150      	cbz	r0, 40e <_ZL15stbi__info_mainP13stbi__contextPiS1_S1_+0x40e>
 3f8:	f104 0528 	add.w	r5, r4, #40	; 0x28
 3fc:	6923      	ldr	r3, [r4, #16]
 3fe:	69e0      	ldr	r0, [r4, #28]
 400:	6a62      	ldr	r2, [r4, #36]	; 0x24
 402:	4629      	mov	r1, r5
 404:	4798      	blx	r3
 406:	b120      	cbz	r0, 412 <_ZL15stbi__info_mainP13stbi__contextPiS1_S1_+0x412>
 408:	4420      	add	r0, r4
 40a:	3028      	adds	r0, #40	; 0x28
 40c:	e007      	b.n	41e <_ZL15stbi__info_mainP13stbi__contextPiS1_S1_+0x41e>
 40e:	2000      	movs	r0, #0
 410:	e00b      	b.n	42a <_ZL15stbi__info_mainP13stbi__contextPiS1_S1_+0x42a>
 412:	2000      	movs	r0, #0
 414:	f884 0028 	strb.w	r0, [r4, #40]	; 0x28
 418:	6220      	str	r0, [r4, #32]
 41a:	f104 0029 	add.w	r0, r4, #41	; 0x29
 41e:	e9c4 502a 	strd	r5, r0, [r4, #168]	; 0xa8
 422:	1c68      	adds	r0, r5, #1
 424:	f8c4 00a8 	str.w	r0, [r4, #168]	; 0xa8
 428:	7828      	ldrb	r0, [r5, #0]
 42a:	ea40 0008 	orr.w	r0, r0, r8
 42e:	2803      	cmp	r0, #3
 430:	d103      	bne.n	43a <_ZL15stbi__info_mainP13stbi__contextPiS1_S1_+0x43a>
 432:	2004      	movs	r0, #4
 434:	f8cb 0000 	str.w	r0, [fp]
 438:	e63b      	b.n	b2 <_ZL15stbi__info_mainP13stbi__contextPiS1_S1_+0xb2>
 43a:	e9d4 022c 	ldrd	r0, r2, [r4, #176]	; 0xb0
 43e:	f1ba 0f00 	cmp.w	sl, #0
 442:	e9c4 022a 	strd	r0, r2, [r4, #168]	; 0xa8
 446:	a80a      	add	r0, sp, #40	; 0x28
 448:	f8df 1a10 	ldr.w	r1, [pc, #2576]	; e5c <_ZL15stbi__info_mainP13stbi__contextPiS1_S1_+0xe5c>
 44c:	4652      	mov	r2, sl
 44e:	bf08      	it	eq
 450:	4602      	moveq	r2, r0
 452:	f1b9 0f00 	cmp.w	r9, #0
 456:	9203      	str	r2, [sp, #12]
 458:	bf08      	it	eq
 45a:	4681      	moveq	r9, r0
 45c:	4479      	add	r1, pc
 45e:	2e00      	cmp	r6, #0
 460:	46b3      	mov	fp, r6
 462:	bf08      	it	eq
 464:	4683      	moveq	fp, r0
 466:	4620      	mov	r0, r4
 468:	f7ff fffe 	bl	0 <_ZL15stbi__info_mainP13stbi__contextPiS1_S1_>
 46c:	2800      	cmp	r0, #0
 46e:	f000 816c 	beq.w	74a <_ZL15stbi__info_mainP13stbi__contextPiS1_S1_+0x74a>
 472:	6920      	ldr	r0, [r4, #16]
 474:	b170      	cbz	r0, 494 <_ZL15stbi__info_mainP13stbi__contextPiS1_S1_+0x494>
 476:	e9d4 022a 	ldrd	r0, r2, [r4, #168]	; 0xa8
 47a:	1a11      	subs	r1, r2, r0
 47c:	2957      	cmp	r1, #87	; 0x57
 47e:	dc0b      	bgt.n	498 <_ZL15stbi__info_mainP13stbi__contextPiS1_S1_+0x498>
 480:	6963      	ldr	r3, [r4, #20]
 482:	f1c1 0158 	rsb	r1, r1, #88	; 0x58
 486:	69e0      	ldr	r0, [r4, #28]
 488:	f8c4 20a8 	str.w	r2, [r4, #168]	; 0xa8
 48c:	4798      	blx	r3
 48e:	f8d4 10a8 	ldr.w	r1, [r4, #168]	; 0xa8
 492:	e005      	b.n	4a0 <_ZL15stbi__info_mainP13stbi__contextPiS1_S1_+0x4a0>
 494:	f8d4 00a8 	ldr.w	r0, [r4, #168]	; 0xa8
 498:	f100 0158 	add.w	r1, r0, #88	; 0x58
 49c:	f8c4 10a8 	str.w	r1, [r4, #168]	; 0xa8
 4a0:	f8d4 00ac 	ldr.w	r0, [r4, #172]	; 0xac
 4a4:	4281      	cmp	r1, r0
 4a6:	d201      	bcs.n	4ac <_ZL15stbi__info_mainP13stbi__contextPiS1_S1_+0x4ac>
 4a8:	460d      	mov	r5, r1
 4aa:	e016      	b.n	4da <_ZL15stbi__info_mainP13stbi__contextPiS1_S1_+0x4da>
 4ac:	6a22      	ldr	r2, [r4, #32]
 4ae:	b152      	cbz	r2, 4c6 <_ZL15stbi__info_mainP13stbi__contextPiS1_S1_+0x4c6>
 4b0:	f104 0528 	add.w	r5, r4, #40	; 0x28
 4b4:	6923      	ldr	r3, [r4, #16]
 4b6:	69e0      	ldr	r0, [r4, #28]
 4b8:	6a62      	ldr	r2, [r4, #36]	; 0x24
 4ba:	4629      	mov	r1, r5
 4bc:	4798      	blx	r3
 4be:	b120      	cbz	r0, 4ca <_ZL15stbi__info_mainP13stbi__contextPiS1_S1_+0x4ca>
 4c0:	4420      	add	r0, r4
 4c2:	3028      	adds	r0, #40	; 0x28
 4c4:	e007      	b.n	4d6 <_ZL15stbi__info_mainP13stbi__contextPiS1_S1_+0x4d6>
 4c6:	2200      	movs	r2, #0
 4c8:	e00b      	b.n	4e2 <_ZL15stbi__info_mainP13stbi__contextPiS1_S1_+0x4e2>
 4ca:	2000      	movs	r0, #0
 4cc:	f884 0028 	strb.w	r0, [r4, #40]	; 0x28
 4d0:	6220      	str	r0, [r4, #32]
 4d2:	f104 0029 	add.w	r0, r4, #41	; 0x29
 4d6:	e9c4 502a 	strd	r5, r0, [r4, #168]	; 0xa8
 4da:	1c69      	adds	r1, r5, #1
 4dc:	f8c4 10a8 	str.w	r1, [r4, #168]	; 0xa8
 4e0:	782a      	ldrb	r2, [r5, #0]
 4e2:	0216      	lsls	r6, r2, #8
 4e4:	4281      	cmp	r1, r0
 4e6:	d201      	bcs.n	4ec <_ZL15stbi__info_mainP13stbi__contextPiS1_S1_+0x4ec>
 4e8:	460d      	mov	r5, r1
 4ea:	e016      	b.n	51a <_ZL15stbi__info_mainP13stbi__contextPiS1_S1_+0x51a>
 4ec:	6a22      	ldr	r2, [r4, #32]
 4ee:	b152      	cbz	r2, 506 <_ZL15stbi__info_mainP13stbi__contextPiS1_S1_+0x506>
 4f0:	f104 0528 	add.w	r5, r4, #40	; 0x28
 4f4:	6923      	ldr	r3, [r4, #16]
 4f6:	69e0      	ldr	r0, [r4, #28]
 4f8:	6a62      	ldr	r2, [r4, #36]	; 0x24
 4fa:	4629      	mov	r1, r5
 4fc:	4798      	blx	r3
 4fe:	b120      	cbz	r0, 50a <_ZL15stbi__info_mainP13stbi__contextPiS1_S1_+0x50a>
 500:	4420      	add	r0, r4
 502:	3028      	adds	r0, #40	; 0x28
 504:	e007      	b.n	516 <_ZL15stbi__info_mainP13stbi__contextPiS1_S1_+0x516>
 506:	2200      	movs	r2, #0
 508:	e00b      	b.n	522 <_ZL15stbi__info_mainP13stbi__contextPiS1_S1_+0x522>
 50a:	2000      	movs	r0, #0
 50c:	f884 0028 	strb.w	r0, [r4, #40]	; 0x28
 510:	6220      	str	r0, [r4, #32]
 512:	f104 0029 	add.w	r0, r4, #41	; 0x29
 516:	e9c4 502a 	strd	r5, r0, [r4, #168]	; 0xa8
 51a:	1c69      	adds	r1, r5, #1
 51c:	f8c4 10a8 	str.w	r1, [r4, #168]	; 0xa8
 520:	782a      	ldrb	r2, [r5, #0]
 522:	4281      	cmp	r1, r0
 524:	ea42 0206 	orr.w	r2, r2, r6
 528:	f8cb 2000 	str.w	r2, [fp]
 52c:	d201      	bcs.n	532 <_ZL15stbi__info_mainP13stbi__contextPiS1_S1_+0x532>
 52e:	460d      	mov	r5, r1
 530:	e016      	b.n	560 <_ZL15stbi__info_mainP13stbi__contextPiS1_S1_+0x560>
 532:	6a22      	ldr	r2, [r4, #32]
 534:	b152      	cbz	r2, 54c <_ZL15stbi__info_mainP13stbi__contextPiS1_S1_+0x54c>
 536:	f104 0528 	add.w	r5, r4, #40	; 0x28
 53a:	6923      	ldr	r3, [r4, #16]
 53c:	69e0      	ldr	r0, [r4, #28]
 53e:	6a62      	ldr	r2, [r4, #36]	; 0x24
 540:	4629      	mov	r1, r5
 542:	4798      	blx	r3
 544:	b120      	cbz	r0, 550 <_ZL15stbi__info_mainP13stbi__contextPiS1_S1_+0x550>
 546:	4420      	add	r0, r4
 548:	3028      	adds	r0, #40	; 0x28
 54a:	e007      	b.n	55c <_ZL15stbi__info_mainP13stbi__contextPiS1_S1_+0x55c>
 54c:	2200      	movs	r2, #0
 54e:	e00b      	b.n	568 <_ZL15stbi__info_mainP13stbi__contextPiS1_S1_+0x568>
 550:	2000      	movs	r0, #0
 552:	f884 0028 	strb.w	r0, [r4, #40]	; 0x28
 556:	6220      	str	r0, [r4, #32]
 558:	f104 0029 	add.w	r0, r4, #41	; 0x29
 55c:	e9c4 502a 	strd	r5, r0, [r4, #168]	; 0xa8
 560:	1c69      	adds	r1, r5, #1
 562:	f8c4 10a8 	str.w	r1, [r4, #168]	; 0xa8
 566:	782a      	ldrb	r2, [r5, #0]
 568:	0216      	lsls	r6, r2, #8
 56a:	4281      	cmp	r1, r0
 56c:	d201      	bcs.n	572 <_ZL15stbi__info_mainP13stbi__contextPiS1_S1_+0x572>
 56e:	460d      	mov	r5, r1
 570:	e016      	b.n	5a0 <_ZL15stbi__info_mainP13stbi__contextPiS1_S1_+0x5a0>
 572:	6a22      	ldr	r2, [r4, #32]
 574:	b152      	cbz	r2, 58c <_ZL15stbi__info_mainP13stbi__contextPiS1_S1_+0x58c>
 576:	f104 0528 	add.w	r5, r4, #40	; 0x28
 57a:	6923      	ldr	r3, [r4, #16]
 57c:	69e0      	ldr	r0, [r4, #28]
 57e:	6a62      	ldr	r2, [r4, #36]	; 0x24
 580:	4629      	mov	r1, r5
 582:	4798      	blx	r3
 584:	b120      	cbz	r0, 590 <_ZL15stbi__info_mainP13stbi__contextPiS1_S1_+0x590>
 586:	4420      	add	r0, r4
 588:	3028      	adds	r0, #40	; 0x28
 58a:	e007      	b.n	59c <_ZL15stbi__info_mainP13stbi__contextPiS1_S1_+0x59c>
 58c:	2200      	movs	r2, #0
 58e:	e00b      	b.n	5a8 <_ZL15stbi__info_mainP13stbi__contextPiS1_S1_+0x5a8>
 590:	2000      	movs	r0, #0
 592:	f884 0028 	strb.w	r0, [r4, #40]	; 0x28
 596:	6220      	str	r0, [r4, #32]
 598:	f104 0029 	add.w	r0, r4, #41	; 0x29
 59c:	e9c4 502a 	strd	r5, r0, [r4, #168]	; 0xa8
 5a0:	1c69      	adds	r1, r5, #1
 5a2:	f8c4 10a8 	str.w	r1, [r4, #168]	; 0xa8
 5a6:	782a      	ldrb	r2, [r5, #0]
 5a8:	4332      	orrs	r2, r6
 5aa:	f8c9 2000 	str.w	r2, [r9]
 5ae:	6922      	ldr	r2, [r4, #16]
 5b0:	b14a      	cbz	r2, 5c6 <_ZL15stbi__info_mainP13stbi__contextPiS1_S1_+0x5c6>
 5b2:	e9d4 1006 	ldrd	r1, r0, [r4, #24]
 5b6:	4788      	blx	r1
 5b8:	b140      	cbz	r0, 5cc <_ZL15stbi__info_mainP13stbi__contextPiS1_S1_+0x5cc>
 5ba:	6a20      	ldr	r0, [r4, #32]
 5bc:	2800      	cmp	r0, #0
 5be:	f000 80c4 	beq.w	74a <_ZL15stbi__info_mainP13stbi__contextPiS1_S1_+0x74a>
 5c2:	e9d4 102a 	ldrd	r1, r0, [r4, #168]	; 0xa8
 5c6:	4281      	cmp	r1, r0
 5c8:	f080 80bf 	bcs.w	74a <_ZL15stbi__info_mainP13stbi__contextPiS1_S1_+0x74a>
 5cc:	f8db 1000 	ldr.w	r1, [fp]
 5d0:	b141      	cbz	r1, 5e4 <_ZL15stbi__info_mainP13stbi__contextPiS1_S1_+0x5e4>
 5d2:	f04f 5080 	mov.w	r0, #268435456	; 0x10000000
 5d6:	f7ff fffe 	bl	0 <__aeabi_idiv>
 5da:	f8d9 1000 	ldr.w	r1, [r9]
 5de:	4288      	cmp	r0, r1
 5e0:	f2c0 80b3 	blt.w	74a <_ZL15stbi__info_mainP13stbi__contextPiS1_S1_+0x74a>
 5e4:	6920      	ldr	r0, [r4, #16]
 5e6:	b160      	cbz	r0, 602 <_ZL15stbi__info_mainP13stbi__contextPiS1_S1_+0x602>
 5e8:	e9d4 022a 	ldrd	r0, r2, [r4, #168]	; 0xa8
 5ec:	1a11      	subs	r1, r2, r0
 5ee:	2907      	cmp	r1, #7
 5f0:	dc09      	bgt.n	606 <_ZL15stbi__info_mainP13stbi__contextPiS1_S1_+0x606>
 5f2:	6963      	ldr	r3, [r4, #20]
 5f4:	f1c1 0108 	rsb	r1, r1, #8
 5f8:	69e0      	ldr	r0, [r4, #28]
 5fa:	f8c4 20a8 	str.w	r2, [r4, #168]	; 0xa8
 5fe:	4798      	blx	r3
 600:	e004      	b.n	60c <_ZL15stbi__info_mainP13stbi__contextPiS1_S1_+0x60c>
 602:	f8d4 00a8 	ldr.w	r0, [r4, #168]	; 0xa8
 606:	3008      	adds	r0, #8
 608:	f8c4 00a8 	str.w	r0, [r4, #168]	; 0xa8
 60c:	f104 0628 	add.w	r6, r4, #40	; 0x28
 610:	f04f 0b0b 	mov.w	fp, #11
 614:	2500      	movs	r5, #0
 616:	f104 0029 	add.w	r0, r4, #41	; 0x29
 61a:	9004      	str	r0, [sp, #16]
 61c:	9607      	str	r6, [sp, #28]
 61e:	f1bb 0b01 	subs.w	fp, fp, #1
 622:	f000 8096 	beq.w	752 <_ZL15stbi__info_mainP13stbi__contextPiS1_S1_+0x752>
 626:	e9d4 102a 	ldrd	r1, r0, [r4, #168]	; 0xa8
 62a:	4281      	cmp	r1, r0
 62c:	d201      	bcs.n	632 <_ZL15stbi__info_mainP13stbi__contextPiS1_S1_+0x632>
 62e:	460a      	mov	r2, r1
 630:	e026      	b.n	680 <_ZL15stbi__info_mainP13stbi__contextPiS1_S1_+0x680>
 632:	6a22      	ldr	r2, [r4, #32]
 634:	b142      	cbz	r2, 648 <_ZL15stbi__info_mainP13stbi__contextPiS1_S1_+0x648>
 636:	6923      	ldr	r3, [r4, #16]
 638:	4631      	mov	r1, r6
 63a:	69e0      	ldr	r0, [r4, #28]
 63c:	6a62      	ldr	r2, [r4, #36]	; 0x24
 63e:	4798      	blx	r3
 640:	b1b0      	cbz	r0, 670 <_ZL15stbi__info_mainP13stbi__contextPiS1_S1_+0x670>
 642:	4420      	add	r0, r4
 644:	3028      	adds	r0, #40	; 0x28
 646:	e018      	b.n	67a <_ZL15stbi__info_mainP13stbi__contextPiS1_S1_+0x67a>
 648:	f04f 0800 	mov.w	r8, #0
 64c:	4281      	cmp	r1, r0
 64e:	d31e      	bcc.n	68e <_ZL15stbi__info_mainP13stbi__contextPiS1_S1_+0x68e>
 650:	6a22      	ldr	r2, [r4, #32]
 652:	b142      	cbz	r2, 666 <_ZL15stbi__info_mainP13stbi__contextPiS1_S1_+0x666>
 654:	6923      	ldr	r3, [r4, #16]
 656:	4631      	mov	r1, r6
 658:	69e0      	ldr	r0, [r4, #28]
 65a:	6a62      	ldr	r2, [r4, #36]	; 0x24
 65c:	4798      	blx	r3
 65e:	b1c0      	cbz	r0, 692 <_ZL15stbi__info_mainP13stbi__contextPiS1_S1_+0x692>
 660:	4420      	add	r0, r4
 662:	3028      	adds	r0, #40	; 0x28
 664:	e01a      	b.n	69c <_ZL15stbi__info_mainP13stbi__contextPiS1_S1_+0x69c>
 666:	f04f 0900 	mov.w	r9, #0
 66a:	4281      	cmp	r1, r0
 66c:	d220      	bcs.n	6b0 <_ZL15stbi__info_mainP13stbi__contextPiS1_S1_+0x6b0>
 66e:	e032      	b.n	6d6 <_ZL15stbi__info_mainP13stbi__contextPiS1_S1_+0x6d6>
 670:	2000      	movs	r0, #0
 672:	f884 0028 	strb.w	r0, [r4, #40]	; 0x28
 676:	6220      	str	r0, [r4, #32]
 678:	9804      	ldr	r0, [sp, #16]
 67a:	4632      	mov	r2, r6
 67c:	e9c4 602a 	strd	r6, r0, [r4, #168]	; 0xa8
 680:	1c51      	adds	r1, r2, #1
 682:	f8c4 10a8 	str.w	r1, [r4, #168]	; 0xa8
 686:	f892 8000 	ldrb.w	r8, [r2]
 68a:	4281      	cmp	r1, r0
 68c:	d2e0      	bcs.n	650 <_ZL15stbi__info_mainP13stbi__contextPiS1_S1_+0x650>
 68e:	460a      	mov	r2, r1
 690:	e007      	b.n	6a2 <_ZL15stbi__info_mainP13stbi__contextPiS1_S1_+0x6a2>
 692:	2000      	movs	r0, #0
 694:	f884 0028 	strb.w	r0, [r4, #40]	; 0x28
 698:	6220      	str	r0, [r4, #32]
 69a:	9804      	ldr	r0, [sp, #16]
 69c:	4632      	mov	r2, r6
 69e:	e9c4 602a 	strd	r6, r0, [r4, #168]	; 0xa8
 6a2:	1c51      	adds	r1, r2, #1
 6a4:	f8c4 10a8 	str.w	r1, [r4, #168]	; 0xa8
 6a8:	f892 9000 	ldrb.w	r9, [r2]
 6ac:	4281      	cmp	r1, r0
 6ae:	d312      	bcc.n	6d6 <_ZL15stbi__info_mainP13stbi__contextPiS1_S1_+0x6d6>
 6b0:	6a22      	ldr	r2, [r4, #32]
 6b2:	b19a      	cbz	r2, 6dc <_ZL15stbi__info_mainP13stbi__contextPiS1_S1_+0x6dc>
 6b4:	6923      	ldr	r3, [r4, #16]
 6b6:	4631      	mov	r1, r6
 6b8:	69e0      	ldr	r0, [r4, #28]
 6ba:	6a62      	ldr	r2, [r4, #36]	; 0x24
 6bc:	4798      	blx	r3
 6be:	b110      	cbz	r0, 6c6 <_ZL15stbi__info_mainP13stbi__contextPiS1_S1_+0x6c6>
 6c0:	4420      	add	r0, r4
 6c2:	3028      	adds	r0, #40	; 0x28
 6c4:	e004      	b.n	6d0 <_ZL15stbi__info_mainP13stbi__contextPiS1_S1_+0x6d0>
 6c6:	2000      	movs	r0, #0
 6c8:	f884 0028 	strb.w	r0, [r4, #40]	; 0x28
 6cc:	6220      	str	r0, [r4, #32]
 6ce:	9804      	ldr	r0, [sp, #16]
 6d0:	4631      	mov	r1, r6
 6d2:	e9c4 602a 	strd	r6, r0, [r4, #168]	; 0xa8
 6d6:	3101      	adds	r1, #1
 6d8:	f8c4 10a8 	str.w	r1, [r4, #168]	; 0xa8
 6dc:	4281      	cmp	r1, r0
 6de:	d201      	bcs.n	6e4 <_ZL15stbi__info_mainP13stbi__contextPiS1_S1_+0x6e4>
 6e0:	460e      	mov	r6, r1
 6e2:	e013      	b.n	70c <_ZL15stbi__info_mainP13stbi__contextPiS1_S1_+0x70c>
 6e4:	6a22      	ldr	r2, [r4, #32]
 6e6:	b142      	cbz	r2, 6fa <_ZL15stbi__info_mainP13stbi__contextPiS1_S1_+0x6fa>
 6e8:	6923      	ldr	r3, [r4, #16]
 6ea:	4631      	mov	r1, r6
 6ec:	69e0      	ldr	r0, [r4, #28]
 6ee:	6a62      	ldr	r2, [r4, #36]	; 0x24
 6f0:	4798      	blx	r3
 6f2:	b120      	cbz	r0, 6fe <_ZL15stbi__info_mainP13stbi__contextPiS1_S1_+0x6fe>
 6f4:	4420      	add	r0, r4
 6f6:	3028      	adds	r0, #40	; 0x28
 6f8:	e006      	b.n	708 <_ZL15stbi__info_mainP13stbi__contextPiS1_S1_+0x708>
 6fa:	2600      	movs	r6, #0
 6fc:	e00a      	b.n	714 <_ZL15stbi__info_mainP13stbi__contextPiS1_S1_+0x714>
 6fe:	2000      	movs	r0, #0
 700:	f884 0028 	strb.w	r0, [r4, #40]	; 0x28
 704:	6220      	str	r0, [r4, #32]
 706:	9804      	ldr	r0, [sp, #16]
 708:	e9c4 602a 	strd	r6, r0, [r4, #168]	; 0xa8
 70c:	1c71      	adds	r1, r6, #1
 70e:	f8c4 10a8 	str.w	r1, [r4, #168]	; 0xa8
 712:	7836      	ldrb	r6, [r6, #0]
 714:	6922      	ldr	r2, [r4, #16]
 716:	b13a      	cbz	r2, 728 <_ZL15stbi__info_mainP13stbi__contextPiS1_S1_+0x728>
 718:	e9d4 1006 	ldrd	r1, r0, [r4, #24]
 71c:	4788      	blx	r1
 71e:	b128      	cbz	r0, 72c <_ZL15stbi__info_mainP13stbi__contextPiS1_S1_+0x72c>
 720:	6a20      	ldr	r0, [r4, #32]
 722:	b190      	cbz	r0, 74a <_ZL15stbi__info_mainP13stbi__contextPiS1_S1_+0x74a>
 724:	e9d4 102a 	ldrd	r1, r0, [r4, #168]	; 0xa8
 728:	4281      	cmp	r1, r0
 72a:	d20e      	bcs.n	74a <_ZL15stbi__info_mainP13stbi__contextPiS1_S1_+0x74a>
 72c:	f1b9 0f08 	cmp.w	r9, #8
 730:	d10b      	bne.n	74a <_ZL15stbi__info_mainP13stbi__contextPiS1_S1_+0x74a>
 732:	4335      	orrs	r5, r6
 734:	9e07      	ldr	r6, [sp, #28]
 736:	f1b8 0f00 	cmp.w	r8, #0
 73a:	f47f af70 	bne.w	61e <_ZL15stbi__info_mainP13stbi__contextPiS1_S1_+0x61e>
 73e:	f3c5 1000 	ubfx	r0, r5, #4, #1
 742:	9903      	ldr	r1, [sp, #12]
 744:	3003      	adds	r0, #3
 746:	6008      	str	r0, [r1, #0]
 748:	e4b3      	b.n	b2 <_ZL15stbi__info_mainP13stbi__contextPiS1_S1_+0xb2>
 74a:	e9d4 012c 	ldrd	r0, r1, [r4, #176]	; 0xb0
 74e:	e9c4 012a 	strd	r0, r1, [r4, #168]	; 0xa8
 752:	9e05      	ldr	r6, [sp, #20]
 754:	4620      	mov	r0, r4
 756:	9d06      	ldr	r5, [sp, #24]
 758:	4653      	mov	r3, sl
 75a:	4631      	mov	r1, r6
 75c:	462a      	mov	r2, r5
 75e:	f7ff fffe 	bl	0 <_ZL15stbi__info_mainP13stbi__contextPiS1_S1_>
 762:	2800      	cmp	r0, #0
 764:	f47f aca5 	bne.w	b2 <_ZL15stbi__info_mainP13stbi__contextPiS1_S1_+0xb2>
 768:	f10d 0820 	add.w	r8, sp, #32
 76c:	f1ba 0f00 	cmp.w	sl, #0
 770:	46d1      	mov	r9, sl
 772:	4620      	mov	r0, r4
 774:	bf08      	it	eq
 776:	46c1      	moveq	r9, r8
 778:	2d00      	cmp	r5, #0
 77a:	bf08      	it	eq
 77c:	4645      	moveq	r5, r8
 77e:	2e00      	cmp	r6, #0
 780:	bf18      	it	ne
 782:	46b0      	movne	r8, r6
 784:	f7ff fffe 	bl	0 <_ZL15stbi__info_mainP13stbi__contextPiS1_S1_>
 788:	2800      	cmp	r0, #0
 78a:	f000 8141 	beq.w	a10 <_ZL15stbi__info_mainP13stbi__contextPiS1_S1_+0xa10>
 78e:	e9cd 5901 	strd	r5, r9, [sp, #4]
 792:	f104 0528 	add.w	r5, r4, #40	; 0x28
 796:	e9cd 8a03 	strd	r8, sl, [sp, #12]
 79a:	f04f 0900 	mov.w	r9, #0
 79e:	f240 38ff 	movw	r8, #1023	; 0x3ff
 7a2:	f04f 0b00 	mov.w	fp, #0
 7a6:	f104 0029 	add.w	r0, r4, #41	; 0x29
 7aa:	9007      	str	r0, [sp, #28]
 7ac:	e011      	b.n	7d2 <_ZL15stbi__info_mainP13stbi__contextPiS1_S1_+0x7d2>
 7ae:	f240 3aff 	movw	sl, #1023	; 0x3ff
 7b2:	f806 900a 	strb.w	r9, [r6, sl]
 7b6:	f89d 0028 	ldrb.w	r0, [sp, #40]	; 0x28
 7ba:	2800      	cmp	r0, #0
 7bc:	d079      	beq.n	8b2 <_ZL15stbi__info_mainP13stbi__contextPiS1_S1_+0x8b2>
 7be:	f8df 16b0 	ldr.w	r1, [pc, #1712]	; e70 <_ZL15stbi__info_mainP13stbi__contextPiS1_S1_+0xe70>
 7c2:	4630      	mov	r0, r6
 7c4:	4479      	add	r1, pc
 7c6:	f7ff fffe 	bl	0 <strcmp>
 7ca:	2800      	cmp	r0, #0
 7cc:	bf08      	it	eq
 7ce:	f04f 0b01 	moveq.w	fp, #1
 7d2:	f04f 0a00 	mov.w	sl, #0
 7d6:	e9d4 102a 	ldrd	r1, r0, [r4, #168]	; 0xa8
 7da:	4281      	cmp	r1, r0
 7dc:	d201      	bcs.n	7e2 <_ZL15stbi__info_mainP13stbi__contextPiS1_S1_+0x7e2>
 7de:	460a      	mov	r2, r1
 7e0:	e014      	b.n	80c <_ZL15stbi__info_mainP13stbi__contextPiS1_S1_+0x80c>
 7e2:	6a22      	ldr	r2, [r4, #32]
 7e4:	b142      	cbz	r2, 7f8 <_ZL15stbi__info_mainP13stbi__contextPiS1_S1_+0x7f8>
 7e6:	6923      	ldr	r3, [r4, #16]
 7e8:	4629      	mov	r1, r5
 7ea:	69e0      	ldr	r0, [r4, #28]
 7ec:	6a62      	ldr	r2, [r4, #36]	; 0x24
 7ee:	4798      	blx	r3
 7f0:	b120      	cbz	r0, 7fc <_ZL15stbi__info_mainP13stbi__contextPiS1_S1_+0x7fc>
 7f2:	4420      	add	r0, r4
 7f4:	3028      	adds	r0, #40	; 0x28
 7f6:	e006      	b.n	806 <_ZL15stbi__info_mainP13stbi__contextPiS1_S1_+0x806>
 7f8:	2600      	movs	r6, #0
 7fa:	e00b      	b.n	814 <_ZL15stbi__info_mainP13stbi__contextPiS1_S1_+0x814>
 7fc:	f884 9028 	strb.w	r9, [r4, #40]	; 0x28
 800:	f8c4 9020 	str.w	r9, [r4, #32]
 804:	9807      	ldr	r0, [sp, #28]
 806:	462a      	mov	r2, r5
 808:	e9c4 502a 	strd	r5, r0, [r4, #168]	; 0xa8
 80c:	1c51      	adds	r1, r2, #1
 80e:	f8c4 10a8 	str.w	r1, [r4, #168]	; 0xa8
 812:	7816      	ldrb	r6, [r2, #0]
 814:	6922      	ldr	r2, [r4, #16]
 816:	b13a      	cbz	r2, 828 <_ZL15stbi__info_mainP13stbi__contextPiS1_S1_+0x828>
 818:	e9d4 1006 	ldrd	r1, r0, [r4, #24]
 81c:	4788      	blx	r1
 81e:	b1a0      	cbz	r0, 84a <_ZL15stbi__info_mainP13stbi__contextPiS1_S1_+0x84a>
 820:	6a20      	ldr	r0, [r4, #32]
 822:	b1a8      	cbz	r0, 850 <_ZL15stbi__info_mainP13stbi__contextPiS1_S1_+0x850>
 824:	e9d4 102a 	ldrd	r1, r0, [r4, #168]	; 0xa8
 828:	4281      	cmp	r1, r0
 82a:	f04f 0000 	mov.w	r0, #0
 82e:	bf28      	it	cs
 830:	2001      	movcs	r0, #1
 832:	2e0a      	cmp	r6, #10
 834:	d00c      	beq.n	850 <_ZL15stbi__info_mainP13stbi__contextPiS1_S1_+0x850>
 836:	b958      	cbnz	r0, 850 <_ZL15stbi__info_mainP13stbi__contextPiS1_S1_+0x850>
 838:	a80a      	add	r0, sp, #40	; 0x28
 83a:	f800 600a 	strb.w	r6, [r0, sl]
 83e:	f10a 0a01 	add.w	sl, sl, #1
 842:	4606      	mov	r6, r0
 844:	45c2      	cmp	sl, r8
 846:	d1c6      	bne.n	7d6 <_ZL15stbi__info_mainP13stbi__contextPiS1_S1_+0x7d6>
 848:	e004      	b.n	854 <_ZL15stbi__info_mainP13stbi__contextPiS1_S1_+0x854>
 84a:	2000      	movs	r0, #0
 84c:	2e0a      	cmp	r6, #10
 84e:	d1f2      	bne.n	836 <_ZL15stbi__info_mainP13stbi__contextPiS1_S1_+0x836>
 850:	ae0a      	add	r6, sp, #40	; 0x28
 852:	e7ae      	b.n	7b2 <_ZL15stbi__info_mainP13stbi__contextPiS1_S1_+0x7b2>
 854:	6920      	ldr	r0, [r4, #16]
 856:	b130      	cbz	r0, 866 <_ZL15stbi__info_mainP13stbi__contextPiS1_S1_+0x866>
 858:	e9d4 1006 	ldrd	r1, r0, [r4, #24]
 85c:	4788      	blx	r1
 85e:	b1a0      	cbz	r0, 88a <_ZL15stbi__info_mainP13stbi__contextPiS1_S1_+0x88a>
 860:	6a20      	ldr	r0, [r4, #32]
 862:	2800      	cmp	r0, #0
 864:	d0a3      	beq.n	7ae <_ZL15stbi__info_mainP13stbi__contextPiS1_S1_+0x7ae>
 866:	e9d4 012a 	ldrd	r0, r1, [r4, #168]	; 0xa8
 86a:	4288      	cmp	r0, r1
 86c:	d29f      	bcs.n	7ae <_ZL15stbi__info_mainP13stbi__contextPiS1_S1_+0x7ae>
 86e:	4288      	cmp	r0, r1
 870:	d318      	bcc.n	8a4 <_ZL15stbi__info_mainP13stbi__contextPiS1_S1_+0x8a4>
 872:	6a20      	ldr	r0, [r4, #32]
 874:	2800      	cmp	r0, #0
 876:	d0ed      	beq.n	854 <_ZL15stbi__info_mainP13stbi__contextPiS1_S1_+0x854>
 878:	6923      	ldr	r3, [r4, #16]
 87a:	4629      	mov	r1, r5
 87c:	69e0      	ldr	r0, [r4, #28]
 87e:	6a62      	ldr	r2, [r4, #36]	; 0x24
 880:	4798      	blx	r3
 882:	b138      	cbz	r0, 894 <_ZL15stbi__info_mainP13stbi__contextPiS1_S1_+0x894>
 884:	4420      	add	r0, r4
 886:	3028      	adds	r0, #40	; 0x28
 888:	e009      	b.n	89e <_ZL15stbi__info_mainP13stbi__contextPiS1_S1_+0x89e>
 88a:	e9d4 012a 	ldrd	r0, r1, [r4, #168]	; 0xa8
 88e:	4288      	cmp	r0, r1
 890:	d2ef      	bcs.n	872 <_ZL15stbi__info_mainP13stbi__contextPiS1_S1_+0x872>
 892:	e007      	b.n	8a4 <_ZL15stbi__info_mainP13stbi__contextPiS1_S1_+0x8a4>
 894:	f884 9028 	strb.w	r9, [r4, #40]	; 0x28
 898:	f8c4 9020 	str.w	r9, [r4, #32]
 89c:	9807      	ldr	r0, [sp, #28]
 89e:	e9c4 502a 	strd	r5, r0, [r4, #168]	; 0xa8
 8a2:	4628      	mov	r0, r5
 8a4:	1c41      	adds	r1, r0, #1
 8a6:	f8c4 10a8 	str.w	r1, [r4, #168]	; 0xa8
 8aa:	7800      	ldrb	r0, [r0, #0]
 8ac:	280a      	cmp	r0, #10
 8ae:	d1d1      	bne.n	854 <_ZL15stbi__info_mainP13stbi__contextPiS1_S1_+0x854>
 8b0:	e77d      	b.n	7ae <_ZL15stbi__info_mainP13stbi__contextPiS1_S1_+0x7ae>
 8b2:	f1bb 0f00 	cmp.w	fp, #0
 8b6:	9609      	str	r6, [sp, #36]	; 0x24
 8b8:	d077      	beq.n	9aa <_ZL15stbi__info_mainP13stbi__contextPiS1_S1_+0x9aa>
 8ba:	f04f 0800 	mov.w	r8, #0
 8be:	f240 39ff 	movw	r9, #1023	; 0x3ff
 8c2:	2600      	movs	r6, #0
 8c4:	e9d4 102a 	ldrd	r1, r0, [r4, #168]	; 0xa8
 8c8:	4281      	cmp	r1, r0
 8ca:	d201      	bcs.n	8d0 <_ZL15stbi__info_mainP13stbi__contextPiS1_S1_+0x8d0>
 8cc:	460a      	mov	r2, r1
 8ce:	e015      	b.n	8fc <_ZL15stbi__info_mainP13stbi__contextPiS1_S1_+0x8fc>
 8d0:	6a22      	ldr	r2, [r4, #32]
 8d2:	b142      	cbz	r2, 8e6 <_ZL15stbi__info_mainP13stbi__contextPiS1_S1_+0x8e6>
 8d4:	6923      	ldr	r3, [r4, #16]
 8d6:	4629      	mov	r1, r5
 8d8:	69e0      	ldr	r0, [r4, #28]
 8da:	6a62      	ldr	r2, [r4, #36]	; 0x24
 8dc:	4798      	blx	r3
 8de:	b128      	cbz	r0, 8ec <_ZL15stbi__info_mainP13stbi__contextPiS1_S1_+0x8ec>
 8e0:	4420      	add	r0, r4
 8e2:	3028      	adds	r0, #40	; 0x28
 8e4:	e007      	b.n	8f6 <_ZL15stbi__info_mainP13stbi__contextPiS1_S1_+0x8f6>
 8e6:	f04f 0a00 	mov.w	sl, #0
 8ea:	e00c      	b.n	906 <_ZL15stbi__info_mainP13stbi__contextPiS1_S1_+0x906>
 8ec:	f884 8028 	strb.w	r8, [r4, #40]	; 0x28
 8f0:	f8c4 8020 	str.w	r8, [r4, #32]
 8f4:	9807      	ldr	r0, [sp, #28]
 8f6:	462a      	mov	r2, r5
 8f8:	e9c4 502a 	strd	r5, r0, [r4, #168]	; 0xa8
 8fc:	1c51      	adds	r1, r2, #1
 8fe:	f8c4 10a8 	str.w	r1, [r4, #168]	; 0xa8
 902:	f892 a000 	ldrb.w	sl, [r2]
 906:	6922      	ldr	r2, [r4, #16]
 908:	b142      	cbz	r2, 91c <_ZL15stbi__info_mainP13stbi__contextPiS1_S1_+0x91c>
 90a:	e9d4 1006 	ldrd	r1, r0, [r4, #24]
 90e:	4788      	blx	r1
 910:	b168      	cbz	r0, 92e <_ZL15stbi__info_mainP13stbi__contextPiS1_S1_+0x92e>
 912:	6a20      	ldr	r0, [r4, #32]
 914:	2800      	cmp	r0, #0
 916:	d051      	beq.n	9bc <_ZL15stbi__info_mainP13stbi__contextPiS1_S1_+0x9bc>
 918:	e9d4 102a 	ldrd	r1, r0, [r4, #168]	; 0xa8
 91c:	4281      	cmp	r1, r0
 91e:	f04f 0000 	mov.w	r0, #0
 922:	bf28      	it	cs
 924:	2001      	movcs	r0, #1
 926:	f1ba 0f0a 	cmp.w	sl, #10
 92a:	d104      	bne.n	936 <_ZL15stbi__info_mainP13stbi__contextPiS1_S1_+0x936>
 92c:	e046      	b.n	9bc <_ZL15stbi__info_mainP13stbi__contextPiS1_S1_+0x9bc>
 92e:	2000      	movs	r0, #0
 930:	f1ba 0f0a 	cmp.w	sl, #10
 934:	d042      	beq.n	9bc <_ZL15stbi__info_mainP13stbi__contextPiS1_S1_+0x9bc>
 936:	2800      	cmp	r0, #0
 938:	d140      	bne.n	9bc <_ZL15stbi__info_mainP13stbi__contextPiS1_S1_+0x9bc>
 93a:	a80a      	add	r0, sp, #40	; 0x28
 93c:	f800 a006 	strb.w	sl, [r0, r6]
 940:	3601      	adds	r6, #1
 942:	454e      	cmp	r6, r9
 944:	d1be      	bne.n	8c4 <_ZL15stbi__info_mainP13stbi__contextPiS1_S1_+0x8c4>
 946:	f8dd a010 	ldr.w	sl, [sp, #16]
 94a:	2600      	movs	r6, #0
 94c:	e9dd 9802 	ldrd	r9, r8, [sp, #8]
 950:	6920      	ldr	r0, [r4, #16]
 952:	b128      	cbz	r0, 960 <_ZL15stbi__info_mainP13stbi__contextPiS1_S1_+0x960>
 954:	e9d4 1006 	ldrd	r1, r0, [r4, #24]
 958:	4788      	blx	r1
 95a:	b130      	cbz	r0, 96a <_ZL15stbi__info_mainP13stbi__contextPiS1_S1_+0x96a>
 95c:	6a20      	ldr	r0, [r4, #32]
 95e:	b308      	cbz	r0, 9a4 <_ZL15stbi__info_mainP13stbi__contextPiS1_S1_+0x9a4>
 960:	e9d4 012a 	ldrd	r0, r1, [r4, #168]	; 0xa8
 964:	4288      	cmp	r0, r1
 966:	d302      	bcc.n	96e <_ZL15stbi__info_mainP13stbi__contextPiS1_S1_+0x96e>
 968:	e01c      	b.n	9a4 <_ZL15stbi__info_mainP13stbi__contextPiS1_S1_+0x9a4>
 96a:	e9d4 012a 	ldrd	r0, r1, [r4, #168]	; 0xa8
 96e:	4288      	cmp	r0, r1
 970:	d312      	bcc.n	998 <_ZL15stbi__info_mainP13stbi__contextPiS1_S1_+0x998>
 972:	6a20      	ldr	r0, [r4, #32]
 974:	2800      	cmp	r0, #0
 976:	d0eb      	beq.n	950 <_ZL15stbi__info_mainP13stbi__contextPiS1_S1_+0x950>
 978:	6923      	ldr	r3, [r4, #16]
 97a:	4629      	mov	r1, r5
 97c:	69e0      	ldr	r0, [r4, #28]
 97e:	6a62      	ldr	r2, [r4, #36]	; 0x24
 980:	4798      	blx	r3
 982:	b110      	cbz	r0, 98a <_ZL15stbi__info_mainP13stbi__contextPiS1_S1_+0x98a>
 984:	4420      	add	r0, r4
 986:	3028      	adds	r0, #40	; 0x28
 988:	e003      	b.n	992 <_ZL15stbi__info_mainP13stbi__contextPiS1_S1_+0x992>
 98a:	f884 6028 	strb.w	r6, [r4, #40]	; 0x28
 98e:	6226      	str	r6, [r4, #32]
 990:	9807      	ldr	r0, [sp, #28]
 992:	e9c4 502a 	strd	r5, r0, [r4, #168]	; 0xa8
 996:	4628      	mov	r0, r5
 998:	1c41      	adds	r1, r0, #1
 99a:	f8c4 10a8 	str.w	r1, [r4, #168]	; 0xa8
 99e:	7800      	ldrb	r0, [r0, #0]
 9a0:	280a      	cmp	r0, #10
 9a2:	d1d5      	bne.n	950 <_ZL15stbi__info_mainP13stbi__contextPiS1_S1_+0x950>
 9a4:	f240 36ff 	movw	r6, #1023	; 0x3ff
 9a8:	e00c      	b.n	9c4 <_ZL15stbi__info_mainP13stbi__contextPiS1_S1_+0x9c4>
 9aa:	e9d4 512c 	ldrd	r5, r1, [r4, #176]	; 0xb0
 9ae:	e9c4 512a 	strd	r5, r1, [r4, #168]	; 0xa8
 9b2:	f8dd a010 	ldr.w	sl, [sp, #16]
 9b6:	428d      	cmp	r5, r1
 9b8:	d34a      	bcc.n	a50 <_ZL15stbi__info_mainP13stbi__contextPiS1_S1_+0xa50>
 9ba:	e033      	b.n	a24 <_ZL15stbi__info_mainP13stbi__contextPiS1_S1_+0xa24>
 9bc:	f8dd a010 	ldr.w	sl, [sp, #16]
 9c0:	e9dd 9802 	ldrd	r9, r8, [sp, #8]
 9c4:	ad0a      	add	r5, sp, #40	; 0x28
 9c6:	2000      	movs	r0, #0
 9c8:	f20f 4194 	addw	r1, pc, #1172	; 0x494
 9cc:	2203      	movs	r2, #3
 9ce:	55a8      	strb	r0, [r5, r6]
 9d0:	4628      	mov	r0, r5
 9d2:	9509      	str	r5, [sp, #36]	; 0x24
 9d4:	f7ff fffe 	bl	0 <strncmp>
 9d8:	b9d0      	cbnz	r0, a10 <_ZL15stbi__info_mainP13stbi__contextPiS1_S1_+0xa10>
 9da:	1ce8      	adds	r0, r5, #3
 9dc:	a909      	add	r1, sp, #36	; 0x24
 9de:	220a      	movs	r2, #10
 9e0:	9009      	str	r0, [sp, #36]	; 0x24
 9e2:	f7ff fffe 	bl	0 <strtol>
 9e6:	9901      	ldr	r1, [sp, #4]
 9e8:	6008      	str	r0, [r1, #0]
 9ea:	9d09      	ldr	r5, [sp, #36]	; 0x24
 9ec:	7828      	ldrb	r0, [r5, #0]
 9ee:	2820      	cmp	r0, #32
 9f0:	d104      	bne.n	9fc <_ZL15stbi__info_mainP13stbi__contextPiS1_S1_+0x9fc>
 9f2:	f815 0f01 	ldrb.w	r0, [r5, #1]!
 9f6:	2820      	cmp	r0, #32
 9f8:	d0fb      	beq.n	9f2 <_ZL15stbi__info_mainP13stbi__contextPiS1_S1_+0x9f2>
 9fa:	9509      	str	r5, [sp, #36]	; 0x24
 9fc:	f20f 4164 	addw	r1, pc, #1124	; 0x464
 a00:	4628      	mov	r0, r5
 a02:	2203      	movs	r2, #3
 a04:	2603      	movs	r6, #3
 a06:	f7ff fffe 	bl	0 <strncmp>
 a0a:	2800      	cmp	r0, #0
 a0c:	f000 80ba 	beq.w	b84 <_ZL15stbi__info_mainP13stbi__contextPiS1_S1_+0xb84>
 a10:	f8d4 50b0 	ldr.w	r5, [r4, #176]	; 0xb0
 a14:	f8d4 10b4 	ldr.w	r1, [r4, #180]	; 0xb4
 a18:	f8c4 50a8 	str.w	r5, [r4, #168]	; 0xa8
 a1c:	f8c4 10ac 	str.w	r1, [r4, #172]	; 0xac
 a20:	428d      	cmp	r5, r1
 a22:	d315      	bcc.n	a50 <_ZL15stbi__info_mainP13stbi__contextPiS1_S1_+0xa50>
 a24:	6a20      	ldr	r0, [r4, #32]
 a26:	b1b0      	cbz	r0, a56 <_ZL15stbi__info_mainP13stbi__contextPiS1_S1_+0xa56>
 a28:	f104 0528 	add.w	r5, r4, #40	; 0x28
 a2c:	6923      	ldr	r3, [r4, #16]
 a2e:	69e0      	ldr	r0, [r4, #28]
 a30:	6a62      	ldr	r2, [r4, #36]	; 0x24
 a32:	4629      	mov	r1, r5
 a34:	4798      	blx	r3
 a36:	b118      	cbz	r0, a40 <_ZL15stbi__info_mainP13stbi__contextPiS1_S1_+0xa40>
 a38:	4420      	add	r0, r4
 a3a:	f100 0128 	add.w	r1, r0, #40	; 0x28
 a3e:	e005      	b.n	a4c <_ZL15stbi__info_mainP13stbi__contextPiS1_S1_+0xa4c>
 a40:	2000      	movs	r0, #0
 a42:	f104 0129 	add.w	r1, r4, #41	; 0x29
 a46:	f884 0028 	strb.w	r0, [r4, #40]	; 0x28
 a4a:	6220      	str	r0, [r4, #32]
 a4c:	e9c4 512a 	strd	r5, r1, [r4, #168]	; 0xa8
 a50:	3501      	adds	r5, #1
 a52:	f8c4 50a8 	str.w	r5, [r4, #168]	; 0xa8
 a56:	428d      	cmp	r5, r1
 a58:	d201      	bcs.n	a5e <_ZL15stbi__info_mainP13stbi__contextPiS1_S1_+0xa5e>
 a5a:	46a9      	mov	r9, r5
 a5c:	e026      	b.n	aac <_ZL15stbi__info_mainP13stbi__contextPiS1_S1_+0xaac>
 a5e:	6a20      	ldr	r0, [r4, #32]
 a60:	b158      	cbz	r0, a7a <_ZL15stbi__info_mainP13stbi__contextPiS1_S1_+0xa7a>
 a62:	f104 0928 	add.w	r9, r4, #40	; 0x28
 a66:	6923      	ldr	r3, [r4, #16]
 a68:	69e0      	ldr	r0, [r4, #28]
 a6a:	6a62      	ldr	r2, [r4, #36]	; 0x24
 a6c:	4649      	mov	r1, r9
 a6e:	4798      	blx	r3
 a70:	b1a0      	cbz	r0, a9c <_ZL15stbi__info_mainP13stbi__contextPiS1_S1_+0xa9c>
 a72:	4420      	add	r0, r4
 a74:	f100 0128 	add.w	r1, r0, #40	; 0x28
 a78:	e016      	b.n	aa8 <_ZL15stbi__info_mainP13stbi__contextPiS1_S1_+0xaa8>
 a7a:	2600      	movs	r6, #0
 a7c:	428d      	cmp	r5, r1
 a7e:	d320      	bcc.n	ac2 <_ZL15stbi__info_mainP13stbi__contextPiS1_S1_+0xac2>
 a80:	6a20      	ldr	r0, [r4, #32]
 a82:	b300      	cbz	r0, ac6 <_ZL15stbi__info_mainP13stbi__contextPiS1_S1_+0xac6>
 a84:	f104 0928 	add.w	r9, r4, #40	; 0x28
 a88:	6923      	ldr	r3, [r4, #16]
 a8a:	69e0      	ldr	r0, [r4, #28]
 a8c:	6a62      	ldr	r2, [r4, #36]	; 0x24
 a8e:	4649      	mov	r1, r9
 a90:	4798      	blx	r3
 a92:	b3e0      	cbz	r0, b0e <_ZL15stbi__info_mainP13stbi__contextPiS1_S1_+0xb0e>
 a94:	4420      	add	r0, r4
 a96:	f100 0128 	add.w	r1, r0, #40	; 0x28
 a9a:	e03e      	b.n	b1a <_ZL15stbi__info_mainP13stbi__contextPiS1_S1_+0xb1a>
 a9c:	2000      	movs	r0, #0
 a9e:	f104 0129 	add.w	r1, r4, #41	; 0x29
 aa2:	f884 0028 	strb.w	r0, [r4, #40]	; 0x28
 aa6:	6220      	str	r0, [r4, #32]
 aa8:	e9c4 912a 	strd	r9, r1, [r4, #168]	; 0xa8
 aac:	f109 0501 	add.w	r5, r9, #1
 ab0:	f8c4 50a8 	str.w	r5, [r4, #168]	; 0xa8
 ab4:	f899 6000 	ldrb.w	r6, [r9]
 ab8:	2e01      	cmp	r6, #1
 aba:	f200 81a9 	bhi.w	e10 <_ZL15stbi__info_mainP13stbi__contextPiS1_S1_+0xe10>
 abe:	428d      	cmp	r5, r1
 ac0:	d2de      	bcs.n	a80 <_ZL15stbi__info_mainP13stbi__contextPiS1_S1_+0xa80>
 ac2:	46a9      	mov	r9, r5
 ac4:	e02b      	b.n	b1e <_ZL15stbi__info_mainP13stbi__contextPiS1_S1_+0xb1e>
 ac6:	f04f 0b00 	mov.w	fp, #0
 aca:	2e01      	cmp	r6, #1
 acc:	d02f      	beq.n	b2e <_ZL15stbi__info_mainP13stbi__contextPiS1_S1_+0xb2e>
 ace:	f1bb 0f0b 	cmp.w	fp, #11
 ad2:	f200 819d 	bhi.w	e10 <_ZL15stbi__info_mainP13stbi__contextPiS1_S1_+0xe10>
 ad6:	2001      	movs	r0, #1
 ad8:	f640 420c 	movw	r2, #3084	; 0xc0c
 adc:	fa00 f00b 	lsl.w	r0, r0, fp
 ae0:	4210      	tst	r0, r2
 ae2:	f000 8195 	beq.w	e10 <_ZL15stbi__info_mainP13stbi__contextPiS1_S1_+0xe10>
 ae6:	6920      	ldr	r0, [r4, #16]
 ae8:	b150      	cbz	r0, b00 <_ZL15stbi__info_mainP13stbi__contextPiS1_S1_+0xb00>
 aea:	1b4a      	subs	r2, r1, r5
 aec:	2a08      	cmp	r2, #8
 aee:	dc07      	bgt.n	b00 <_ZL15stbi__info_mainP13stbi__contextPiS1_S1_+0xb00>
 af0:	6963      	ldr	r3, [r4, #20]
 af2:	69e0      	ldr	r0, [r4, #28]
 af4:	f8c4 10a8 	str.w	r1, [r4, #168]	; 0xa8
 af8:	f1c2 0109 	rsb	r1, r2, #9
 afc:	4798      	blx	r3
 afe:	e003      	b.n	b08 <_ZL15stbi__info_mainP13stbi__contextPiS1_S1_+0xb08>
 b00:	f105 0009 	add.w	r0, r5, #9
 b04:	f8c4 00a8 	str.w	r0, [r4, #168]	; 0xa8
 b08:	2000      	movs	r0, #0
 b0a:	9007      	str	r0, [sp, #28]
 b0c:	e074      	b.n	bf8 <_ZL15stbi__info_mainP13stbi__contextPiS1_S1_+0xbf8>
 b0e:	2000      	movs	r0, #0
 b10:	f104 0129 	add.w	r1, r4, #41	; 0x29
 b14:	f884 0028 	strb.w	r0, [r4, #40]	; 0x28
 b18:	6220      	str	r0, [r4, #32]
 b1a:	e9c4 912a 	strd	r9, r1, [r4, #168]	; 0xa8
 b1e:	f109 0501 	add.w	r5, r9, #1
 b22:	f8c4 50a8 	str.w	r5, [r4, #168]	; 0xa8
 b26:	f899 b000 	ldrb.w	fp, [r9]
 b2a:	2e01      	cmp	r6, #1
 b2c:	d1cf      	bne.n	ace <_ZL15stbi__info_mainP13stbi__contextPiS1_S1_+0xace>
 b2e:	f04b 0008 	orr.w	r0, fp, #8
 b32:	2809      	cmp	r0, #9
 b34:	f040 816c 	bne.w	e10 <_ZL15stbi__info_mainP13stbi__contextPiS1_S1_+0xe10>
 b38:	6920      	ldr	r0, [r4, #16]
 b3a:	b170      	cbz	r0, b5a <_ZL15stbi__info_mainP13stbi__contextPiS1_S1_+0xb5a>
 b3c:	1b4a      	subs	r2, r1, r5
 b3e:	2a03      	cmp	r2, #3
 b40:	dc0b      	bgt.n	b5a <_ZL15stbi__info_mainP13stbi__contextPiS1_S1_+0xb5a>
 b42:	6963      	ldr	r3, [r4, #20]
 b44:	69e0      	ldr	r0, [r4, #28]
 b46:	f8c4 10a8 	str.w	r1, [r4, #168]	; 0xa8
 b4a:	f1c2 0104 	rsb	r1, r2, #4
 b4e:	4798      	blx	r3
 b50:	e9d4 512a 	ldrd	r5, r1, [r4, #168]	; 0xa8
 b54:	428d      	cmp	r5, r1
 b56:	d205      	bcs.n	b64 <_ZL15stbi__info_mainP13stbi__contextPiS1_S1_+0xb64>
 b58:	e029      	b.n	bae <_ZL15stbi__info_mainP13stbi__contextPiS1_S1_+0xbae>
 b5a:	3504      	adds	r5, #4
 b5c:	f8c4 50a8 	str.w	r5, [r4, #168]	; 0xa8
 b60:	428d      	cmp	r5, r1
 b62:	d324      	bcc.n	bae <_ZL15stbi__info_mainP13stbi__contextPiS1_S1_+0xbae>
 b64:	6a20      	ldr	r0, [r4, #32]
 b66:	2800      	cmp	r0, #0
 b68:	f000 8152 	beq.w	e10 <_ZL15stbi__info_mainP13stbi__contextPiS1_S1_+0xe10>
 b6c:	f104 0528 	add.w	r5, r4, #40	; 0x28
 b70:	6923      	ldr	r3, [r4, #16]
 b72:	69e0      	ldr	r0, [r4, #28]
 b74:	6a62      	ldr	r2, [r4, #36]	; 0x24
 b76:	4629      	mov	r1, r5
 b78:	4798      	blx	r3
 b7a:	b180      	cbz	r0, b9e <_ZL15stbi__info_mainP13stbi__contextPiS1_S1_+0xb9e>
 b7c:	4420      	add	r0, r4
 b7e:	f100 0128 	add.w	r1, r0, #40	; 0x28
 b82:	e012      	b.n	baa <_ZL15stbi__info_mainP13stbi__contextPiS1_S1_+0xbaa>
 b84:	1ce8      	adds	r0, r5, #3
 b86:	2100      	movs	r1, #0
 b88:	220a      	movs	r2, #10
 b8a:	9009      	str	r0, [sp, #36]	; 0x24
 b8c:	f7ff fffe 	bl	0 <strtol>
 b90:	f8c8 0000 	str.w	r0, [r8]
 b94:	2001      	movs	r0, #1
 b96:	f8c9 6000 	str.w	r6, [r9]
 b9a:	f7ff ba8b 	b.w	b4 <_ZL15stbi__info_mainP13stbi__contextPiS1_S1_+0xb4>
 b9e:	2000      	movs	r0, #0
 ba0:	f104 0129 	add.w	r1, r4, #41	; 0x29
 ba4:	f884 0028 	strb.w	r0, [r4, #40]	; 0x28
 ba8:	6220      	str	r0, [r4, #32]
 baa:	e9c4 512a 	strd	r5, r1, [r4, #168]	; 0xa8
 bae:	1c68      	adds	r0, r5, #1
 bb0:	f8c4 00a8 	str.w	r0, [r4, #168]	; 0xa8
 bb4:	782b      	ldrb	r3, [r5, #0]
 bb6:	461a      	mov	r2, r3
 bb8:	9207      	str	r2, [sp, #28]
 bba:	f1a3 0208 	sub.w	r2, r3, #8
 bbe:	2a18      	cmp	r2, #24
 bc0:	f200 8126 	bhi.w	e10 <_ZL15stbi__info_mainP13stbi__contextPiS1_S1_+0xe10>
 bc4:	2301      	movs	r3, #1
 bc6:	fa03 f202 	lsl.w	r2, r3, r2
 bca:	f240 1381 	movw	r3, #385	; 0x181
 bce:	f2c0 1301 	movt	r3, #257	; 0x101
 bd2:	421a      	tst	r2, r3
 bd4:	f000 811c 	beq.w	e10 <_ZL15stbi__info_mainP13stbi__contextPiS1_S1_+0xe10>
 bd8:	6922      	ldr	r2, [r4, #16]
 bda:	b152      	cbz	r2, bf2 <_ZL15stbi__info_mainP13stbi__contextPiS1_S1_+0xbf2>
 bdc:	1a0a      	subs	r2, r1, r0
 bde:	2a03      	cmp	r2, #3
 be0:	dc07      	bgt.n	bf2 <_ZL15stbi__info_mainP13stbi__contextPiS1_S1_+0xbf2>
 be2:	6963      	ldr	r3, [r4, #20]
 be4:	69e0      	ldr	r0, [r4, #28]
 be6:	f8c4 10a8 	str.w	r1, [r4, #168]	; 0xa8
 bea:	f1c2 0104 	rsb	r1, r2, #4
 bee:	4798      	blx	r3
 bf0:	e002      	b.n	bf8 <_ZL15stbi__info_mainP13stbi__contextPiS1_S1_+0xbf8>
 bf2:	1d68      	adds	r0, r5, #5
 bf4:	f8c4 00a8 	str.w	r0, [r4, #168]	; 0xa8
 bf8:	e9d4 502a 	ldrd	r5, r0, [r4, #168]	; 0xa8
 bfc:	4285      	cmp	r5, r0
 bfe:	d201      	bcs.n	c04 <_ZL15stbi__info_mainP13stbi__contextPiS1_S1_+0xc04>
 c00:	46a9      	mov	r9, r5
 c02:	e026      	b.n	c52 <_ZL15stbi__info_mainP13stbi__contextPiS1_S1_+0xc52>
 c04:	6a21      	ldr	r1, [r4, #32]
 c06:	b151      	cbz	r1, c1e <_ZL15stbi__info_mainP13stbi__contextPiS1_S1_+0xc1e>
 c08:	f104 0928 	add.w	r9, r4, #40	; 0x28
 c0c:	6923      	ldr	r3, [r4, #16]
 c0e:	69e0      	ldr	r0, [r4, #28]
 c10:	6a62      	ldr	r2, [r4, #36]	; 0x24
 c12:	4649      	mov	r1, r9
 c14:	4798      	blx	r3
 c16:	b1a0      	cbz	r0, c42 <_ZL15stbi__info_mainP13stbi__contextPiS1_S1_+0xc42>
 c18:	4420      	add	r0, r4
 c1a:	3028      	adds	r0, #40	; 0x28
 c1c:	e017      	b.n	c4e <_ZL15stbi__info_mainP13stbi__contextPiS1_S1_+0xc4e>
 c1e:	2600      	movs	r6, #0
 c20:	4285      	cmp	r5, r0
 c22:	d31e      	bcc.n	c62 <_ZL15stbi__info_mainP13stbi__contextPiS1_S1_+0xc62>
 c24:	6a21      	ldr	r1, [r4, #32]
 c26:	b151      	cbz	r1, c3e <_ZL15stbi__info_mainP13stbi__contextPiS1_S1_+0xc3e>
 c28:	f104 0928 	add.w	r9, r4, #40	; 0x28
 c2c:	6923      	ldr	r3, [r4, #16]
 c2e:	69e0      	ldr	r0, [r4, #28]
 c30:	6a62      	ldr	r2, [r4, #36]	; 0x24
 c32:	4649      	mov	r1, r9
 c34:	4798      	blx	r3
 c36:	b1b0      	cbz	r0, c66 <_ZL15stbi__info_mainP13stbi__contextPiS1_S1_+0xc66>
 c38:	4420      	add	r0, r4
 c3a:	3028      	adds	r0, #40	; 0x28
 c3c:	e019      	b.n	c72 <_ZL15stbi__info_mainP13stbi__contextPiS1_S1_+0xc72>
 c3e:	2100      	movs	r1, #0
 c40:	e01f      	b.n	c82 <_ZL15stbi__info_mainP13stbi__contextPiS1_S1_+0xc82>
 c42:	2000      	movs	r0, #0
 c44:	f884 0028 	strb.w	r0, [r4, #40]	; 0x28
 c48:	6220      	str	r0, [r4, #32]
 c4a:	f104 0029 	add.w	r0, r4, #41	; 0x29
 c4e:	e9c4 902a 	strd	r9, r0, [r4, #168]	; 0xa8
 c52:	f109 0501 	add.w	r5, r9, #1
 c56:	f8c4 50a8 	str.w	r5, [r4, #168]	; 0xa8
 c5a:	f899 6000 	ldrb.w	r6, [r9]
 c5e:	4285      	cmp	r5, r0
 c60:	d2e0      	bcs.n	c24 <_ZL15stbi__info_mainP13stbi__contextPiS1_S1_+0xc24>
 c62:	46a9      	mov	r9, r5
 c64:	e007      	b.n	c76 <_ZL15stbi__info_mainP13stbi__contextPiS1_S1_+0xc76>
 c66:	2000      	movs	r0, #0
 c68:	f884 0028 	strb.w	r0, [r4, #40]	; 0x28
 c6c:	6220      	str	r0, [r4, #32]
 c6e:	f104 0029 	add.w	r0, r4, #41	; 0x29
 c72:	e9c4 902a 	strd	r9, r0, [r4, #168]	; 0xa8
 c76:	f109 0501 	add.w	r5, r9, #1
 c7a:	f8c4 50a8 	str.w	r5, [r4, #168]	; 0xa8
 c7e:	f899 1000 	ldrb.w	r1, [r9]
 c82:	ea46 2101 	orr.w	r1, r6, r1, lsl #8
 c86:	9104      	str	r1, [sp, #16]
 c88:	2900      	cmp	r1, #0
 c8a:	f000 80c1 	beq.w	e10 <_ZL15stbi__info_mainP13stbi__contextPiS1_S1_+0xe10>
 c8e:	4285      	cmp	r5, r0
 c90:	d201      	bcs.n	c96 <_ZL15stbi__info_mainP13stbi__contextPiS1_S1_+0xc96>
 c92:	46a9      	mov	r9, r5
 c94:	e026      	b.n	ce4 <_ZL15stbi__info_mainP13stbi__contextPiS1_S1_+0xce4>
 c96:	6a21      	ldr	r1, [r4, #32]
 c98:	b151      	cbz	r1, cb0 <_ZL15stbi__info_mainP13stbi__contextPiS1_S1_+0xcb0>
 c9a:	f104 0928 	add.w	r9, r4, #40	; 0x28
 c9e:	6923      	ldr	r3, [r4, #16]
 ca0:	69e0      	ldr	r0, [r4, #28]
 ca2:	6a62      	ldr	r2, [r4, #36]	; 0x24
 ca4:	4649      	mov	r1, r9
 ca6:	4798      	blx	r3
 ca8:	b1a0      	cbz	r0, cd4 <_ZL15stbi__info_mainP13stbi__contextPiS1_S1_+0xcd4>
 caa:	4420      	add	r0, r4
 cac:	3028      	adds	r0, #40	; 0x28
 cae:	e017      	b.n	ce0 <_ZL15stbi__info_mainP13stbi__contextPiS1_S1_+0xce0>
 cb0:	2600      	movs	r6, #0
 cb2:	4285      	cmp	r5, r0
 cb4:	d31e      	bcc.n	cf4 <_ZL15stbi__info_mainP13stbi__contextPiS1_S1_+0xcf4>
 cb6:	6a21      	ldr	r1, [r4, #32]
 cb8:	b151      	cbz	r1, cd0 <_ZL15stbi__info_mainP13stbi__contextPiS1_S1_+0xcd0>
 cba:	f104 0928 	add.w	r9, r4, #40	; 0x28
 cbe:	6923      	ldr	r3, [r4, #16]
 cc0:	69e0      	ldr	r0, [r4, #28]
 cc2:	6a62      	ldr	r2, [r4, #36]	; 0x24
 cc4:	4649      	mov	r1, r9
 cc6:	4798      	blx	r3
 cc8:	b1b0      	cbz	r0, cf8 <_ZL15stbi__info_mainP13stbi__contextPiS1_S1_+0xcf8>
 cca:	4420      	add	r0, r4
 ccc:	3028      	adds	r0, #40	; 0x28
 cce:	e019      	b.n	d04 <_ZL15stbi__info_mainP13stbi__contextPiS1_S1_+0xd04>
 cd0:	2100      	movs	r1, #0
 cd2:	e01f      	b.n	d14 <_ZL15stbi__info_mainP13stbi__contextPiS1_S1_+0xd14>
 cd4:	2000      	movs	r0, #0
 cd6:	f884 0028 	strb.w	r0, [r4, #40]	; 0x28
 cda:	6220      	str	r0, [r4, #32]
 cdc:	f104 0029 	add.w	r0, r4, #41	; 0x29
 ce0:	e9c4 902a 	strd	r9, r0, [r4, #168]	; 0xa8
 ce4:	f109 0501 	add.w	r5, r9, #1
 ce8:	f8c4 50a8 	str.w	r5, [r4, #168]	; 0xa8
 cec:	f899 6000 	ldrb.w	r6, [r9]
 cf0:	4285      	cmp	r5, r0
 cf2:	d2e0      	bcs.n	cb6 <_ZL15stbi__info_mainP13stbi__contextPiS1_S1_+0xcb6>
 cf4:	46a9      	mov	r9, r5
 cf6:	e007      	b.n	d08 <_ZL15stbi__info_mainP13stbi__contextPiS1_S1_+0xd08>
 cf8:	2000      	movs	r0, #0
 cfa:	f884 0028 	strb.w	r0, [r4, #40]	; 0x28
 cfe:	6220      	str	r0, [r4, #32]
 d00:	f104 0029 	add.w	r0, r4, #41	; 0x29
 d04:	e9c4 902a 	strd	r9, r0, [r4, #168]	; 0xa8
 d08:	f109 0501 	add.w	r5, r9, #1
 d0c:	f8c4 50a8 	str.w	r5, [r4, #168]	; 0xa8
 d10:	f899 1000 	ldrb.w	r1, [r9]
 d14:	ea46 2801 	orr.w	r8, r6, r1, lsl #8
 d18:	f1b8 0f00 	cmp.w	r8, #0
 d1c:	f000 8078 	beq.w	e10 <_ZL15stbi__info_mainP13stbi__contextPiS1_S1_+0xe10>
 d20:	4285      	cmp	r5, r0
 d22:	d201      	bcs.n	d28 <_ZL15stbi__info_mainP13stbi__contextPiS1_S1_+0xd28>
 d24:	46a9      	mov	r9, r5
 d26:	e01d      	b.n	d64 <_ZL15stbi__info_mainP13stbi__contextPiS1_S1_+0xd64>
 d28:	6a21      	ldr	r1, [r4, #32]
 d2a:	b151      	cbz	r1, d42 <_ZL15stbi__info_mainP13stbi__contextPiS1_S1_+0xd42>
 d2c:	f104 0928 	add.w	r9, r4, #40	; 0x28
 d30:	6923      	ldr	r3, [r4, #16]
 d32:	69e0      	ldr	r0, [r4, #28]
 d34:	6a62      	ldr	r2, [r4, #36]	; 0x24
 d36:	4649      	mov	r1, r9
 d38:	4798      	blx	r3
 d3a:	b158      	cbz	r0, d54 <_ZL15stbi__info_mainP13stbi__contextPiS1_S1_+0xd54>
 d3c:	4420      	add	r0, r4
 d3e:	3028      	adds	r0, #40	; 0x28
 d40:	e00e      	b.n	d60 <_ZL15stbi__info_mainP13stbi__contextPiS1_S1_+0xd60>
 d42:	2600      	movs	r6, #0
 d44:	4285      	cmp	r5, r0
 d46:	d215      	bcs.n	d74 <_ZL15stbi__info_mainP13stbi__contextPiS1_S1_+0xd74>
 d48:	e029      	b.n	d9e <_ZL15stbi__info_mainP13stbi__contextPiS1_S1_+0xd9e>
 d4a:	bf00      	nop
 d4c:	00000d30 	.word	0x00000d30
 d50:	00000c90 	.word	0x00000c90
 d54:	2000      	movs	r0, #0
 d56:	f884 0028 	strb.w	r0, [r4, #40]	; 0x28
 d5a:	6220      	str	r0, [r4, #32]
 d5c:	f104 0029 	add.w	r0, r4, #41	; 0x29
 d60:	e9c4 902a 	strd	r9, r0, [r4, #168]	; 0xa8
 d64:	f109 0501 	add.w	r5, r9, #1
 d68:	f8c4 50a8 	str.w	r5, [r4, #168]	; 0xa8
 d6c:	f899 6000 	ldrb.w	r6, [r9]
 d70:	4285      	cmp	r5, r0
 d72:	d314      	bcc.n	d9e <_ZL15stbi__info_mainP13stbi__contextPiS1_S1_+0xd9e>
 d74:	6a20      	ldr	r0, [r4, #32]
 d76:	b1a8      	cbz	r0, da4 <_ZL15stbi__info_mainP13stbi__contextPiS1_S1_+0xda4>
 d78:	f104 0528 	add.w	r5, r4, #40	; 0x28
 d7c:	6923      	ldr	r3, [r4, #16]
 d7e:	69e0      	ldr	r0, [r4, #28]
 d80:	6a62      	ldr	r2, [r4, #36]	; 0x24
 d82:	4629      	mov	r1, r5
 d84:	4798      	blx	r3
 d86:	b110      	cbz	r0, d8e <_ZL15stbi__info_mainP13stbi__contextPiS1_S1_+0xd8e>
 d88:	4420      	add	r0, r4
 d8a:	3028      	adds	r0, #40	; 0x28
 d8c:	e005      	b.n	d9a <_ZL15stbi__info_mainP13stbi__contextPiS1_S1_+0xd9a>
 d8e:	2000      	movs	r0, #0
 d90:	f884 0028 	strb.w	r0, [r4, #40]	; 0x28
 d94:	6220      	str	r0, [r4, #32]
 d96:	f104 0029 	add.w	r0, r4, #41	; 0x29
 d9a:	e9c4 502a 	strd	r5, r0, [r4, #168]	; 0xa8
 d9e:	1c68      	adds	r0, r5, #1
 da0:	f8c4 00a8 	str.w	r0, [r4, #168]	; 0xa8
 da4:	9807      	ldr	r0, [sp, #28]
 da6:	2800      	cmp	r0, #0
 da8:	d01c      	beq.n	de4 <_ZL15stbi__info_mainP13stbi__contextPiS1_S1_+0xde4>
 daa:	2e10      	cmp	r6, #16
 dac:	bf18      	it	ne
 dae:	2e08      	cmpne	r6, #8
 db0:	f040 802e 	bne.w	e10 <_ZL15stbi__info_mainP13stbi__contextPiS1_S1_+0xe10>
 db4:	9807      	ldr	r0, [sp, #28]
 db6:	f1a0 0108 	sub.w	r1, r0, #8
 dba:	2918      	cmp	r1, #24
 dbc:	d828      	bhi.n	e10 <_ZL15stbi__info_mainP13stbi__contextPiS1_S1_+0xe10>
 dbe:	2001      	movs	r0, #1
 dc0:	e8df f001 	tbb	[pc, r1]
 dc4:	2626263a 	.word	0x2626263a
 dc8:	32262626 	.word	0x32262626
 dcc:	26262632 	.word	0x26262632
 dd0:	26262626 	.word	0x26262626
 dd4:	2626260d 	.word	0x2626260d
 dd8:	26262626 	.word	0x26262626
 ddc:	0d          	.byte	0x0d
 ddd:	00          	.byte	0x00
 dde:	9807      	ldr	r0, [sp, #28]
 de0:	08c0      	lsrs	r0, r0, #3
 de2:	e029      	b.n	e38 <_ZL15stbi__info_mainP13stbi__contextPiS1_S1_+0xe38>
 de4:	f1a6 0108 	sub.w	r1, r6, #8
 de8:	2918      	cmp	r1, #24
 dea:	d811      	bhi.n	e10 <_ZL15stbi__info_mainP13stbi__contextPiS1_S1_+0xe10>
 dec:	2001      	movs	r0, #1
 dee:	e8df f001 	tbb	[pc, r1]
 df2:	0f23      	.short	0x0f23
 df4:	0f0f0f0f 	.word	0x0f0f0f0f
 df8:	0f1d1b0f 	.word	0x0f1d1b0f
 dfc:	0f0f0f0f 	.word	0x0f0f0f0f
 e00:	0f0d0f0f 	.word	0x0f0d0f0f
 e04:	0f0f0f0f 	.word	0x0f0f0f0f
 e08:	0f0f      	.short	0x0f0f
 e0a:	0d          	.byte	0x0d
 e0b:	00          	.byte	0x00
 e0c:	08f0      	lsrs	r0, r6, #3
 e0e:	e013      	b.n	e38 <_ZL15stbi__info_mainP13stbi__contextPiS1_S1_+0xe38>
 e10:	4815      	ldr	r0, [pc, #84]	; (e68 <_ZL15stbi__info_mainP13stbi__contextPiS1_S1_+0xe68>)
 e12:	4b16      	ldr	r3, [pc, #88]	; (e6c <_ZL15stbi__info_mainP13stbi__contextPiS1_S1_+0xe6c>)
 e14:	4478      	add	r0, pc
 e16:	e9d4 122c 	ldrd	r1, r2, [r4, #176]	; 0xb0
 e1a:	447b      	add	r3, pc
 e1c:	e9c4 122a 	strd	r1, r2, [r4, #168]	; 0xa8
 e20:	6003      	str	r3, [r0, #0]
 e22:	2000      	movs	r0, #0
 e24:	f7ff b946 	b.w	b4 <_ZL15stbi__info_mainP13stbi__contextPiS1_S1_+0xb4>
 e28:	2003      	movs	r0, #3
 e2a:	e005      	b.n	e38 <_ZL15stbi__info_mainP13stbi__contextPiS1_S1_+0xe38>
 e2c:	f04b 0108 	orr.w	r1, fp, #8
 e30:	2003      	movs	r0, #3
 e32:	290b      	cmp	r1, #11
 e34:	bf08      	it	eq
 e36:	2002      	moveq	r0, #2
 e38:	9905      	ldr	r1, [sp, #20]
 e3a:	2900      	cmp	r1, #0
 e3c:	bf1c      	itt	ne
 e3e:	9a04      	ldrne	r2, [sp, #16]
 e40:	600a      	strne	r2, [r1, #0]
 e42:	9906      	ldr	r1, [sp, #24]
 e44:	2900      	cmp	r1, #0
 e46:	bf18      	it	ne
 e48:	f8c1 8000 	strne.w	r8, [r1]
 e4c:	f1ba 0f00 	cmp.w	sl, #0
 e50:	bf18      	it	ne
 e52:	f8ca 0000 	strne.w	r0, [sl]
 e56:	f7ff b92c 	b.w	b2 <_ZL15stbi__info_mainP13stbi__contextPiS1_S1_+0xb2>
 e5a:	bf00      	nop
 e5c:	000009fc 	.word	0x000009fc
 e60:	0020592d 	.word	0x0020592d
 e64:	0020582b 	.word	0x0020582b
 e68:	00000054 	.word	0x00000054
 e6c:	0000004e 	.word	0x0000004e
 e70:	000006a8 	.word	0x000006a8

Disassembly of section .text.stbi_is_16_bit:

00000000 <stbi_is_16_bit>:
   0:	b5f0      	push	{r4, r5, r6, r7, lr}
   2:	af03      	add	r7, sp, #12
   4:	f84d 8d04 	str.w	r8, [sp, #-4]!
   8:	b0b0      	sub	sp, #192	; 0xc0
   a:	4929      	ldr	r1, [pc, #164]	; (b0 <stbi_is_16_bit+0xb0>)
   c:	4479      	add	r1, pc
   e:	6809      	ldr	r1, [r1, #0]
  10:	6809      	ldr	r1, [r1, #0]
  12:	912f      	str	r1, [sp, #188]	; 0xbc
  14:	a127      	add	r1, pc, #156	; (adr r1, b4 <stbi_is_16_bit+0xb4>)
  16:	f7ff fffe 	bl	0 <fopen>
  1a:	4604      	mov	r4, r0
  1c:	b1f4      	cbz	r4, 5c <stbi_is_16_bit+0x5c>
  1e:	4620      	mov	r0, r4
  20:	f7ff fffe 	bl	0 <ftell>
  24:	4680      	mov	r8, r0
  26:	4824      	ldr	r0, [pc, #144]	; (b8 <stbi_is_16_bit+0xb8>)
  28:	2180      	movs	r1, #128	; 0x80
  2a:	9407      	str	r4, [sp, #28]
  2c:	4478      	add	r0, pc
  2e:	9109      	str	r1, [sp, #36]	; 0x24
  30:	466d      	mov	r5, sp
  32:	f105 0628 	add.w	r6, r5, #40	; 0x28
  36:	edd0 0b00 	vldr	d16, [r0]
  3a:	2280      	movs	r2, #128	; 0x80
  3c:	6881      	ldr	r1, [r0, #8]
  3e:	2001      	movs	r0, #1
  40:	9008      	str	r0, [sp, #32]
  42:	4620      	mov	r0, r4
  44:	edcd 0b04 	vstr	d16, [sp, #16]
  48:	9b04      	ldr	r3, [sp, #16]
  4a:	962c      	str	r6, [sp, #176]	; 0xb0
  4c:	9106      	str	r1, [sp, #24]
  4e:	4631      	mov	r1, r6
  50:	4798      	blx	r3
  52:	2800      	cmp	r0, #0
  54:	d009      	beq.n	6a <stbi_is_16_bit+0x6a>
  56:	4428      	add	r0, r5
  58:	3028      	adds	r0, #40	; 0x28
  5a:	e00c      	b.n	76 <stbi_is_16_bit+0x76>
  5c:	4817      	ldr	r0, [pc, #92]	; (bc <stbi_is_16_bit+0xbc>)
  5e:	2600      	movs	r6, #0
  60:	4917      	ldr	r1, [pc, #92]	; (c0 <stbi_is_16_bit+0xc0>)
  62:	4478      	add	r0, pc
  64:	4479      	add	r1, pc
  66:	6001      	str	r1, [r0, #0]
  68:	e014      	b.n	94 <stbi_is_16_bit+0x94>
  6a:	2000      	movs	r0, #0
  6c:	f88d 0028 	strb.w	r0, [sp, #40]	; 0x28
  70:	9008      	str	r0, [sp, #32]
  72:	f105 0029 	add.w	r0, r5, #41	; 0x29
  76:	e9cd 602a 	strd	r6, r0, [sp, #168]	; 0xa8
  7a:	902d      	str	r0, [sp, #180]	; 0xb4
  7c:	4668      	mov	r0, sp
  7e:	f7ff fffe 	bl	0 <stbi_is_16_bit>
  82:	4606      	mov	r6, r0
  84:	4620      	mov	r0, r4
  86:	4641      	mov	r1, r8
  88:	2200      	movs	r2, #0
  8a:	f7ff fffe 	bl	0 <fseek>
  8e:	4620      	mov	r0, r4
  90:	f7ff fffe 	bl	0 <fclose>
  94:	480b      	ldr	r0, [pc, #44]	; (c4 <stbi_is_16_bit+0xc4>)
  96:	992f      	ldr	r1, [sp, #188]	; 0xbc
  98:	4478      	add	r0, pc
  9a:	6800      	ldr	r0, [r0, #0]
  9c:	6800      	ldr	r0, [r0, #0]
  9e:	1a40      	subs	r0, r0, r1
  a0:	bf01      	itttt	eq
  a2:	4630      	moveq	r0, r6
  a4:	b030      	addeq	sp, #192	; 0xc0
  a6:	f85d 8b04 	ldreq.w	r8, [sp], #4
  aa:	bdf0      	popeq	{r4, r5, r6, r7, pc}
  ac:	f7ff fffe 	bl	0 <__stack_chk_fail>
  b0:	000000a0 	.word	0x000000a0
  b4:	00006272 	.word	0x00006272
  b8:	00000088 	.word	0x00000088
  bc:	0000005a 	.word	0x0000005a
  c0:	00000058 	.word	0x00000058
  c4:	00000028 	.word	0x00000028

Disassembly of section .text.stbi_is_16_bit_from_file:

00000000 <stbi_is_16_bit_from_file>:
   0:	b5f0      	push	{r4, r5, r6, r7, lr}
   2:	af03      	add	r7, sp, #12
   4:	f84d 8d04 	str.w	r8, [sp, #-4]!
   8:	b0b0      	sub	sp, #192	; 0xc0
   a:	4604      	mov	r4, r0
   c:	4821      	ldr	r0, [pc, #132]	; (94 <stbi_is_16_bit_from_file+0x94>)
   e:	4478      	add	r0, pc
  10:	6800      	ldr	r0, [r0, #0]
  12:	6800      	ldr	r0, [r0, #0]
  14:	902f      	str	r0, [sp, #188]	; 0xbc
  16:	4620      	mov	r0, r4
  18:	f7ff fffe 	bl	0 <ftell>
  1c:	4680      	mov	r8, r0
  1e:	481e      	ldr	r0, [pc, #120]	; (98 <stbi_is_16_bit_from_file+0x98>)
  20:	2180      	movs	r1, #128	; 0x80
  22:	9407      	str	r4, [sp, #28]
  24:	4478      	add	r0, pc
  26:	9109      	str	r1, [sp, #36]	; 0x24
  28:	466d      	mov	r5, sp
  2a:	f105 0628 	add.w	r6, r5, #40	; 0x28
  2e:	edd0 0b00 	vldr	d16, [r0]
  32:	2280      	movs	r2, #128	; 0x80
  34:	6881      	ldr	r1, [r0, #8]
  36:	2001      	movs	r0, #1
  38:	9008      	str	r0, [sp, #32]
  3a:	4620      	mov	r0, r4
  3c:	edcd 0b04 	vstr	d16, [sp, #16]
  40:	9b04      	ldr	r3, [sp, #16]
  42:	962c      	str	r6, [sp, #176]	; 0xb0
  44:	9106      	str	r1, [sp, #24]
  46:	4631      	mov	r1, r6
  48:	4798      	blx	r3
  4a:	2800      	cmp	r0, #0
  4c:	d002      	beq.n	54 <stbi_is_16_bit_from_file+0x54>
  4e:	4428      	add	r0, r5
  50:	3028      	adds	r0, #40	; 0x28
  52:	e005      	b.n	60 <stbi_is_16_bit_from_file+0x60>
  54:	2000      	movs	r0, #0
  56:	f88d 0028 	strb.w	r0, [sp, #40]	; 0x28
  5a:	9008      	str	r0, [sp, #32]
  5c:	f105 0029 	add.w	r0, r5, #41	; 0x29
  60:	e9cd 602a 	strd	r6, r0, [sp, #168]	; 0xa8
  64:	902d      	str	r0, [sp, #180]	; 0xb4
  66:	4668      	mov	r0, sp
  68:	f7ff fffe 	bl	0 <stbi_is_16_bit_from_file>
  6c:	4606      	mov	r6, r0
  6e:	4620      	mov	r0, r4
  70:	4641      	mov	r1, r8
  72:	2200      	movs	r2, #0
  74:	f7ff fffe 	bl	0 <fseek>
  78:	4808      	ldr	r0, [pc, #32]	; (9c <stbi_is_16_bit_from_file+0x9c>)
  7a:	992f      	ldr	r1, [sp, #188]	; 0xbc
  7c:	4478      	add	r0, pc
  7e:	6800      	ldr	r0, [r0, #0]
  80:	6800      	ldr	r0, [r0, #0]
  82:	1a40      	subs	r0, r0, r1
  84:	bf01      	itttt	eq
  86:	4630      	moveq	r0, r6
  88:	b030      	addeq	sp, #192	; 0xc0
  8a:	f85d 8b04 	ldreq.w	r8, [sp], #4
  8e:	bdf0      	popeq	{r4, r5, r6, r7, pc}
  90:	f7ff fffe 	bl	0 <__stack_chk_fail>
  94:	00000082 	.word	0x00000082
  98:	00000070 	.word	0x00000070
  9c:	0000001c 	.word	0x0000001c

Disassembly of section .text._ZL16stbi__is_16_mainP13stbi__context:

00000000 <_ZL16stbi__is_16_mainP13stbi__context>:
   0:	b5f0      	push	{r4, r5, r6, r7, lr}
   2:	af03      	add	r7, sp, #12
   4:	f84d 8d04 	str.w	r8, [sp, #-4]!
   8:	b086      	sub	sp, #24
   a:	4604      	mov	r4, r0
   c:	4890      	ldr	r0, [pc, #576]	; (250 <_ZL16stbi__is_16_mainP13stbi__context+0x250>)
   e:	2102      	movs	r1, #2
  10:	2200      	movs	r2, #0
  12:	4478      	add	r0, pc
  14:	6800      	ldr	r0, [r0, #0]
  16:	6800      	ldr	r0, [r0, #0]
  18:	9005      	str	r0, [sp, #20]
  1a:	4668      	mov	r0, sp
  1c:	9400      	str	r4, [sp, #0]
  1e:	f7ff fffe 	bl	0 <_ZL16stbi__is_16_mainP13stbi__context>
  22:	b120      	cbz	r0, 2e <_ZL16stbi__is_16_mainP13stbi__context+0x2e>
  24:	9804      	ldr	r0, [sp, #16]
  26:	2810      	cmp	r0, #16
  28:	d101      	bne.n	2e <_ZL16stbi__is_16_mainP13stbi__context+0x2e>
  2a:	2001      	movs	r0, #1
  2c:	e102      	b.n	234 <_ZL16stbi__is_16_mainP13stbi__context+0x234>
  2e:	9800      	ldr	r0, [sp, #0]
  30:	e9d0 122c 	ldrd	r1, r2, [r0, #176]	; 0xb0
  34:	e9c0 122a 	strd	r1, r2, [r0, #168]	; 0xa8
  38:	4620      	mov	r0, r4
  3a:	f7ff fffe 	bl	0 <_ZL16stbi__is_16_mainP13stbi__context>
  3e:	f245 0153 	movw	r1, #20563	; 0x5053
  42:	f6c3 0142 	movt	r1, #14402	; 0x3842
  46:	4288      	cmp	r0, r1
  48:	d108      	bne.n	5c <_ZL16stbi__is_16_mainP13stbi__context+0x5c>
  4a:	46a0      	mov	r8, r4
  4c:	f858 1fac 	ldr.w	r1, [r8, #172]!
  50:	f858 0c04 	ldr.w	r0, [r8, #-4]
  54:	4288      	cmp	r0, r1
  56:	d206      	bcs.n	66 <_ZL16stbi__is_16_mainP13stbi__context+0x66>
  58:	4605      	mov	r5, r0
  5a:	e01c      	b.n	96 <_ZL16stbi__is_16_mainP13stbi__context+0x96>
  5c:	f8d4 00b0 	ldr.w	r0, [r4, #176]	; 0xb0
  60:	f104 08ac 	add.w	r8, r4, #172	; 0xac
  64:	e0df      	b.n	226 <_ZL16stbi__is_16_mainP13stbi__context+0x226>
  66:	6a22      	ldr	r2, [r4, #32]
  68:	b15a      	cbz	r2, 82 <_ZL16stbi__is_16_mainP13stbi__context+0x82>
  6a:	f104 0528 	add.w	r5, r4, #40	; 0x28
  6e:	6923      	ldr	r3, [r4, #16]
  70:	69e0      	ldr	r0, [r4, #28]
  72:	6a62      	ldr	r2, [r4, #36]	; 0x24
  74:	4629      	mov	r1, r5
  76:	4798      	blx	r3
  78:	b128      	cbz	r0, 86 <_ZL16stbi__is_16_mainP13stbi__context+0x86>
  7a:	4420      	add	r0, r4
  7c:	f100 0128 	add.w	r1, r0, #40	; 0x28
  80:	e007      	b.n	92 <_ZL16stbi__is_16_mainP13stbi__context+0x92>
  82:	2200      	movs	r2, #0
  84:	e00b      	b.n	9e <_ZL16stbi__is_16_mainP13stbi__context+0x9e>
  86:	2000      	movs	r0, #0
  88:	f104 0129 	add.w	r1, r4, #41	; 0x29
  8c:	f884 0028 	strb.w	r0, [r4, #40]	; 0x28
  90:	6220      	str	r0, [r4, #32]
  92:	e9c4 512a 	strd	r5, r1, [r4, #168]	; 0xa8
  96:	1c68      	adds	r0, r5, #1
  98:	f8c4 00a8 	str.w	r0, [r4, #168]	; 0xa8
  9c:	782a      	ldrb	r2, [r5, #0]
  9e:	0216      	lsls	r6, r2, #8
  a0:	4288      	cmp	r0, r1
  a2:	d201      	bcs.n	a8 <_ZL16stbi__is_16_mainP13stbi__context+0xa8>
  a4:	4605      	mov	r5, r0
  a6:	e017      	b.n	d8 <_ZL16stbi__is_16_mainP13stbi__context+0xd8>
  a8:	6a22      	ldr	r2, [r4, #32]
  aa:	b15a      	cbz	r2, c4 <_ZL16stbi__is_16_mainP13stbi__context+0xc4>
  ac:	f104 0528 	add.w	r5, r4, #40	; 0x28
  b0:	6923      	ldr	r3, [r4, #16]
  b2:	69e0      	ldr	r0, [r4, #28]
  b4:	6a62      	ldr	r2, [r4, #36]	; 0x24
  b6:	4629      	mov	r1, r5
  b8:	4798      	blx	r3
  ba:	b128      	cbz	r0, c8 <_ZL16stbi__is_16_mainP13stbi__context+0xc8>
  bc:	4420      	add	r0, r4
  be:	f100 0128 	add.w	r1, r0, #40	; 0x28
  c2:	e007      	b.n	d4 <_ZL16stbi__is_16_mainP13stbi__context+0xd4>
  c4:	2200      	movs	r2, #0
  c6:	e00b      	b.n	e0 <_ZL16stbi__is_16_mainP13stbi__context+0xe0>
  c8:	2000      	movs	r0, #0
  ca:	f104 0129 	add.w	r1, r4, #41	; 0x29
  ce:	f884 0028 	strb.w	r0, [r4, #40]	; 0x28
  d2:	6220      	str	r0, [r4, #32]
  d4:	e9c4 512a 	strd	r5, r1, [r4, #168]	; 0xa8
  d8:	1c68      	adds	r0, r5, #1
  da:	f8c4 00a8 	str.w	r0, [r4, #168]	; 0xa8
  de:	782a      	ldrb	r2, [r5, #0]
  e0:	4332      	orrs	r2, r6
  e2:	2a01      	cmp	r2, #1
  e4:	f040 809d 	bne.w	222 <_ZL16stbi__is_16_mainP13stbi__context+0x222>
  e8:	6922      	ldr	r2, [r4, #16]
  ea:	b1da      	cbz	r2, 124 <_ZL16stbi__is_16_mainP13stbi__context+0x124>
  ec:	1a0a      	subs	r2, r1, r0
  ee:	2a05      	cmp	r2, #5
  f0:	dc18      	bgt.n	124 <_ZL16stbi__is_16_mainP13stbi__context+0x124>
  f2:	6963      	ldr	r3, [r4, #20]
  f4:	69e0      	ldr	r0, [r4, #28]
  f6:	f8c4 10a8 	str.w	r1, [r4, #168]	; 0xa8
  fa:	f1c2 0106 	rsb	r1, r2, #6
  fe:	4798      	blx	r3
 100:	e9d4 512a 	ldrd	r5, r1, [r4, #168]	; 0xa8
 104:	428d      	cmp	r5, r1
 106:	d312      	bcc.n	12e <_ZL16stbi__is_16_mainP13stbi__context+0x12e>
 108:	6a20      	ldr	r0, [r4, #32]
 10a:	b190      	cbz	r0, 132 <_ZL16stbi__is_16_mainP13stbi__context+0x132>
 10c:	f104 0628 	add.w	r6, r4, #40	; 0x28
 110:	6923      	ldr	r3, [r4, #16]
 112:	69e0      	ldr	r0, [r4, #28]
 114:	6a62      	ldr	r2, [r4, #36]	; 0x24
 116:	4631      	mov	r1, r6
 118:	4798      	blx	r3
 11a:	b160      	cbz	r0, 136 <_ZL16stbi__is_16_mainP13stbi__context+0x136>
 11c:	4420      	add	r0, r4
 11e:	f100 0128 	add.w	r1, r0, #40	; 0x28
 122:	e00e      	b.n	142 <_ZL16stbi__is_16_mainP13stbi__context+0x142>
 124:	1d85      	adds	r5, r0, #6
 126:	f8c4 50a8 	str.w	r5, [r4, #168]	; 0xa8
 12a:	428d      	cmp	r5, r1
 12c:	d2ec      	bcs.n	108 <_ZL16stbi__is_16_mainP13stbi__context+0x108>
 12e:	462e      	mov	r6, r5
 130:	e009      	b.n	146 <_ZL16stbi__is_16_mainP13stbi__context+0x146>
 132:	2000      	movs	r0, #0
 134:	e00b      	b.n	14e <_ZL16stbi__is_16_mainP13stbi__context+0x14e>
 136:	2000      	movs	r0, #0
 138:	f104 0129 	add.w	r1, r4, #41	; 0x29
 13c:	f884 0028 	strb.w	r0, [r4, #40]	; 0x28
 140:	6220      	str	r0, [r4, #32]
 142:	e9c4 612a 	strd	r6, r1, [r4, #168]	; 0xa8
 146:	1c75      	adds	r5, r6, #1
 148:	f8c4 50a8 	str.w	r5, [r4, #168]	; 0xa8
 14c:	7830      	ldrb	r0, [r6, #0]
 14e:	0206      	lsls	r6, r0, #8
 150:	428d      	cmp	r5, r1
 152:	d316      	bcc.n	182 <_ZL16stbi__is_16_mainP13stbi__context+0x182>
 154:	6a20      	ldr	r0, [r4, #32]
 156:	b150      	cbz	r0, 16e <_ZL16stbi__is_16_mainP13stbi__context+0x16e>
 158:	f104 0528 	add.w	r5, r4, #40	; 0x28
 15c:	6923      	ldr	r3, [r4, #16]
 15e:	69e0      	ldr	r0, [r4, #28]
 160:	6a62      	ldr	r2, [r4, #36]	; 0x24
 162:	4629      	mov	r1, r5
 164:	4798      	blx	r3
 166:	b120      	cbz	r0, 172 <_ZL16stbi__is_16_mainP13stbi__context+0x172>
 168:	4420      	add	r0, r4
 16a:	3028      	adds	r0, #40	; 0x28
 16c:	e007      	b.n	17e <_ZL16stbi__is_16_mainP13stbi__context+0x17e>
 16e:	2000      	movs	r0, #0
 170:	e00b      	b.n	18a <_ZL16stbi__is_16_mainP13stbi__context+0x18a>
 172:	2000      	movs	r0, #0
 174:	f884 0028 	strb.w	r0, [r4, #40]	; 0x28
 178:	6220      	str	r0, [r4, #32]
 17a:	f104 0029 	add.w	r0, r4, #41	; 0x29
 17e:	e9c4 502a 	strd	r5, r0, [r4, #168]	; 0xa8
 182:	1c68      	adds	r0, r5, #1
 184:	f8c4 00a8 	str.w	r0, [r4, #168]	; 0xa8
 188:	7828      	ldrb	r0, [r5, #0]
 18a:	4330      	orrs	r0, r6
 18c:	2811      	cmp	r0, #17
 18e:	d248      	bcs.n	222 <_ZL16stbi__is_16_mainP13stbi__context+0x222>
 190:	4620      	mov	r0, r4
 192:	f7ff fffe 	bl	0 <_ZL16stbi__is_16_mainP13stbi__context>
 196:	4620      	mov	r0, r4
 198:	f7ff fffe 	bl	0 <_ZL16stbi__is_16_mainP13stbi__context>
 19c:	e9d4 502a 	ldrd	r5, r0, [r4, #168]	; 0xa8
 1a0:	4285      	cmp	r5, r0
 1a2:	d201      	bcs.n	1a8 <_ZL16stbi__is_16_mainP13stbi__context+0x1a8>
 1a4:	462e      	mov	r6, r5
 1a6:	e016      	b.n	1d6 <_ZL16stbi__is_16_mainP13stbi__context+0x1d6>
 1a8:	6a21      	ldr	r1, [r4, #32]
 1aa:	b151      	cbz	r1, 1c2 <_ZL16stbi__is_16_mainP13stbi__context+0x1c2>
 1ac:	f104 0628 	add.w	r6, r4, #40	; 0x28
 1b0:	6923      	ldr	r3, [r4, #16]
 1b2:	69e0      	ldr	r0, [r4, #28]
 1b4:	6a62      	ldr	r2, [r4, #36]	; 0x24
 1b6:	4631      	mov	r1, r6
 1b8:	4798      	blx	r3
 1ba:	b120      	cbz	r0, 1c6 <_ZL16stbi__is_16_mainP13stbi__context+0x1c6>
 1bc:	4420      	add	r0, r4
 1be:	3028      	adds	r0, #40	; 0x28
 1c0:	e007      	b.n	1d2 <_ZL16stbi__is_16_mainP13stbi__context+0x1d2>
 1c2:	2100      	movs	r1, #0
 1c4:	e00b      	b.n	1de <_ZL16stbi__is_16_mainP13stbi__context+0x1de>
 1c6:	2000      	movs	r0, #0
 1c8:	f884 0028 	strb.w	r0, [r4, #40]	; 0x28
 1cc:	6220      	str	r0, [r4, #32]
 1ce:	f104 0029 	add.w	r0, r4, #41	; 0x29
 1d2:	e9c4 602a 	strd	r6, r0, [r4, #168]	; 0xa8
 1d6:	1c75      	adds	r5, r6, #1
 1d8:	f8c4 50a8 	str.w	r5, [r4, #168]	; 0xa8
 1dc:	7831      	ldrb	r1, [r6, #0]
 1de:	020e      	lsls	r6, r1, #8
 1e0:	4285      	cmp	r5, r0
 1e2:	d316      	bcc.n	212 <_ZL16stbi__is_16_mainP13stbi__context+0x212>
 1e4:	6a20      	ldr	r0, [r4, #32]
 1e6:	b150      	cbz	r0, 1fe <_ZL16stbi__is_16_mainP13stbi__context+0x1fe>
 1e8:	f104 0528 	add.w	r5, r4, #40	; 0x28
 1ec:	6923      	ldr	r3, [r4, #16]
 1ee:	69e0      	ldr	r0, [r4, #28]
 1f0:	6a62      	ldr	r2, [r4, #36]	; 0x24
 1f2:	4629      	mov	r1, r5
 1f4:	4798      	blx	r3
 1f6:	b120      	cbz	r0, 202 <_ZL16stbi__is_16_mainP13stbi__context+0x202>
 1f8:	4420      	add	r0, r4
 1fa:	3028      	adds	r0, #40	; 0x28
 1fc:	e007      	b.n	20e <_ZL16stbi__is_16_mainP13stbi__context+0x20e>
 1fe:	2000      	movs	r0, #0
 200:	e00b      	b.n	21a <_ZL16stbi__is_16_mainP13stbi__context+0x21a>
 202:	2000      	movs	r0, #0
 204:	f884 0028 	strb.w	r0, [r4, #40]	; 0x28
 208:	6220      	str	r0, [r4, #32]
 20a:	f104 0029 	add.w	r0, r4, #41	; 0x29
 20e:	e9c4 502a 	strd	r5, r0, [r4, #168]	; 0xa8
 212:	1c68      	adds	r0, r5, #1
 214:	f8c4 00a8 	str.w	r0, [r4, #168]	; 0xa8
 218:	7828      	ldrb	r0, [r5, #0]
 21a:	4330      	orrs	r0, r6
 21c:	2810      	cmp	r0, #16
 21e:	f43f af04 	beq.w	2a <_ZL16stbi__is_16_mainP13stbi__context+0x2a>
 222:	f8d4 00b0 	ldr.w	r0, [r4, #176]	; 0xb0
 226:	f8c4 00a8 	str.w	r0, [r4, #168]	; 0xa8
 22a:	f8d4 00b4 	ldr.w	r0, [r4, #180]	; 0xb4
 22e:	f8c8 0000 	str.w	r0, [r8]
 232:	2000      	movs	r0, #0
 234:	4907      	ldr	r1, [pc, #28]	; (254 <_ZL16stbi__is_16_mainP13stbi__context+0x254>)
 236:	9a05      	ldr	r2, [sp, #20]
 238:	4479      	add	r1, pc
 23a:	6809      	ldr	r1, [r1, #0]
 23c:	6809      	ldr	r1, [r1, #0]
 23e:	1a89      	subs	r1, r1, r2
 240:	bf02      	ittt	eq
 242:	b006      	addeq	sp, #24
 244:	f85d 8b04 	ldreq.w	r8, [sp], #4
 248:	bdf0      	popeq	{r4, r5, r6, r7, pc}
 24a:	f7ff fffe 	bl	0 <__stack_chk_fail>
 24e:	bf00      	nop
 250:	0000023a 	.word	0x0000023a
 254:	00000018 	.word	0x00000018

Disassembly of section .text.stbi_info_from_memory:

00000000 <stbi_info_from_memory>:
   0:	b580      	push	{r7, lr}
   2:	466f      	mov	r7, sp
   4:	b0b0      	sub	sp, #192	; 0xc0
   6:	f8df c04c 	ldr.w	ip, [pc, #76]	; 54 <stbi_info_from_memory+0x54>
   a:	4401      	add	r1, r0
   c:	44fc      	add	ip, pc
   e:	f8dc c000 	ldr.w	ip, [ip]
  12:	f8dc e000 	ldr.w	lr, [ip]
  16:	f8d7 c008 	ldr.w	ip, [r7, #8]
  1a:	f8cd e0bc 	str.w	lr, [sp, #188]	; 0xbc
  1e:	f04f 0e00 	mov.w	lr, #0
  22:	f8cd e024 	str.w	lr, [sp, #36]	; 0x24
  26:	f8cd e014 	str.w	lr, [sp, #20]
  2a:	902d      	str	r0, [sp, #180]	; 0xb4
  2c:	902b      	str	r0, [sp, #172]	; 0xac
  2e:	a801      	add	r0, sp, #4
  30:	912e      	str	r1, [sp, #184]	; 0xb8
  32:	912c      	str	r1, [sp, #176]	; 0xb0
  34:	4611      	mov	r1, r2
  36:	461a      	mov	r2, r3
  38:	4663      	mov	r3, ip
  3a:	f7ff fffe 	bl	0 <stbi_info_from_memory>
  3e:	4906      	ldr	r1, [pc, #24]	; (58 <stbi_info_from_memory+0x58>)
  40:	9a2f      	ldr	r2, [sp, #188]	; 0xbc
  42:	4479      	add	r1, pc
  44:	6809      	ldr	r1, [r1, #0]
  46:	6809      	ldr	r1, [r1, #0]
  48:	1a89      	subs	r1, r1, r2
  4a:	bf04      	itt	eq
  4c:	b030      	addeq	sp, #192	; 0xc0
  4e:	bd80      	popeq	{r7, pc}
  50:	f7ff fffe 	bl	0 <__stack_chk_fail>
  54:	00000044 	.word	0x00000044
  58:	00000012 	.word	0x00000012

Disassembly of section .text.stbi_info_from_callbacks:

00000000 <stbi_info_from_callbacks>:
   0:	b5f0      	push	{r4, r5, r6, r7, lr}
   2:	af03      	add	r7, sp, #12
   4:	f84d 8d04 	str.w	r8, [sp, #-4]!
   8:	b0b0      	sub	sp, #192	; 0xc0
   a:	4615      	mov	r5, r2
   c:	4a1c      	ldr	r2, [pc, #112]	; (80 <stbi_info_from_callbacks+0x80>)
   e:	466c      	mov	r4, sp
  10:	4698      	mov	r8, r3
  12:	447a      	add	r2, pc
  14:	f104 0628 	add.w	r6, r4, #40	; 0x28
  18:	6812      	ldr	r2, [r2, #0]
  1a:	6812      	ldr	r2, [r2, #0]
  1c:	922f      	str	r2, [sp, #188]	; 0xbc
  1e:	2280      	movs	r2, #128	; 0x80
  20:	edd0 0b00 	vldr	d16, [r0]
  24:	6880      	ldr	r0, [r0, #8]
  26:	e9cd 0106 	strd	r0, r1, [sp, #24]
  2a:	2080      	movs	r0, #128	; 0x80
  2c:	9009      	str	r0, [sp, #36]	; 0x24
  2e:	2001      	movs	r0, #1
  30:	9008      	str	r0, [sp, #32]
  32:	4608      	mov	r0, r1
  34:	edcd 0b04 	vstr	d16, [sp, #16]
  38:	4631      	mov	r1, r6
  3a:	9b04      	ldr	r3, [sp, #16]
  3c:	962c      	str	r6, [sp, #176]	; 0xb0
  3e:	4798      	blx	r3
  40:	68bb      	ldr	r3, [r7, #8]
  42:	b110      	cbz	r0, 4a <stbi_info_from_callbacks+0x4a>
  44:	4420      	add	r0, r4
  46:	3028      	adds	r0, #40	; 0x28
  48:	e005      	b.n	56 <stbi_info_from_callbacks+0x56>
  4a:	2000      	movs	r0, #0
  4c:	f88d 0028 	strb.w	r0, [sp, #40]	; 0x28
  50:	9008      	str	r0, [sp, #32]
  52:	f104 0029 	add.w	r0, r4, #41	; 0x29
  56:	e9cd 602a 	strd	r6, r0, [sp, #168]	; 0xa8
  5a:	4629      	mov	r1, r5
  5c:	902d      	str	r0, [sp, #180]	; 0xb4
  5e:	4668      	mov	r0, sp
  60:	4642      	mov	r2, r8
  62:	f7ff fffe 	bl	0 <stbi_info_from_callbacks>
  66:	4907      	ldr	r1, [pc, #28]	; (84 <stbi_info_from_callbacks+0x84>)
  68:	9a2f      	ldr	r2, [sp, #188]	; 0xbc
  6a:	4479      	add	r1, pc
  6c:	6809      	ldr	r1, [r1, #0]
  6e:	6809      	ldr	r1, [r1, #0]
  70:	1a89      	subs	r1, r1, r2
  72:	bf02      	ittt	eq
  74:	b030      	addeq	sp, #192	; 0xc0
  76:	f85d 8b04 	ldreq.w	r8, [sp], #4
  7a:	bdf0      	popeq	{r4, r5, r6, r7, pc}
  7c:	f7ff fffe 	bl	0 <__stack_chk_fail>
  80:	0000006a 	.word	0x0000006a
  84:	00000016 	.word	0x00000016

Disassembly of section .text.stbi_is_16_bit_from_memory:

00000000 <stbi_is_16_bit_from_memory>:
   0:	b580      	push	{r7, lr}
   2:	466f      	mov	r7, sp
   4:	b0b0      	sub	sp, #192	; 0xc0
   6:	4a0d      	ldr	r2, [pc, #52]	; (3c <stbi_is_16_bit_from_memory+0x3c>)
   8:	447a      	add	r2, pc
   a:	6812      	ldr	r2, [r2, #0]
   c:	6812      	ldr	r2, [r2, #0]
   e:	922f      	str	r2, [sp, #188]	; 0xbc
  10:	2200      	movs	r2, #0
  12:	9209      	str	r2, [sp, #36]	; 0x24
  14:	9205      	str	r2, [sp, #20]
  16:	902d      	str	r0, [sp, #180]	; 0xb4
  18:	902b      	str	r0, [sp, #172]	; 0xac
  1a:	4408      	add	r0, r1
  1c:	902e      	str	r0, [sp, #184]	; 0xb8
  1e:	902c      	str	r0, [sp, #176]	; 0xb0
  20:	a801      	add	r0, sp, #4
  22:	f7ff fffe 	bl	0 <stbi_is_16_bit_from_memory>
  26:	4906      	ldr	r1, [pc, #24]	; (40 <stbi_is_16_bit_from_memory+0x40>)
  28:	9a2f      	ldr	r2, [sp, #188]	; 0xbc
  2a:	4479      	add	r1, pc
  2c:	6809      	ldr	r1, [r1, #0]
  2e:	6809      	ldr	r1, [r1, #0]
  30:	1a89      	subs	r1, r1, r2
  32:	bf04      	itt	eq
  34:	b030      	addeq	sp, #192	; 0xc0
  36:	bd80      	popeq	{r7, pc}
  38:	f7ff fffe 	bl	0 <__stack_chk_fail>
  3c:	00000030 	.word	0x00000030
  40:	00000012 	.word	0x00000012

Disassembly of section .text.stbi_is_16_bit_from_callbacks:

00000000 <stbi_is_16_bit_from_callbacks>:
   0:	b5b0      	push	{r4, r5, r7, lr}
   2:	af02      	add	r7, sp, #8
   4:	b0b0      	sub	sp, #192	; 0xc0
   6:	4a1a      	ldr	r2, [pc, #104]	; (70 <stbi_is_16_bit_from_callbacks+0x70>)
   8:	466d      	mov	r5, sp
   a:	f105 0428 	add.w	r4, r5, #40	; 0x28
   e:	447a      	add	r2, pc
  10:	6812      	ldr	r2, [r2, #0]
  12:	6812      	ldr	r2, [r2, #0]
  14:	922f      	str	r2, [sp, #188]	; 0xbc
  16:	2280      	movs	r2, #128	; 0x80
  18:	edd0 0b00 	vldr	d16, [r0]
  1c:	6880      	ldr	r0, [r0, #8]
  1e:	e9cd 0106 	strd	r0, r1, [sp, #24]
  22:	2080      	movs	r0, #128	; 0x80
  24:	9009      	str	r0, [sp, #36]	; 0x24
  26:	2001      	movs	r0, #1
  28:	9008      	str	r0, [sp, #32]
  2a:	4608      	mov	r0, r1
  2c:	edcd 0b04 	vstr	d16, [sp, #16]
  30:	4621      	mov	r1, r4
  32:	9b04      	ldr	r3, [sp, #16]
  34:	942c      	str	r4, [sp, #176]	; 0xb0
  36:	4798      	blx	r3
  38:	b110      	cbz	r0, 40 <stbi_is_16_bit_from_callbacks+0x40>
  3a:	4428      	add	r0, r5
  3c:	3028      	adds	r0, #40	; 0x28
  3e:	e005      	b.n	4c <stbi_is_16_bit_from_callbacks+0x4c>
  40:	2000      	movs	r0, #0
  42:	f88d 0028 	strb.w	r0, [sp, #40]	; 0x28
  46:	9008      	str	r0, [sp, #32]
  48:	f105 0029 	add.w	r0, r5, #41	; 0x29
  4c:	e9cd 402a 	strd	r4, r0, [sp, #168]	; 0xa8
  50:	902d      	str	r0, [sp, #180]	; 0xb4
  52:	4668      	mov	r0, sp
  54:	f7ff fffe 	bl	0 <stbi_is_16_bit_from_callbacks>
  58:	4906      	ldr	r1, [pc, #24]	; (74 <stbi_is_16_bit_from_callbacks+0x74>)
  5a:	9a2f      	ldr	r2, [sp, #188]	; 0xbc
  5c:	4479      	add	r1, pc
  5e:	6809      	ldr	r1, [r1, #0]
  60:	6809      	ldr	r1, [r1, #0]
  62:	1a89      	subs	r1, r1, r2
  64:	bf04      	itt	eq
  66:	b030      	addeq	sp, #192	; 0xc0
  68:	bdb0      	popeq	{r4, r5, r7, pc}
  6a:	f7ff fffe 	bl	0 <__stack_chk_fail>
  6e:	bf00      	nop
  70:	0000005e 	.word	0x0000005e
  74:	00000014 	.word	0x00000014

Disassembly of section .text.stbi_flip_vertically_on_write:

00000000 <stbi_flip_vertically_on_write>:
   0:	4901      	ldr	r1, [pc, #4]	; (8 <stbi_flip_vertically_on_write+0x8>)
   2:	4479      	add	r1, pc
   4:	6148      	str	r0, [r1, #20]
   6:	4770      	bx	lr
   8:	00000032 	.word	0x00000032

Disassembly of section .text.stbi_write_bmp_to_func:

00000000 <stbi_write_bmp_to_func>:
   0:	b5f0      	push	{r4, r5, r6, r7, lr}
   2:	af03      	add	r7, sp, #12
   4:	f84d 8d04 	str.w	r8, [sp, #-4]!
   8:	b09c      	sub	sp, #112	; 0x70
   a:	4c24      	ldr	r4, [pc, #144]	; (9c <stbi_write_bmp_to_func+0x9c>)
   c:	eba2 0582 	sub.w	r5, r2, r2, lsl #2
  10:	eb02 0642 	add.w	r6, r2, r2, lsl #1
  14:	f005 0e03 	and.w	lr, r5, #3
  18:	447c      	add	r4, pc
  1a:	eb0e 0506 	add.w	r5, lr, r6
  1e:	f8df 8080 	ldr.w	r8, [pc, #128]	; a0 <stbi_write_bmp_to_func+0xa0>
  22:	6824      	ldr	r4, [r4, #0]
  24:	435d      	muls	r5, r3
  26:	f8d7 c008 	ldr.w	ip, [r7, #8]
  2a:	44f8      	add	r8, pc
  2c:	6824      	ldr	r4, [r4, #0]
  2e:	941b      	str	r4, [sp, #108]	; 0x6c
  30:	2401      	movs	r4, #1
  32:	e9cd 0119 	strd	r0, r1, [sp, #100]	; 0x64
  36:	2018      	movs	r0, #24
  38:	9011      	str	r0, [sp, #68]	; 0x44
  3a:	2028      	movs	r0, #40	; 0x28
  3c:	900d      	str	r0, [sp, #52]	; 0x34
  3e:	2036      	movs	r0, #54	; 0x36
  40:	900c      	str	r0, [sp, #48]	; 0x30
  42:	f105 0036 	add.w	r0, r5, #54	; 0x36
  46:	9009      	str	r0, [sp, #36]	; 0x24
  48:	204d      	movs	r0, #77	; 0x4d
  4a:	9008      	str	r0, [sp, #32]
  4c:	2042      	movs	r0, #66	; 0x42
  4e:	68f9      	ldr	r1, [r7, #12]
  50:	ad0e      	add	r5, sp, #56	; 0x38
  52:	9007      	str	r0, [sp, #28]
  54:	2000      	movs	r0, #0
  56:	e9cd 0016 	strd	r0, r0, [sp, #88]	; 0x58
  5a:	e9cd 0014 	strd	r0, r0, [sp, #80]	; 0x50
  5e:	e9cd 0012 	strd	r0, r0, [sp, #72]	; 0x48
  62:	f8cd 8018 	str.w	r8, [sp, #24]
  66:	c51c      	stmia	r5!, {r2, r3, r4}
  68:	e9cd 000a 	strd	r0, r0, [sp, #40]	; 0x28
  6c:	e9cd 0e04 	strd	r0, lr, [sp, #16]
  70:	a819      	add	r0, sp, #100	; 0x64
  72:	e9cd 4102 	strd	r4, r1, [sp, #8]
  76:	e9cd 3c00 	strd	r3, ip, [sp]
  7a:	4613      	mov	r3, r2
  7c:	f7ff fffe 	bl	0 <stbi_write_bmp_to_func>
  80:	4908      	ldr	r1, [pc, #32]	; (a4 <stbi_write_bmp_to_func+0xa4>)
  82:	9a1b      	ldr	r2, [sp, #108]	; 0x6c
  84:	4479      	add	r1, pc
  86:	6809      	ldr	r1, [r1, #0]
  88:	6809      	ldr	r1, [r1, #0]
  8a:	1a89      	subs	r1, r1, r2
  8c:	bf02      	ittt	eq
  8e:	b01c      	addeq	sp, #112	; 0x70
  90:	f85d 8b04 	ldreq.w	r8, [sp], #4
  94:	bdf0      	popeq	{r4, r5, r6, r7, pc}
  96:	f7ff fffe 	bl	0 <__stack_chk_fail>
  9a:	bf00      	nop
  9c:	00000080 	.word	0x00000080
  a0:	00000072 	.word	0x00000072
  a4:	0000001c 	.word	0x0000001c

Disassembly of section .text.stbi_write_bmp:

00000000 <stbi_write_bmp>:
   0:	b5f0      	push	{r4, r5, r6, r7, lr}
   2:	af03      	add	r7, sp, #12
   4:	e92d 0b00 	stmdb	sp!, {r8, r9, fp}
   8:	b09c      	sub	sp, #112	; 0x70
   a:	460c      	mov	r4, r1
   c:	492a      	ldr	r1, [pc, #168]	; (b8 <stbi_write_bmp+0xb8>)
   e:	4698      	mov	r8, r3
  10:	4691      	mov	r9, r2
  12:	4479      	add	r1, pc
  14:	6809      	ldr	r1, [r1, #0]
  16:	6809      	ldr	r1, [r1, #0]
  18:	911b      	str	r1, [sp, #108]	; 0x6c
  1a:	a128      	add	r1, pc, #160	; (adr r1, bc <stbi_write_bmp+0xbc>)
  1c:	f7ff fffe 	bl	0 <fopen>
  20:	4606      	mov	r6, r0
  22:	4827      	ldr	r0, [pc, #156]	; (c0 <stbi_write_bmp+0xc0>)
  24:	2500      	movs	r5, #0
  26:	2e00      	cmp	r6, #0
  28:	4478      	add	r0, pc
  2a:	e9cd 0619 	strd	r0, r6, [sp, #100]	; 0x64
  2e:	d034      	beq.n	9a <stbi_write_bmp+0x9a>
  30:	eba4 0184 	sub.w	r1, r4, r4, lsl #2
  34:	eb04 0044 	add.w	r0, r4, r4, lsl #1
  38:	f001 0103 	and.w	r1, r1, #3
  3c:	2218      	movs	r2, #24
  3e:	4408      	add	r0, r1
  40:	2301      	movs	r3, #1
  42:	e9cd 3210 	strd	r3, r2, [sp, #64]	; 0x40
  46:	2228      	movs	r2, #40	; 0x28
  48:	fb00 f009 	mul.w	r0, r0, r9
  4c:	e9cd 5512 	strd	r5, r5, [sp, #72]	; 0x48
  50:	e9cd 5514 	strd	r5, r5, [sp, #80]	; 0x50
  54:	e9cd 5516 	strd	r5, r5, [sp, #88]	; 0x58
  58:	e9cd 490e 	strd	r4, r9, [sp, #56]	; 0x38
  5c:	920d      	str	r2, [sp, #52]	; 0x34
  5e:	2236      	movs	r2, #54	; 0x36
  60:	f8d7 e008 	ldr.w	lr, [r7, #8]
  64:	3036      	adds	r0, #54	; 0x36
  66:	f8df c05c 	ldr.w	ip, [pc, #92]	; c4 <stbi_write_bmp+0xc4>
  6a:	920c      	str	r2, [sp, #48]	; 0x30
  6c:	224d      	movs	r2, #77	; 0x4d
  6e:	e9cd 550a 	strd	r5, r5, [sp, #40]	; 0x28
  72:	44fc      	add	ip, pc
  74:	9208      	str	r2, [sp, #32]
  76:	2242      	movs	r2, #66	; 0x42
  78:	e9cd 9800 	strd	r9, r8, [sp]
  7c:	e9cd 3e02 	strd	r3, lr, [sp, #8]
  80:	4623      	mov	r3, r4
  82:	e9cd 5104 	strd	r5, r1, [sp, #16]
  86:	e9cd c206 	strd	ip, r2, [sp, #24]
  8a:	9009      	str	r0, [sp, #36]	; 0x24
  8c:	a819      	add	r0, sp, #100	; 0x64
  8e:	f7ff fffe 	bl	0 <stbi_write_bmp>
  92:	4605      	mov	r5, r0
  94:	4630      	mov	r0, r6
  96:	f7ff fffe 	bl	0 <fclose>
  9a:	480b      	ldr	r0, [pc, #44]	; (c8 <stbi_write_bmp+0xc8>)
  9c:	991b      	ldr	r1, [sp, #108]	; 0x6c
  9e:	4478      	add	r0, pc
  a0:	6800      	ldr	r0, [r0, #0]
  a2:	6800      	ldr	r0, [r0, #0]
  a4:	1a40      	subs	r0, r0, r1
  a6:	bf01      	itttt	eq
  a8:	4628      	moveq	r0, r5
  aa:	b01c      	addeq	sp, #112	; 0x70
  ac:	e8bd 0b00 	ldmiaeq.w	sp!, {r8, r9, fp}
  b0:	bdf0      	popeq	{r4, r5, r6, r7, pc}
  b2:	f7ff fffe 	bl	0 <__stack_chk_fail>
  b6:	bf00      	nop
  b8:	000000a2 	.word	0x000000a2
  bc:	00006277 	.word	0x00006277
  c0:	00000094 	.word	0x00000094
  c4:	0000004e 	.word	0x0000004e
  c8:	00000026 	.word	0x00000026

Disassembly of section .text.stbi_write_tga_to_func:

00000000 <stbi_write_tga_to_func>:
   0:	b5b0      	push	{r4, r5, r7, lr}
   2:	af02      	add	r7, sp, #8
   4:	b084      	sub	sp, #16
   6:	f8df c040 	ldr.w	ip, [pc, #64]	; 48 <stbi_write_tga_to_func+0x48>
   a:	44fc      	add	ip, pc
   c:	f8dc e000 	ldr.w	lr, [ip]
  10:	e9d7 c402 	ldrd	ip, r4, [r7, #8]
  14:	f8de 5000 	ldr.w	r5, [lr]
  18:	f10d 0e04 	add.w	lr, sp, #4
  1c:	9503      	str	r5, [sp, #12]
  1e:	9102      	str	r1, [sp, #8]
  20:	4611      	mov	r1, r2
  22:	e9cd 4000 	strd	r4, r0, [sp]
  26:	461a      	mov	r2, r3
  28:	4670      	mov	r0, lr
  2a:	4663      	mov	r3, ip
  2c:	f7ff fffe 	bl	0 <stbi_write_tga_to_func>
  30:	4906      	ldr	r1, [pc, #24]	; (4c <stbi_write_tga_to_func+0x4c>)
  32:	9a03      	ldr	r2, [sp, #12]
  34:	4479      	add	r1, pc
  36:	6809      	ldr	r1, [r1, #0]
  38:	6809      	ldr	r1, [r1, #0]
  3a:	1a89      	subs	r1, r1, r2
  3c:	bf04      	itt	eq
  3e:	b004      	addeq	sp, #16
  40:	bdb0      	popeq	{r4, r5, r7, pc}
  42:	f7ff fffe 	bl	0 <__stack_chk_fail>
  46:	bf00      	nop
  48:	0000003a 	.word	0x0000003a
  4c:	00000014 	.word	0x00000014

Disassembly of section .text._ZL19stbi_write_tga_coreP19stbi__write_contextiiiPv:

00000000 <_ZL19stbi_write_tga_coreP19stbi__write_contextiiiPv>:
   0:	b5f0      	push	{r4, r5, r6, r7, lr}
   2:	af03      	add	r7, sp, #12
   4:	e92d 0f00 	stmdb	sp!, {r8, r9, sl, fp}
   8:	b0a5      	sub	sp, #148	; 0x94
   a:	4680      	mov	r8, r0
   c:	48a9      	ldr	r0, [pc, #676]	; (2b4 <_ZL19stbi_write_tga_coreP19stbi__write_contextiiiPv+0x2b4>)
   e:	461e      	mov	r6, r3
  10:	2e04      	cmp	r6, #4
  12:	4478      	add	r0, pc
  14:	f04f 0500 	mov.w	r5, #0
  18:	f04f 0300 	mov.w	r3, #0
  1c:	f04f 0e02 	mov.w	lr, #2
  20:	6800      	ldr	r0, [r0, #0]
  22:	4614      	mov	r4, r2
  24:	6800      	ldr	r0, [r0, #0]
  26:	9024      	str	r0, [sp, #144]	; 0x90
  28:	bf08      	it	eq
  2a:	2501      	moveq	r5, #1
  2c:	2e02      	cmp	r6, #2
  2e:	f04f 0000 	mov.w	r0, #0
  32:	bf08      	it	eq
  34:	2301      	moveq	r3, #1
  36:	ea43 0905 	orr.w	r9, r3, r5
  3a:	ea42 0301 	orr.w	r3, r2, r1
  3e:	eba6 0c09 	sub.w	ip, r6, r9
  42:	f1bc 0f02 	cmp.w	ip, #2
  46:	bfb8      	it	lt
  48:	f04f 0e03 	movlt.w	lr, #3
  4c:	2b00      	cmp	r3, #0
  4e:	f2c0 8101 	blt.w	254 <_ZL19stbi_write_tga_coreP19stbi__write_contextiiiPv+0x254>
  52:	4899      	ldr	r0, [pc, #612]	; (2b8 <_ZL19stbi_write_tga_coreP19stbi__write_contextiiiPv+0x2b8>)
  54:	f8d7 a008 	ldr.w	sl, [r7, #8]
  58:	4478      	add	r0, pc
  5a:	6980      	ldr	r0, [r0, #24]
  5c:	2800      	cmp	r0, #0
  5e:	f000 80fc 	beq.w	25a <_ZL19stbi_write_tga_coreP19stbi__write_contextiiiPv+0x25a>
  62:	ea4f 00c9 	mov.w	r0, r9, lsl #3
  66:	2500      	movs	r5, #0
  68:	9009      	str	r0, [sp, #36]	; 0x24
  6a:	f04e 0008 	orr.w	r0, lr, #8
  6e:	e9cd 0500 	strd	r0, r5, [sp]
  72:	eb0c 0009 	add.w	r0, ip, r9
  76:	468b      	mov	fp, r1
  78:	e9cd 5502 	strd	r5, r5, [sp, #8]
  7c:	00c0      	lsls	r0, r0, #3
  7e:	e9cd 5504 	strd	r5, r5, [sp, #16]
  82:	e9cd b406 	strd	fp, r4, [sp, #24]
  86:	2200      	movs	r2, #0
  88:	9008      	str	r0, [sp, #32]
  8a:	4640      	mov	r0, r8
  8c:	2300      	movs	r3, #0
  8e:	f7ff fffe 	bl	0 <_ZL19stbi_write_tga_coreP19stbi__write_contextiiiPv>
  92:	488a      	ldr	r0, [pc, #552]	; (2bc <_ZL19stbi_write_tga_coreP19stbi__write_contextiiiPv+0x2bc>)
  94:	2201      	movs	r2, #1
  96:	4478      	add	r0, pc
  98:	6940      	ldr	r0, [r0, #20]
  9a:	2800      	cmp	r0, #0
  9c:	f04f 0001 	mov.w	r0, #1
  a0:	bf08      	it	eq
  a2:	1e65      	subeq	r5, r4, #1
  a4:	bf04      	itt	eq
  a6:	f04f 32ff 	moveq.w	r2, #4294967295	; 0xffffffff
  aa:	f04f 34ff 	moveq.w	r4, #4294967295	; 0xffffffff
  ae:	42a5      	cmp	r5, r4
  b0:	9415      	str	r4, [sp, #84]	; 0x54
  b2:	f000 80cf 	beq.w	254 <_ZL19stbi_write_tga_coreP19stbi__write_contextiiiPv+0x254>
  b6:	fb05 f006 	mul.w	r0, r5, r6
  ba:	f8cd 907c 	str.w	r9, [sp, #124]	; 0x7c
  be:	f8cd a060 	str.w	sl, [sp, #96]	; 0x60
  c2:	fb02 f106 	mul.w	r1, r2, r6
  c6:	921e      	str	r2, [sp, #120]	; 0x78
  c8:	fb05 f30b 	mul.w	r3, r5, fp
  cc:	fb00 a00b 	mla	r0, r0, fp, sl
  d0:	fb06 f40b 	mul.w	r4, r6, fp
  d4:	9317      	str	r3, [sp, #92]	; 0x5c
  d6:	901b      	str	r0, [sp, #108]	; 0x6c
  d8:	fb01 f00b 	mul.w	r0, r1, fp
  dc:	9413      	str	r4, [sp, #76]	; 0x4c
  de:	465c      	mov	r4, fp
  e0:	9014      	str	r0, [sp, #80]	; 0x50
  e2:	1c98      	adds	r0, r3, #2
  e4:	9016      	str	r0, [sp, #88]	; 0x58
  e6:	f1ab 0001 	sub.w	r0, fp, #1
  ea:	e9cd 401c 	strd	r4, r0, [sp, #112]	; 0x70
  ee:	2c01      	cmp	r4, #1
  f0:	f2c0 80a3 	blt.w	23a <_ZL19stbi_write_tga_coreP19stbi__write_contextiiiPv+0x23a>
  f4:	9913      	ldr	r1, [sp, #76]	; 0x4c
  f6:	f04f 0a00 	mov.w	sl, #0
  fa:	68b8      	ldr	r0, [r7, #8]
  fc:	9520      	str	r5, [sp, #128]	; 0x80
  fe:	fb01 0005 	mla	r0, r1, r5, r0
