
/mnt/d/ubuntuData/myOpenSource/ArmNeonOptimization/armAssembly/build_android/CMakeFiles/assemblyEx2Rgb2Gray.dir/assemblyEx2Rgb2Gray.cpp.o:     file format elf64-littleaarch64


Disassembly of section .text.stbi_failure_reason:

0000000000000000 <stbi_failure_reason>:
   0:	90000008 	adrp	x8, 0 <stbi_failure_reason>
   4:	91000108 	add	x8, x8, #0x0
   8:	f9400900 	ldr	x0, [x8,#16]
   c:	d65f03c0 	ret

Disassembly of section .text.stbi_image_free:

0000000000000000 <stbi_image_free>:
   0:	14000000 	b	0 <free>

Disassembly of section .text.stbi_set_flip_vertically_on_load:

0000000000000000 <stbi_set_flip_vertically_on_load>:
   0:	90000008 	adrp	x8, 0 <stbi_set_flip_vertically_on_load>
   4:	b9000100 	str	w0, [x8]
   8:	d65f03c0 	ret

Disassembly of section .text.stbi_load:

0000000000000000 <stbi_load>:
   0:	d10503ff 	sub	sp, sp, #0x140
   4:	f90073fc 	str	x28, [sp,#224]
   8:	a90f67fa 	stp	x26, x25, [sp,#240]
   c:	a9105ff8 	stp	x24, x23, [sp,#256]
  10:	a91157f6 	stp	x22, x21, [sp,#272]
  14:	a9124ff4 	stp	x20, x19, [sp,#288]
  18:	a9137bfd 	stp	x29, x30, [sp,#304]
  1c:	9104c3fd 	add	x29, sp, #0x130
  20:	d53bd059 	mrs	x25, tpidr_el0
  24:	f9401728 	ldr	x8, [x25,#40]
  28:	aa0103f7 	mov	x23, x1
  2c:	90000001 	adrp	x1, 0 <stbi_load>
  30:	91000021 	add	x1, x1, #0x0
  34:	2a0403f4 	mov	w20, w4
  38:	aa0303f5 	mov	x21, x3
  3c:	aa0203f6 	mov	x22, x2
  40:	f81a83a8 	stur	x8, [x29,#-88]
  44:	94000000 	bl	0 <fopen>
  48:	aa0003f3 	mov	x19, x0
  4c:	b40002d3 	cbz	x19, a4 <stbi_load+0xa4>
  50:	90000008 	adrp	x8, 0 <stbi_load>
  54:	91000108 	add	x8, x8, #0x0
  58:	3dc00100 	ldr	q0, [x8]
  5c:	f9400908 	ldr	x8, [x8,#16]
  60:	910003fa 	mov	x26, sp
  64:	b21903e9 	mov	x9, #0x8000000080          	// #549755814016
  68:	3d8007e0 	str	q0, [sp,#16]
  6c:	a9024fe8 	stp	x8, x19, [sp,#32]
  70:	f9400be8 	ldr	x8, [sp,#16]
  74:	9100e358 	add	x24, x26, #0x38
  78:	f2800029 	movk	x9, #0x1
  7c:	321903e2 	orr	w2, wzr, #0x80
  80:	aa1303e0 	mov	x0, x19
  84:	aa1803e1 	mov	x1, x24
  88:	f9001be9 	str	x9, [sp,#48]
  8c:	f90067f8 	str	x24, [sp,#200]
  90:	d63f0100 	blr	x8
  94:	34000160 	cbz	w0, c0 <stbi_load+0xc0>
  98:	8b20c348 	add	x8, x26, w0, sxtw
  9c:	9100e108 	add	x8, x8, #0x38
  a0:	1400000b 	b	cc <stbi_load+0xcc>
  a4:	90000008 	adrp	x8, 0 <stbi_load>
  a8:	90000009 	adrp	x9, 0 <stbi_load>
  ac:	91000108 	add	x8, x8, #0x0
  b0:	91000129 	add	x9, x9, #0x0
  b4:	aa1f03f4 	mov	x20, xzr
  b8:	f9000909 	str	x9, [x8,#16]
  bc:	14000017 	b	118 <stbi_load+0x118>
  c0:	b90033ff 	str	wzr, [sp,#48]
  c4:	9100e748 	add	x8, x26, #0x39
  c8:	3900e3ff 	strb	wzr, [sp,#56]
  cc:	910003e0 	mov	x0, sp
  d0:	aa1703e1 	mov	x1, x23
  d4:	aa1603e2 	mov	x2, x22
  d8:	aa1503e3 	mov	x3, x21
  dc:	2a1403e4 	mov	w4, w20
  e0:	a90ba3f8 	stp	x24, x8, [sp,#184]
  e4:	f9006be8 	str	x8, [sp,#208]
  e8:	94000000 	bl	0 <stbi_load>
  ec:	aa0003f4 	mov	x20, x0
  f0:	b4000114 	cbz	x20, 110 <stbi_load+0x110>
  f4:	b940c3e8 	ldr	w8, [sp,#192]
  f8:	b940bbe9 	ldr	w9, [sp,#184]
  fc:	320003e2 	orr	w2, wzr, #0x1
 100:	aa1303e0 	mov	x0, x19
 104:	4b080128 	sub	w8, w9, w8
 108:	93407d01 	sxtw	x1, w8
 10c:	94000000 	bl	0 <fseek>
 110:	aa1303e0 	mov	x0, x19
 114:	94000000 	bl	0 <fclose>
 118:	f9401728 	ldr	x8, [x25,#40]
 11c:	f85a83a9 	ldur	x9, [x29,#-88]
 120:	eb09011f 	cmp	x8, x9
 124:	54000141 	b.ne	14c <stbi_load+0x14c>
 128:	aa1403e0 	mov	x0, x20
 12c:	a9537bfd 	ldp	x29, x30, [sp,#304]
 130:	a9524ff4 	ldp	x20, x19, [sp,#288]
 134:	a95157f6 	ldp	x22, x21, [sp,#272]
 138:	a9505ff8 	ldp	x24, x23, [sp,#256]
 13c:	a94f67fa 	ldp	x26, x25, [sp,#240]
 140:	f94073fc 	ldr	x28, [sp,#224]
 144:	910503ff 	add	sp, sp, #0x140
 148:	d65f03c0 	ret
 14c:	94000000 	bl	0 <__stack_chk_fail>

Disassembly of section .text.stbi_load_from_file:

0000000000000000 <stbi_load_from_file>:
   0:	d10503ff 	sub	sp, sp, #0x140
   4:	f90073fc 	str	x28, [sp,#224]
   8:	a90f67fa 	stp	x26, x25, [sp,#240]
   c:	a9105ff8 	stp	x24, x23, [sp,#256]
  10:	a91157f6 	stp	x22, x21, [sp,#272]
  14:	a9124ff4 	stp	x20, x19, [sp,#288]
  18:	a9137bfd 	stp	x29, x30, [sp,#304]
  1c:	9104c3fd 	add	x29, sp, #0x130
  20:	d53bd059 	mrs	x25, tpidr_el0
  24:	f9401728 	ldr	x8, [x25,#40]
  28:	90000009 	adrp	x9, 0 <stbi_load_from_file>
  2c:	91000129 	add	x9, x9, #0x0
  30:	aa0003f3 	mov	x19, x0
  34:	f81a83a8 	stur	x8, [x29,#-88]
  38:	3dc00120 	ldr	q0, [x9]
  3c:	f9400928 	ldr	x8, [x9,#16]
  40:	910003fa 	mov	x26, sp
  44:	b21903e9 	mov	x9, #0x8000000080          	// #549755814016
  48:	3d8007e0 	str	q0, [sp,#16]
  4c:	a9024fe8 	stp	x8, x19, [sp,#32]
  50:	f9400be8 	ldr	x8, [sp,#16]
  54:	9100e358 	add	x24, x26, #0x38
  58:	aa0203f6 	mov	x22, x2
  5c:	f2800029 	movk	x9, #0x1
  60:	aa0103f7 	mov	x23, x1
  64:	321903e2 	orr	w2, wzr, #0x80
  68:	aa1803e1 	mov	x1, x24
  6c:	2a0403f4 	mov	w20, w4
  70:	aa0303f5 	mov	x21, x3
  74:	f9001be9 	str	x9, [sp,#48]
  78:	f90067f8 	str	x24, [sp,#200]
  7c:	d63f0100 	blr	x8
  80:	34000080 	cbz	w0, 90 <stbi_load_from_file+0x90>
  84:	8b20c348 	add	x8, x26, w0, sxtw
  88:	9100e108 	add	x8, x8, #0x38
  8c:	14000004 	b	9c <stbi_load_from_file+0x9c>
  90:	b90033ff 	str	wzr, [sp,#48]
  94:	9100e748 	add	x8, x26, #0x39
  98:	3900e3ff 	strb	wzr, [sp,#56]
  9c:	910003e0 	mov	x0, sp
  a0:	aa1703e1 	mov	x1, x23
  a4:	aa1603e2 	mov	x2, x22
  a8:	aa1503e3 	mov	x3, x21
  ac:	2a1403e4 	mov	w4, w20
  b0:	a90ba3f8 	stp	x24, x8, [sp,#184]
  b4:	f9006be8 	str	x8, [sp,#208]
  b8:	94000000 	bl	0 <stbi_load_from_file>
  bc:	aa0003f4 	mov	x20, x0
  c0:	b4000114 	cbz	x20, e0 <stbi_load_from_file+0xe0>
  c4:	b940c3e8 	ldr	w8, [sp,#192]
  c8:	b940bbe9 	ldr	w9, [sp,#184]
  cc:	320003e2 	orr	w2, wzr, #0x1
  d0:	aa1303e0 	mov	x0, x19
  d4:	4b080128 	sub	w8, w9, w8
  d8:	93407d01 	sxtw	x1, w8
  dc:	94000000 	bl	0 <fseek>
  e0:	f9401728 	ldr	x8, [x25,#40]
  e4:	f85a83a9 	ldur	x9, [x29,#-88]
  e8:	eb09011f 	cmp	x8, x9
  ec:	54000141 	b.ne	114 <stbi_load_from_file+0x114>
  f0:	aa1403e0 	mov	x0, x20
  f4:	a9537bfd 	ldp	x29, x30, [sp,#304]
  f8:	a9524ff4 	ldp	x20, x19, [sp,#288]
  fc:	a95157f6 	ldp	x22, x21, [sp,#272]
 100:	a9505ff8 	ldp	x24, x23, [sp,#256]
 104:	a94f67fa 	ldp	x26, x25, [sp,#240]
 108:	f94073fc 	ldr	x28, [sp,#224]
 10c:	910503ff 	add	sp, sp, #0x140
 110:	d65f03c0 	ret
 114:	94000000 	bl	0 <__stack_chk_fail>

Disassembly of section .text._ZL31stbi__load_and_postprocess_8bitP13stbi__contextPiS1_S1_i:

0000000000000000 <_ZL31stbi__load_and_postprocess_8bitP13stbi__contextPiS1_S1_i>:
   0:	a9ba6ffc 	stp	x28, x27, [sp,#-96]!
   4:	a90167fa 	stp	x26, x25, [sp,#16]
   8:	a9025ff8 	stp	x24, x23, [sp,#32]
   c:	a90357f6 	stp	x22, x21, [sp,#48]
  10:	a9044ff4 	stp	x20, x19, [sp,#64]
  14:	a9057bfd 	stp	x29, x30, [sp,#80]
  18:	910143fd 	add	x29, sp, #0x50
  1c:	d120c3ff 	sub	sp, sp, #0x830
  20:	d53bd05a 	mrs	x26, tpidr_el0
  24:	f9401748 	ldr	x8, [x26,#40]
  28:	910063e5 	add	x5, sp, #0x18
  2c:	321d03e6 	orr	w6, wzr, #0x8
  30:	2a0403f4 	mov	w20, w4
  34:	aa0303f7 	mov	x23, x3
  38:	aa0203f6 	mov	x22, x2
  3c:	aa0103f5 	mov	x21, x1
  40:	f81a83a8 	stur	x8, [x29,#-88]
  44:	94000000 	bl	0 <_ZL31stbi__load_and_postprocess_8bitP13stbi__contextPiS1_S1_i>
  48:	aa0003f3 	mov	x19, x0
  4c:	b4000cf3 	cbz	x19, 1e8 <_ZL31stbi__load_and_postprocess_8bitP13stbi__contextPiS1_S1_i+0x1e8>
  50:	b9401be8 	ldr	w8, [sp,#24]
  54:	7100211f 	cmp	w8, #0x8
  58:	540006e0 	b.eq	134 <_ZL31stbi__load_and_postprocess_8bitP13stbi__contextPiS1_S1_i+0x134>
  5c:	7100411f 	cmp	w8, #0x10
  60:	54000e01 	b.ne	220 <_ZL31stbi__load_and_postprocess_8bitP13stbi__contextPiS1_S1_i+0x220>
  64:	b94002a8 	ldr	w8, [x21]
  68:	b94002c9 	ldr	w9, [x22]
  6c:	2a1403ea 	mov	w10, w20
  70:	35000054 	cbnz	w20, 78 <_ZL31stbi__load_and_postprocess_8bitP13stbi__contextPiS1_S1_i+0x78>
  74:	b94002ea 	ldr	w10, [x23]
  78:	1b087d28 	mul	w8, w9, w8
  7c:	1b0a7d19 	mul	w25, w8, w10
  80:	93407f20 	sxtw	x0, w25
  84:	94000000 	bl	0 <malloc>
  88:	aa0003f8 	mov	x24, x0
  8c:	b4000118 	cbz	x24, ac <_ZL31stbi__load_and_postprocess_8bitP13stbi__contextPiS1_S1_i+0xac>
  90:	7100073f 	cmp	w25, #0x1
  94:	5400046b 	b.lt	120 <_ZL31stbi__load_and_postprocess_8bitP13stbi__contextPiS1_S1_i+0x120>
  98:	71003f3f 	cmp	w25, #0xf
  9c:	2a1903e8 	mov	w8, w25
  a0:	54000128 	b.hi	c4 <_ZL31stbi__load_and_postprocess_8bitP13stbi__contextPiS1_S1_i+0xc4>
  a4:	aa1f03e9 	mov	x9, xzr
  a8:	14000016 	b	100 <_ZL31stbi__load_and_postprocess_8bitP13stbi__contextPiS1_S1_i+0x100>
  ac:	90000008 	adrp	x8, 0 <_ZL31stbi__load_and_postprocess_8bitP13stbi__contextPiS1_S1_i>
  b0:	90000009 	adrp	x9, 0 <_ZL31stbi__load_and_postprocess_8bitP13stbi__contextPiS1_S1_i>
  b4:	91000108 	add	x8, x8, #0x0
  b8:	91000129 	add	x9, x9, #0x0
  bc:	f9000909 	str	x9, [x8,#16]
  c0:	1400001a 	b	128 <_ZL31stbi__load_and_postprocess_8bitP13stbi__contextPiS1_S1_i+0x128>
  c4:	12000f2a 	and	w10, w25, #0xf
  c8:	cb0a0109 	sub	x9, x8, x10
  cc:	b40001a9 	cbz	x9, 100 <_ZL31stbi__load_and_postprocess_8bitP13stbi__contextPiS1_S1_i+0x100>
  d0:	9100426b 	add	x11, x19, #0x10
  d4:	9100230c 	add	x12, x24, #0x8
  d8:	aa0903ed 	mov	x13, x9
  dc:	ad7f8560 	ldp	q0, q1, [x11,#-16]
  e0:	9100816b 	add	x11, x11, #0x20
  e4:	d10041ad 	sub	x13, x13, #0x10
  e8:	0f088400 	shrn	v0.8b, v0.8h, #8
  ec:	0f088421 	shrn	v1.8b, v1.8h, #8
  f0:	6d3f8580 	stp	d0, d1, [x12,#-8]
  f4:	9100418c 	add	x12, x12, #0x10
  f8:	b5ffff2d 	cbnz	x13, dc <_ZL31stbi__load_and_postprocess_8bitP13stbi__contextPiS1_S1_i+0xdc>
  fc:	3400012a 	cbz	w10, 120 <_ZL31stbi__load_and_postprocess_8bitP13stbi__contextPiS1_S1_i+0x120>
 100:	cb090108 	sub	x8, x8, x9
 104:	8b09030a 	add	x10, x24, x9
 108:	8b090669 	add	x9, x19, x9, lsl #1
 10c:	3940052b 	ldrb	w11, [x9,#1]
 110:	d1000508 	sub	x8, x8, #0x1
 114:	91000929 	add	x9, x9, #0x2
 118:	3800154b 	strb	w11, [x10],#1
 11c:	b5ffff88 	cbnz	x8, 10c <_ZL31stbi__load_and_postprocess_8bitP13stbi__contextPiS1_S1_i+0x10c>
 120:	aa1303e0 	mov	x0, x19
 124:	94000000 	bl	0 <free>
 128:	321d03e8 	orr	w8, wzr, #0x8
 12c:	aa1803f3 	mov	x19, x24
 130:	b9001be8 	str	w8, [sp,#24]
 134:	90000008 	adrp	x8, 0 <_ZL31stbi__load_and_postprocess_8bitP13stbi__contextPiS1_S1_i>
 138:	b9400108 	ldr	w8, [x8]
 13c:	34000568 	cbz	w8, 1e8 <_ZL31stbi__load_and_postprocess_8bitP13stbi__contextPiS1_S1_i+0x1e8>
 140:	f9000bfa 	str	x26, [sp,#16]
 144:	35000054 	cbnz	w20, 14c <_ZL31stbi__load_and_postprocess_8bitP13stbi__contextPiS1_S1_i+0x14c>
 148:	b94002f4 	ldr	w20, [x23]
 14c:	b94002c8 	ldr	w8, [x22]
 150:	13017d09 	asr	w9, w8, #1
 154:	7100053f 	cmp	w9, #0x1
 158:	5400046b 	b.lt	1e4 <_ZL31stbi__load_and_postprocess_8bitP13stbi__contextPiS1_S1_i+0x1e4>
 15c:	b98002aa 	ldrsw	x10, [x21]
 160:	93407e8b 	sxtw	x11, w20
 164:	9b0b7d59 	mul	x25, x10, x11
 168:	b40003f9 	cbz	x25, 1e4 <_ZL31stbi__load_and_postprocess_8bitP13stbi__contextPiS1_S1_i+0x1e4>
 16c:	aa1f03f8 	mov	x24, xzr
 170:	5100051a 	sub	w26, w8, #0x1
 174:	2a0903fb 	mov	w27, w9
 178:	321503fc 	orr	w28, wzr, #0x800
 17c:	4b180348 	sub	w8, w26, w24
 180:	93407d08 	sxtw	x8, w8
 184:	9b194f14 	madd	x20, x24, x25, x19
 188:	9b084f35 	madd	x21, x25, x8, x19
 18c:	aa1903f7 	mov	x23, x25
 190:	f12002ff 	cmp	x23, #0x800
 194:	9a9c32f6 	csel	x22, x23, x28, cc
 198:	9100a3e0 	add	x0, sp, #0x28
 19c:	aa1403e1 	mov	x1, x20
 1a0:	aa1603e2 	mov	x2, x22
 1a4:	94000000 	bl	0 <memcpy>
 1a8:	aa1403e0 	mov	x0, x20
 1ac:	aa1503e1 	mov	x1, x21
 1b0:	aa1603e2 	mov	x2, x22
 1b4:	94000000 	bl	0 <memcpy>
 1b8:	9100a3e1 	add	x1, sp, #0x28
 1bc:	aa1503e0 	mov	x0, x21
 1c0:	aa1603e2 	mov	x2, x22
 1c4:	94000000 	bl	0 <memcpy>
 1c8:	8b160294 	add	x20, x20, x22
 1cc:	cb1602f7 	sub	x23, x23, x22
 1d0:	8b1602b5 	add	x21, x21, x22
 1d4:	b5fffdf7 	cbnz	x23, 190 <_ZL31stbi__load_and_postprocess_8bitP13stbi__contextPiS1_S1_i+0x190>
 1d8:	91000718 	add	x24, x24, #0x1
 1dc:	eb1b031f 	cmp	x24, x27
 1e0:	54fffce1 	b.ne	17c <_ZL31stbi__load_and_postprocess_8bitP13stbi__contextPiS1_S1_i+0x17c>
 1e4:	f9400bfa 	ldr	x26, [sp,#16]
 1e8:	f9401748 	ldr	x8, [x26,#40]
 1ec:	f85a83a9 	ldur	x9, [x29,#-88]
 1f0:	eb09011f 	cmp	x8, x9
 1f4:	54000141 	b.ne	21c <_ZL31stbi__load_and_postprocess_8bitP13stbi__contextPiS1_S1_i+0x21c>
 1f8:	aa1303e0 	mov	x0, x19
 1fc:	9120c3ff 	add	sp, sp, #0x830
 200:	a9457bfd 	ldp	x29, x30, [sp,#80]
 204:	a9444ff4 	ldp	x20, x19, [sp,#64]
 208:	a94357f6 	ldp	x22, x21, [sp,#48]
 20c:	a9425ff8 	ldp	x24, x23, [sp,#32]
 210:	a94167fa 	ldp	x26, x25, [sp,#16]
 214:	a8c66ffc 	ldp	x28, x27, [sp],#96
 218:	d65f03c0 	ret
 21c:	94000000 	bl	0 <__stack_chk_fail>
 220:	90000000 	adrp	x0, 0 <_ZL31stbi__load_and_postprocess_8bitP13stbi__contextPiS1_S1_i>
 224:	90000002 	adrp	x2, 0 <_ZL31stbi__load_and_postprocess_8bitP13stbi__contextPiS1_S1_i>
 228:	90000003 	adrp	x3, 0 <_ZL31stbi__load_and_postprocess_8bitP13stbi__contextPiS1_S1_i>
 22c:	91000000 	add	x0, x0, #0x0
 230:	91000042 	add	x2, x2, #0x0
 234:	91000063 	add	x3, x3, #0x0
 238:	52808d01 	mov	w1, #0x468                 	// #1128
 23c:	94000000 	bl	0 <__assert2>

Disassembly of section .text.stbi_load_from_file_16:

0000000000000000 <stbi_load_from_file_16>:
   0:	d10503ff 	sub	sp, sp, #0x140
   4:	f90073fc 	str	x28, [sp,#224]
   8:	a90f67fa 	stp	x26, x25, [sp,#240]
   c:	a9105ff8 	stp	x24, x23, [sp,#256]
  10:	a91157f6 	stp	x22, x21, [sp,#272]
  14:	a9124ff4 	stp	x20, x19, [sp,#288]
  18:	a9137bfd 	stp	x29, x30, [sp,#304]
  1c:	9104c3fd 	add	x29, sp, #0x130
  20:	d53bd059 	mrs	x25, tpidr_el0
  24:	f9401728 	ldr	x8, [x25,#40]
  28:	90000009 	adrp	x9, 0 <stbi_load_from_file_16>
  2c:	91000129 	add	x9, x9, #0x0
  30:	aa0003f3 	mov	x19, x0
  34:	f81a83a8 	stur	x8, [x29,#-88]
  38:	3dc00120 	ldr	q0, [x9]
  3c:	f9400928 	ldr	x8, [x9,#16]
  40:	910003fa 	mov	x26, sp
  44:	b21903e9 	mov	x9, #0x8000000080          	// #549755814016
  48:	3d8007e0 	str	q0, [sp,#16]
  4c:	a9024fe8 	stp	x8, x19, [sp,#32]
  50:	f9400be8 	ldr	x8, [sp,#16]
  54:	9100e358 	add	x24, x26, #0x38
  58:	aa0203f6 	mov	x22, x2
  5c:	f2800029 	movk	x9, #0x1
  60:	aa0103f7 	mov	x23, x1
  64:	321903e2 	orr	w2, wzr, #0x80
  68:	aa1803e1 	mov	x1, x24
  6c:	2a0403f4 	mov	w20, w4
  70:	aa0303f5 	mov	x21, x3
  74:	f9001be9 	str	x9, [sp,#48]
  78:	f90067f8 	str	x24, [sp,#200]
  7c:	d63f0100 	blr	x8
  80:	34000080 	cbz	w0, 90 <stbi_load_from_file_16+0x90>
  84:	8b20c348 	add	x8, x26, w0, sxtw
  88:	9100e108 	add	x8, x8, #0x38
  8c:	14000004 	b	9c <stbi_load_from_file_16+0x9c>
  90:	b90033ff 	str	wzr, [sp,#48]
  94:	9100e748 	add	x8, x26, #0x39
  98:	3900e3ff 	strb	wzr, [sp,#56]
  9c:	910003e0 	mov	x0, sp
  a0:	aa1703e1 	mov	x1, x23
  a4:	aa1603e2 	mov	x2, x22
  a8:	aa1503e3 	mov	x3, x21
  ac:	2a1403e4 	mov	w4, w20
  b0:	a90ba3f8 	stp	x24, x8, [sp,#184]
  b4:	f9006be8 	str	x8, [sp,#208]
  b8:	94000000 	bl	0 <stbi_load_from_file_16>
  bc:	aa0003f4 	mov	x20, x0
  c0:	b4000114 	cbz	x20, e0 <stbi_load_from_file_16+0xe0>
  c4:	b940c3e8 	ldr	w8, [sp,#192]
  c8:	b940bbe9 	ldr	w9, [sp,#184]
  cc:	320003e2 	orr	w2, wzr, #0x1
  d0:	aa1303e0 	mov	x0, x19
  d4:	4b080128 	sub	w8, w9, w8
  d8:	93407d01 	sxtw	x1, w8
  dc:	94000000 	bl	0 <fseek>
  e0:	f9401728 	ldr	x8, [x25,#40]
  e4:	f85a83a9 	ldur	x9, [x29,#-88]
  e8:	eb09011f 	cmp	x8, x9
  ec:	54000141 	b.ne	114 <stbi_load_from_file_16+0x114>
  f0:	aa1403e0 	mov	x0, x20
  f4:	a9537bfd 	ldp	x29, x30, [sp,#304]
  f8:	a9524ff4 	ldp	x20, x19, [sp,#288]
  fc:	a95157f6 	ldp	x22, x21, [sp,#272]
 100:	a9505ff8 	ldp	x24, x23, [sp,#256]
 104:	a94f67fa 	ldp	x26, x25, [sp,#240]
 108:	f94073fc 	ldr	x28, [sp,#224]
 10c:	910503ff 	add	sp, sp, #0x140
 110:	d65f03c0 	ret
 114:	94000000 	bl	0 <__stack_chk_fail>

Disassembly of section .text._ZL32stbi__load_and_postprocess_16bitP13stbi__contextPiS1_S1_i:

0000000000000000 <_ZL32stbi__load_and_postprocess_16bitP13stbi__contextPiS1_S1_i>:
   0:	a9ba6ffc 	stp	x28, x27, [sp,#-96]!
   4:	a90167fa 	stp	x26, x25, [sp,#16]
   8:	a9025ff8 	stp	x24, x23, [sp,#32]
   c:	a90357f6 	stp	x22, x21, [sp,#48]
  10:	a9044ff4 	stp	x20, x19, [sp,#64]
  14:	a9057bfd 	stp	x29, x30, [sp,#80]
  18:	910143fd 	add	x29, sp, #0x50
  1c:	d120c3ff 	sub	sp, sp, #0x830
  20:	d53bd05a 	mrs	x26, tpidr_el0
  24:	f9401748 	ldr	x8, [x26,#40]
  28:	910063e5 	add	x5, sp, #0x18
  2c:	321c03e6 	orr	w6, wzr, #0x10
  30:	2a0403f4 	mov	w20, w4
  34:	aa0303f7 	mov	x23, x3
  38:	aa0203f6 	mov	x22, x2
  3c:	aa0103f5 	mov	x21, x1
  40:	f81a83a8 	stur	x8, [x29,#-88]
  44:	94000000 	bl	0 <_ZL32stbi__load_and_postprocess_16bitP13stbi__contextPiS1_S1_i>
  48:	aa0003f3 	mov	x19, x0
  4c:	b4000e93 	cbz	x19, 21c <_ZL32stbi__load_and_postprocess_16bitP13stbi__contextPiS1_S1_i+0x21c>
  50:	b9401be8 	ldr	w8, [sp,#24]
  54:	7100211f 	cmp	w8, #0x8
  58:	54000160 	b.eq	84 <_ZL32stbi__load_and_postprocess_16bitP13stbi__contextPiS1_S1_i+0x84>
  5c:	7100411f 	cmp	w8, #0x10
  60:	54000820 	b.eq	164 <_ZL32stbi__load_and_postprocess_16bitP13stbi__contextPiS1_S1_i+0x164>
  64:	90000000 	adrp	x0, 0 <_ZL32stbi__load_and_postprocess_16bitP13stbi__contextPiS1_S1_i>
  68:	90000002 	adrp	x2, 0 <_ZL32stbi__load_and_postprocess_16bitP13stbi__contextPiS1_S1_i>
  6c:	90000003 	adrp	x3, 0 <_ZL32stbi__load_and_postprocess_16bitP13stbi__contextPiS1_S1_i>
  70:	91000000 	add	x0, x0, #0x0
  74:	91000042 	add	x2, x2, #0x0
  78:	91000063 	add	x3, x3, #0x0
  7c:	52809001 	mov	w1, #0x480                 	// #1152
  80:	94000000 	bl	0 <__assert2>
  84:	b94002a8 	ldr	w8, [x21]
  88:	b94002c9 	ldr	w9, [x22]
  8c:	2a1403ea 	mov	w10, w20
  90:	35000054 	cbnz	w20, 98 <_ZL32stbi__load_and_postprocess_16bitP13stbi__contextPiS1_S1_i+0x98>
  94:	b94002ea 	ldr	w10, [x23]
  98:	1b087d28 	mul	w8, w9, w8
  9c:	1b0a7d19 	mul	w25, w8, w10
  a0:	531f7b28 	lsl	w8, w25, #1
  a4:	93407d00 	sxtw	x0, w8
  a8:	94000000 	bl	0 <malloc>
  ac:	aa0003f8 	mov	x24, x0
  b0:	b4000118 	cbz	x24, d0 <_ZL32stbi__load_and_postprocess_16bitP13stbi__contextPiS1_S1_i+0xd0>
  b4:	7100073f 	cmp	w25, #0x1
  b8:	540004cb 	b.lt	150 <_ZL32stbi__load_and_postprocess_16bitP13stbi__contextPiS1_S1_i+0x150>
  bc:	71003f3f 	cmp	w25, #0xf
  c0:	2a1903e8 	mov	w8, w25
  c4:	54000128 	b.hi	e8 <_ZL32stbi__load_and_postprocess_16bitP13stbi__contextPiS1_S1_i+0xe8>
  c8:	aa1f03e9 	mov	x9, xzr
  cc:	14000019 	b	130 <_ZL32stbi__load_and_postprocess_16bitP13stbi__contextPiS1_S1_i+0x130>
  d0:	90000008 	adrp	x8, 0 <_ZL32stbi__load_and_postprocess_16bitP13stbi__contextPiS1_S1_i>
  d4:	90000009 	adrp	x9, 0 <_ZL32stbi__load_and_postprocess_16bitP13stbi__contextPiS1_S1_i>
  d8:	91000108 	add	x8, x8, #0x0
  dc:	91000129 	add	x9, x9, #0x0
  e0:	f9000909 	str	x9, [x8,#16]
  e4:	1400001d 	b	158 <_ZL32stbi__load_and_postprocess_16bitP13stbi__contextPiS1_S1_i+0x158>
  e8:	12000f2a 	and	w10, w25, #0xf
  ec:	cb0a0109 	sub	x9, x8, x10
  f0:	b4000209 	cbz	x9, 130 <_ZL32stbi__load_and_postprocess_16bitP13stbi__contextPiS1_S1_i+0x130>
  f4:	9100226b 	add	x11, x19, #0x8
  f8:	9100430c 	add	x12, x24, #0x10
  fc:	4f00e420 	movi	v0.16b, #0x1
 100:	aa0903ed 	mov	x13, x9
 104:	6d7f8961 	ldp	d1, d2, [x11,#-8]
 108:	9100416b 	add	x11, x11, #0x10
 10c:	d10041ad 	sub	x13, x13, #0x10
 110:	2f08a421 	uxtl	v1.8h, v1.8b
 114:	2f08a442 	uxtl	v2.8h, v2.8b
 118:	4e609c21 	mul	v1.8h, v1.8h, v0.8h
 11c:	4e609c42 	mul	v2.8h, v2.8h, v0.8h
 120:	ad3f8981 	stp	q1, q2, [x12,#-16]
 124:	9100818c 	add	x12, x12, #0x20
 128:	b5fffeed 	cbnz	x13, 104 <_ZL32stbi__load_and_postprocess_16bitP13stbi__contextPiS1_S1_i+0x104>
 12c:	3400012a 	cbz	w10, 150 <_ZL32stbi__load_and_postprocess_16bitP13stbi__contextPiS1_S1_i+0x150>
 130:	cb090108 	sub	x8, x8, x9
 134:	8b09070a 	add	x10, x24, x9, lsl #1
 138:	8b090269 	add	x9, x19, x9
 13c:	3840152b 	ldrb	w11, [x9],#1
 140:	d1000508 	sub	x8, x8, #0x1
 144:	33181d6b 	bfi	w11, w11, #8, #8
 148:	7800254b 	strh	w11, [x10],#2
 14c:	b5ffff88 	cbnz	x8, 13c <_ZL32stbi__load_and_postprocess_16bitP13stbi__contextPiS1_S1_i+0x13c>
 150:	aa1303e0 	mov	x0, x19
 154:	94000000 	bl	0 <free>
 158:	321c03e8 	orr	w8, wzr, #0x10
 15c:	aa1803f3 	mov	x19, x24
 160:	b9001be8 	str	w8, [sp,#24]
 164:	90000008 	adrp	x8, 0 <_ZL32stbi__load_and_postprocess_16bitP13stbi__contextPiS1_S1_i>
 168:	b9400108 	ldr	w8, [x8]
 16c:	34000588 	cbz	w8, 21c <_ZL32stbi__load_and_postprocess_16bitP13stbi__contextPiS1_S1_i+0x21c>
 170:	f9000bfa 	str	x26, [sp,#16]
 174:	35000054 	cbnz	w20, 17c <_ZL32stbi__load_and_postprocess_16bitP13stbi__contextPiS1_S1_i+0x17c>
 178:	b94002f4 	ldr	w20, [x23]
 17c:	b94002c8 	ldr	w8, [x22]
 180:	13017d09 	asr	w9, w8, #1
 184:	7100053f 	cmp	w9, #0x1
 188:	5400048b 	b.lt	218 <_ZL32stbi__load_and_postprocess_16bitP13stbi__contextPiS1_S1_i+0x218>
 18c:	b98002aa 	ldrsw	x10, [x21]
 190:	531f7a8b 	lsl	w11, w20, #1
 194:	93407d6b 	sxtw	x11, w11
 198:	9b0a7d79 	mul	x25, x11, x10
 19c:	b40003f9 	cbz	x25, 218 <_ZL32stbi__load_and_postprocess_16bitP13stbi__contextPiS1_S1_i+0x218>
 1a0:	aa1f03f8 	mov	x24, xzr
 1a4:	5100051a 	sub	w26, w8, #0x1
 1a8:	2a0903fb 	mov	w27, w9
 1ac:	321503fc 	orr	w28, wzr, #0x800
 1b0:	4b180348 	sub	w8, w26, w24
 1b4:	93407d08 	sxtw	x8, w8
 1b8:	9b194f14 	madd	x20, x24, x25, x19
 1bc:	9b084f35 	madd	x21, x25, x8, x19
 1c0:	aa1903f7 	mov	x23, x25
 1c4:	f12002ff 	cmp	x23, #0x800
 1c8:	9a9c32f6 	csel	x22, x23, x28, cc
 1cc:	9100a3e0 	add	x0, sp, #0x28
 1d0:	aa1403e1 	mov	x1, x20
 1d4:	aa1603e2 	mov	x2, x22
 1d8:	94000000 	bl	0 <memcpy>
 1dc:	aa1403e0 	mov	x0, x20
 1e0:	aa1503e1 	mov	x1, x21
 1e4:	aa1603e2 	mov	x2, x22
 1e8:	94000000 	bl	0 <memcpy>
 1ec:	9100a3e1 	add	x1, sp, #0x28
 1f0:	aa1503e0 	mov	x0, x21
 1f4:	aa1603e2 	mov	x2, x22
 1f8:	94000000 	bl	0 <memcpy>
 1fc:	8b160294 	add	x20, x20, x22
 200:	cb1602f7 	sub	x23, x23, x22
 204:	8b1602b5 	add	x21, x21, x22
 208:	b5fffdf7 	cbnz	x23, 1c4 <_ZL32stbi__load_and_postprocess_16bitP13stbi__contextPiS1_S1_i+0x1c4>
 20c:	91000718 	add	x24, x24, #0x1
 210:	eb1b031f 	cmp	x24, x27
 214:	54fffce1 	b.ne	1b0 <_ZL32stbi__load_and_postprocess_16bitP13stbi__contextPiS1_S1_i+0x1b0>
 218:	f9400bfa 	ldr	x26, [sp,#16]
 21c:	f9401748 	ldr	x8, [x26,#40]
 220:	f85a83a9 	ldur	x9, [x29,#-88]
 224:	eb09011f 	cmp	x8, x9
 228:	54000141 	b.ne	250 <_ZL32stbi__load_and_postprocess_16bitP13stbi__contextPiS1_S1_i+0x250>
 22c:	aa1303e0 	mov	x0, x19
 230:	9120c3ff 	add	sp, sp, #0x830
 234:	a9457bfd 	ldp	x29, x30, [sp,#80]
 238:	a9444ff4 	ldp	x20, x19, [sp,#64]
 23c:	a94357f6 	ldp	x22, x21, [sp,#48]
 240:	a9425ff8 	ldp	x24, x23, [sp,#32]
 244:	a94167fa 	ldp	x26, x25, [sp,#16]
 248:	a8c66ffc 	ldp	x28, x27, [sp],#96
 24c:	d65f03c0 	ret
 250:	94000000 	bl	0 <__stack_chk_fail>

Disassembly of section .text.stbi_load_16:

0000000000000000 <stbi_load_16>:
   0:	d10503ff 	sub	sp, sp, #0x140
   4:	f90073fc 	str	x28, [sp,#224]
   8:	a90f67fa 	stp	x26, x25, [sp,#240]
   c:	a9105ff8 	stp	x24, x23, [sp,#256]
  10:	a91157f6 	stp	x22, x21, [sp,#272]
  14:	a9124ff4 	stp	x20, x19, [sp,#288]
  18:	a9137bfd 	stp	x29, x30, [sp,#304]
  1c:	9104c3fd 	add	x29, sp, #0x130
  20:	d53bd059 	mrs	x25, tpidr_el0
  24:	f9401728 	ldr	x8, [x25,#40]
  28:	aa0103f7 	mov	x23, x1
  2c:	90000001 	adrp	x1, 0 <stbi_load_16>
  30:	91000021 	add	x1, x1, #0x0
  34:	2a0403f4 	mov	w20, w4
  38:	aa0303f5 	mov	x21, x3
  3c:	aa0203f6 	mov	x22, x2
  40:	f81a83a8 	stur	x8, [x29,#-88]
  44:	94000000 	bl	0 <fopen>
  48:	aa0003f3 	mov	x19, x0
  4c:	b40002d3 	cbz	x19, a4 <stbi_load_16+0xa4>
  50:	90000008 	adrp	x8, 0 <stbi_load_16>
  54:	91000108 	add	x8, x8, #0x0
  58:	3dc00100 	ldr	q0, [x8]
  5c:	f9400908 	ldr	x8, [x8,#16]
  60:	910003fa 	mov	x26, sp
  64:	b21903e9 	mov	x9, #0x8000000080          	// #549755814016
  68:	3d8007e0 	str	q0, [sp,#16]
  6c:	a9024fe8 	stp	x8, x19, [sp,#32]
  70:	f9400be8 	ldr	x8, [sp,#16]
  74:	9100e358 	add	x24, x26, #0x38
  78:	f2800029 	movk	x9, #0x1
  7c:	321903e2 	orr	w2, wzr, #0x80
  80:	aa1303e0 	mov	x0, x19
  84:	aa1803e1 	mov	x1, x24
  88:	f9001be9 	str	x9, [sp,#48]
  8c:	f90067f8 	str	x24, [sp,#200]
  90:	d63f0100 	blr	x8
  94:	34000160 	cbz	w0, c0 <stbi_load_16+0xc0>
  98:	8b20c348 	add	x8, x26, w0, sxtw
  9c:	9100e108 	add	x8, x8, #0x38
  a0:	1400000b 	b	cc <stbi_load_16+0xcc>
  a4:	90000008 	adrp	x8, 0 <stbi_load_16>
  a8:	90000009 	adrp	x9, 0 <stbi_load_16>
  ac:	91000108 	add	x8, x8, #0x0
  b0:	91000129 	add	x9, x9, #0x0
  b4:	aa1f03f4 	mov	x20, xzr
  b8:	f9000909 	str	x9, [x8,#16]
  bc:	14000017 	b	118 <stbi_load_16+0x118>
  c0:	b90033ff 	str	wzr, [sp,#48]
  c4:	9100e748 	add	x8, x26, #0x39
  c8:	3900e3ff 	strb	wzr, [sp,#56]
  cc:	910003e0 	mov	x0, sp
  d0:	aa1703e1 	mov	x1, x23
  d4:	aa1603e2 	mov	x2, x22
  d8:	aa1503e3 	mov	x3, x21
  dc:	2a1403e4 	mov	w4, w20
  e0:	a90ba3f8 	stp	x24, x8, [sp,#184]
  e4:	f9006be8 	str	x8, [sp,#208]
  e8:	94000000 	bl	0 <stbi_load_16>
  ec:	aa0003f4 	mov	x20, x0
  f0:	b4000114 	cbz	x20, 110 <stbi_load_16+0x110>
  f4:	b940c3e8 	ldr	w8, [sp,#192]
  f8:	b940bbe9 	ldr	w9, [sp,#184]
  fc:	320003e2 	orr	w2, wzr, #0x1
 100:	aa1303e0 	mov	x0, x19
 104:	4b080128 	sub	w8, w9, w8
 108:	93407d01 	sxtw	x1, w8
 10c:	94000000 	bl	0 <fseek>
 110:	aa1303e0 	mov	x0, x19
 114:	94000000 	bl	0 <fclose>
 118:	f9401728 	ldr	x8, [x25,#40]
 11c:	f85a83a9 	ldur	x9, [x29,#-88]
 120:	eb09011f 	cmp	x8, x9
 124:	54000141 	b.ne	14c <stbi_load_16+0x14c>
 128:	aa1403e0 	mov	x0, x20
 12c:	a9537bfd 	ldp	x29, x30, [sp,#304]
 130:	a9524ff4 	ldp	x20, x19, [sp,#288]
 134:	a95157f6 	ldp	x22, x21, [sp,#272]
 138:	a9505ff8 	ldp	x24, x23, [sp,#256]
 13c:	a94f67fa 	ldp	x26, x25, [sp,#240]
 140:	f94073fc 	ldr	x28, [sp,#224]
 144:	910503ff 	add	sp, sp, #0x140
 148:	d65f03c0 	ret
 14c:	94000000 	bl	0 <__stack_chk_fail>

Disassembly of section .text.stbi_load_16_from_memory:

0000000000000000 <stbi_load_16_from_memory>:
   0:	d10403ff 	sub	sp, sp, #0x100
   4:	f90073f3 	str	x19, [sp,#224]
   8:	a90f7bfd 	stp	x29, x30, [sp,#240]
   c:	9103c3fd 	add	x29, sp, #0xf0
  10:	d53bd053 	mrs	x19, tpidr_el0
  14:	f9401668 	ldr	x8, [x19,#40]
  18:	8b21c009 	add	x9, x0, w1, sxtw
  1c:	aa0203e1 	mov	x1, x2
  20:	aa0303e2 	mov	x2, x3
  24:	f81e83a8 	stur	x8, [x29,#-24]
  28:	a90ca7e0 	stp	x0, x9, [sp,#200]
  2c:	a90ba7e0 	stp	x0, x9, [sp,#184]
  30:	910003e0 	mov	x0, sp
  34:	aa0403e3 	mov	x3, x4
  38:	2a0503e4 	mov	w4, w5
  3c:	f9000bff 	str	xzr, [sp,#16]
  40:	b90033ff 	str	wzr, [sp,#48]
  44:	94000000 	bl	0 <stbi_load_16_from_memory>
  48:	f9401668 	ldr	x8, [x19,#40]
  4c:	f85e83a9 	ldur	x9, [x29,#-24]
  50:	eb09011f 	cmp	x8, x9
  54:	540000a1 	b.ne	68 <stbi_load_16_from_memory+0x68>
  58:	a94f7bfd 	ldp	x29, x30, [sp,#240]
  5c:	f94073f3 	ldr	x19, [sp,#224]
  60:	910403ff 	add	sp, sp, #0x100
  64:	d65f03c0 	ret
  68:	94000000 	bl	0 <__stack_chk_fail>

Disassembly of section .text.stbi_load_16_from_callbacks:

0000000000000000 <stbi_load_16_from_callbacks>:
   0:	d104c3ff 	sub	sp, sp, #0x130
   4:	a90e67fc 	stp	x28, x25, [sp,#224]
   8:	a90f5ff8 	stp	x24, x23, [sp,#240]
   c:	a91057f6 	stp	x22, x21, [sp,#256]
  10:	a9114ff4 	stp	x20, x19, [sp,#272]
  14:	a9127bfd 	stp	x29, x30, [sp,#288]
  18:	910483fd 	add	x29, sp, #0x120
  1c:	d53bd058 	mrs	x24, tpidr_el0
  20:	f9401708 	ldr	x8, [x24,#40]
  24:	910003f9 	mov	x25, sp
  28:	b21903e9 	mov	x9, #0x8000000080          	// #549755814016
  2c:	9100e337 	add	x23, x25, #0x38
  30:	f81b83a8 	stur	x8, [x29,#-72]
  34:	3dc00000 	ldr	q0, [x0]
  38:	f2800029 	movk	x9, #0x1
  3c:	aa0203f6 	mov	x22, x2
  40:	321903e2 	orr	w2, wzr, #0x80
  44:	3d8007e0 	str	q0, [sp,#16]
  48:	f9400808 	ldr	x8, [x0,#16]
  4c:	aa0103e0 	mov	x0, x1
  50:	2a0503f3 	mov	w19, w5
  54:	aa0403f4 	mov	x20, x4
  58:	a90207e8 	stp	x8, x1, [sp,#32]
  5c:	f9400be8 	ldr	x8, [sp,#16]
  60:	aa1703e1 	mov	x1, x23
  64:	aa0303f5 	mov	x21, x3
  68:	f9001be9 	str	x9, [sp,#48]
  6c:	f90067f7 	str	x23, [sp,#200]
  70:	d63f0100 	blr	x8
  74:	34000080 	cbz	w0, 84 <stbi_load_16_from_callbacks+0x84>
  78:	8b20c328 	add	x8, x25, w0, sxtw
  7c:	9100e108 	add	x8, x8, #0x38
  80:	14000004 	b	90 <stbi_load_16_from_callbacks+0x90>
  84:	b90033ff 	str	wzr, [sp,#48]
  88:	9100e728 	add	x8, x25, #0x39
  8c:	3900e3ff 	strb	wzr, [sp,#56]
  90:	910003e0 	mov	x0, sp
  94:	aa1603e1 	mov	x1, x22
  98:	aa1503e2 	mov	x2, x21
  9c:	aa1403e3 	mov	x3, x20
  a0:	2a1303e4 	mov	w4, w19
  a4:	a90ba3f7 	stp	x23, x8, [sp,#184]
  a8:	f9006be8 	str	x8, [sp,#208]
  ac:	94000000 	bl	0 <stbi_load_16_from_callbacks>
  b0:	f9401708 	ldr	x8, [x24,#40]
  b4:	f85b83a9 	ldur	x9, [x29,#-72]
  b8:	eb09011f 	cmp	x8, x9
  bc:	54000101 	b.ne	dc <stbi_load_16_from_callbacks+0xdc>
  c0:	a9527bfd 	ldp	x29, x30, [sp,#288]
  c4:	a9514ff4 	ldp	x20, x19, [sp,#272]
  c8:	a95057f6 	ldp	x22, x21, [sp,#256]
  cc:	a94f5ff8 	ldp	x24, x23, [sp,#240]
  d0:	a94e67fc 	ldp	x28, x25, [sp,#224]
  d4:	9104c3ff 	add	sp, sp, #0x130
  d8:	d65f03c0 	ret
  dc:	94000000 	bl	0 <__stack_chk_fail>

Disassembly of section .text.stbi_load_from_memory:

0000000000000000 <stbi_load_from_memory>:
   0:	d10403ff 	sub	sp, sp, #0x100
   4:	f90073f3 	str	x19, [sp,#224]
   8:	a90f7bfd 	stp	x29, x30, [sp,#240]
   c:	9103c3fd 	add	x29, sp, #0xf0
  10:	d53bd053 	mrs	x19, tpidr_el0
  14:	f9401668 	ldr	x8, [x19,#40]
  18:	8b21c009 	add	x9, x0, w1, sxtw
  1c:	aa0203e1 	mov	x1, x2
  20:	aa0303e2 	mov	x2, x3
  24:	f81e83a8 	stur	x8, [x29,#-24]
  28:	a90ca7e0 	stp	x0, x9, [sp,#200]
  2c:	a90ba7e0 	stp	x0, x9, [sp,#184]
  30:	910003e0 	mov	x0, sp
  34:	aa0403e3 	mov	x3, x4
  38:	2a0503e4 	mov	w4, w5
  3c:	f9000bff 	str	xzr, [sp,#16]
  40:	b90033ff 	str	wzr, [sp,#48]
  44:	94000000 	bl	0 <stbi_load_from_memory>
  48:	f9401668 	ldr	x8, [x19,#40]
  4c:	f85e83a9 	ldur	x9, [x29,#-24]
  50:	eb09011f 	cmp	x8, x9
  54:	540000a1 	b.ne	68 <stbi_load_from_memory+0x68>
  58:	a94f7bfd 	ldp	x29, x30, [sp,#240]
  5c:	f94073f3 	ldr	x19, [sp,#224]
  60:	910403ff 	add	sp, sp, #0x100
  64:	d65f03c0 	ret
  68:	94000000 	bl	0 <__stack_chk_fail>

Disassembly of section .text.stbi_load_from_callbacks:

0000000000000000 <stbi_load_from_callbacks>:
   0:	d104c3ff 	sub	sp, sp, #0x130
   4:	a90e67fc 	stp	x28, x25, [sp,#224]
   8:	a90f5ff8 	stp	x24, x23, [sp,#240]
   c:	a91057f6 	stp	x22, x21, [sp,#256]
  10:	a9114ff4 	stp	x20, x19, [sp,#272]
  14:	a9127bfd 	stp	x29, x30, [sp,#288]
  18:	910483fd 	add	x29, sp, #0x120
  1c:	d53bd058 	mrs	x24, tpidr_el0
  20:	f9401708 	ldr	x8, [x24,#40]
  24:	910003f9 	mov	x25, sp
  28:	b21903e9 	mov	x9, #0x8000000080          	// #549755814016
  2c:	9100e337 	add	x23, x25, #0x38
  30:	f81b83a8 	stur	x8, [x29,#-72]
  34:	3dc00000 	ldr	q0, [x0]
  38:	f2800029 	movk	x9, #0x1
  3c:	aa0203f6 	mov	x22, x2
  40:	321903e2 	orr	w2, wzr, #0x80
  44:	3d8007e0 	str	q0, [sp,#16]
  48:	f9400808 	ldr	x8, [x0,#16]
  4c:	aa0103e0 	mov	x0, x1
  50:	2a0503f3 	mov	w19, w5
  54:	aa0403f4 	mov	x20, x4
  58:	a90207e8 	stp	x8, x1, [sp,#32]
  5c:	f9400be8 	ldr	x8, [sp,#16]
  60:	aa1703e1 	mov	x1, x23
  64:	aa0303f5 	mov	x21, x3
  68:	f9001be9 	str	x9, [sp,#48]
  6c:	f90067f7 	str	x23, [sp,#200]
  70:	d63f0100 	blr	x8
  74:	34000080 	cbz	w0, 84 <stbi_load_from_callbacks+0x84>
  78:	8b20c328 	add	x8, x25, w0, sxtw
  7c:	9100e108 	add	x8, x8, #0x38
  80:	14000004 	b	90 <stbi_load_from_callbacks+0x90>
  84:	b90033ff 	str	wzr, [sp,#48]
  88:	9100e728 	add	x8, x25, #0x39
  8c:	3900e3ff 	strb	wzr, [sp,#56]
  90:	910003e0 	mov	x0, sp
  94:	aa1603e1 	mov	x1, x22
  98:	aa1503e2 	mov	x2, x21
  9c:	aa1403e3 	mov	x3, x20
  a0:	2a1303e4 	mov	w4, w19
  a4:	a90ba3f7 	stp	x23, x8, [sp,#184]
  a8:	f9006be8 	str	x8, [sp,#208]
  ac:	94000000 	bl	0 <stbi_load_from_callbacks>
  b0:	f9401708 	ldr	x8, [x24,#40]
  b4:	f85b83a9 	ldur	x9, [x29,#-72]
  b8:	eb09011f 	cmp	x8, x9
  bc:	54000101 	b.ne	dc <stbi_load_from_callbacks+0xdc>
  c0:	a9527bfd 	ldp	x29, x30, [sp,#288]
  c4:	a9514ff4 	ldp	x20, x19, [sp,#272]
  c8:	a95057f6 	ldp	x22, x21, [sp,#256]
  cc:	a94f5ff8 	ldp	x24, x23, [sp,#240]
  d0:	a94e67fc 	ldp	x28, x25, [sp,#224]
  d4:	9104c3ff 	add	sp, sp, #0x130
  d8:	d65f03c0 	ret
  dc:	94000000 	bl	0 <__stack_chk_fail>

Disassembly of section .text.stbi_load_gif_from_memory:

0000000000000000 <stbi_load_gif_from_memory>:
   0:	a9ba6ffc 	stp	x28, x27, [sp,#-96]!
   4:	a90167fa 	stp	x26, x25, [sp,#16]
   8:	a9025ff8 	stp	x24, x23, [sp,#32]
   c:	a90357f6 	stp	x22, x21, [sp,#48]
  10:	a9044ff4 	stp	x20, x19, [sp,#64]
  14:	a9057bfd 	stp	x29, x30, [sp,#80]
  18:	910143fd 	add	x29, sp, #0x50
  1c:	d14023ff 	sub	sp, sp, #0x8, lsl #12
  20:	d12683ff 	sub	sp, sp, #0x9a0
  24:	a9039be4 	stp	x4, x6, [sp,#56]
  28:	f9001be3 	str	x3, [sp,#48]
  2c:	d53bd048 	mrs	x8, tpidr_el0
  30:	f9000fe8 	str	x8, [sp,#24]
  34:	f9401508 	ldr	x8, [x8,#40]
  38:	910123ea 	add	x10, sp, #0x48
  3c:	8b21c009 	add	x9, x0, w1, sxtw
  40:	2a0703fc 	mov	w28, w7
  44:	f9000148 	str	x8, [x10]
  48:	a911a7e0 	stp	x0, x9, [sp,#280]
  4c:	a910a7e0 	stp	x0, x9, [sp,#264]
  50:	910143e0 	add	x0, sp, #0x50
  54:	aa0503fb 	mov	x27, x5
  58:	aa0203f9 	mov	x25, x2
  5c:	f90033ff 	str	xzr, [sp,#96]
  60:	b90083ff 	str	wzr, [sp,#128]
  64:	94000000 	bl	0 <stbi_load_gif_from_memory>
  68:	34000aa0 	cbz	w0, 1bc <stbi_load_gif_from_memory+0x1bc>
  6c:	9104a3e0 	add	x0, sp, #0x128
  70:	52910e02 	mov	w2, #0x8870                	// #34928
  74:	2a1f03e1 	mov	w1, wzr
  78:	94000000 	bl	0 <memset>
  7c:	b4000059 	cbz	x25, 84 <stbi_load_gif_from_memory+0x84>
  80:	f900033f 	str	xzr, [x25]
  84:	f94023e2 	ldr	x2, [sp,#64]
  88:	910143e0 	add	x0, sp, #0x50
  8c:	9104a3e1 	add	x1, sp, #0x128
  90:	aa1f03e3 	mov	x3, xzr
  94:	910143f3 	add	x19, sp, #0x50
  98:	94000000 	bl	0 <stbi_load_gif_from_memory>
  9c:	aa0003fa 	mov	x26, x0
  a0:	aa1f03f8 	mov	x24, xzr
  a4:	eb13035f 	cmp	x26, x19
  a8:	2a1f03f6 	mov	w22, wzr
  ac:	54000e60 	b.eq	278 <stbi_load_gif_from_memory+0x278>
  b0:	b4000e5a 	cbz	x26, 278 <stbi_load_gif_from_memory+0x278>
  b4:	b4000939 	cbz	x25, 1d8 <stbi_load_gif_from_memory+0x1d8>
  b8:	52910d08 	mov	w8, #0x8868                	// #34920
  bc:	9104a3e9 	add	x9, sp, #0x128
  c0:	b90017fc 	str	w28, [sp,#20]
  c4:	f90013fb 	str	x27, [sp,#32]
  c8:	aa1f03f7 	mov	x23, xzr
  cc:	aa1f03fb 	mov	x27, xzr
  d0:	aa1f03f8 	mov	x24, xzr
  d4:	321e03fc 	orr	w28, wzr, #0x4
  d8:	8b080128 	add	x8, x9, x8
  dc:	f90017e8 	str	x8, [sp,#40]
  e0:	b9412be8 	ldr	w8, [sp,#296]
  e4:	f9401be9 	ldr	x9, [sp,#48]
  e8:	910006f6 	add	x22, x23, #0x1
  ec:	b9000128 	str	w8, [x9]
  f0:	b9412fe9 	ldr	w9, [sp,#300]
  f4:	f9401fea 	ldr	x10, [sp,#56]
  f8:	1b087d33 	mul	w19, w9, w8
  fc:	531e7674 	lsl	w20, w19, #2
 100:	1b167e88 	mul	w8, w20, w22
 104:	93407d01 	sxtw	x1, w8
 108:	b9000149 	str	w9, [x10]
 10c:	b4000138 	cbz	x24, 130 <stbi_load_gif_from_memory+0x130>
 110:	aa1803e0 	mov	x0, x24
 114:	94000000 	bl	0 <realloc>
 118:	f9400328 	ldr	x8, [x25]
 11c:	aa0003f5 	mov	x21, x0
 120:	aa1c03e1 	mov	x1, x28
 124:	aa0803e0 	mov	x0, x8
 128:	94000000 	bl	0 <realloc>
 12c:	14000006 	b	144 <stbi_load_gif_from_memory+0x144>
 130:	aa0103e0 	mov	x0, x1
 134:	94000000 	bl	0 <malloc>
 138:	aa0003f5 	mov	x21, x0
 13c:	aa1c03e0 	mov	x0, x28
 140:	94000000 	bl	0 <malloc>
 144:	1b177e88 	mul	w8, w20, w23
 148:	aa0003f8 	mov	x24, x0
 14c:	8b28c2a0 	add	x0, x21, w8, sxtw
 150:	93407e82 	sxtw	x2, w20
 154:	aa1a03e1 	mov	x1, x26
 158:	f9000338 	str	x24, [x25]
 15c:	94000000 	bl	0 <memcpy>
 160:	f10006ff 	cmp	x23, #0x1
 164:	5400006b 	b.lt	170 <stbi_load_gif_from_memory+0x170>
 168:	531d7268 	lsl	w8, w19, #3
 16c:	cb28c2bb 	sub	x27, x21, w8, sxtw
 170:	f94017e8 	ldr	x8, [sp,#40]
 174:	f94023e2 	ldr	x2, [sp,#64]
 178:	910143e0 	add	x0, sp, #0x50
 17c:	9104a3e1 	add	x1, sp, #0x128
 180:	b9400108 	ldr	w8, [x8]
 184:	aa1b03e3 	mov	x3, x27
 188:	b8377b08 	str	w8, [x24,x23,lsl #2]
 18c:	94000000 	bl	0 <stbi_load_gif_from_memory>
 190:	aa0003fa 	mov	x26, x0
 194:	910143e8 	add	x8, sp, #0x50
 198:	eb08035f 	cmp	x26, x8
 19c:	aa1503f8 	mov	x24, x21
 1a0:	54000080 	b.eq	1b0 <stbi_load_gif_from_memory+0x1b0>
 1a4:	9100139c 	add	x28, x28, #0x4
 1a8:	aa1603f7 	mov	x23, x22
 1ac:	b5fff9ba 	cbnz	x26, e0 <stbi_load_gif_from_memory+0xe0>
 1b0:	f94013fb 	ldr	x27, [sp,#32]
 1b4:	b94017fc 	ldr	w28, [sp,#20]
 1b8:	14000030 	b	278 <stbi_load_gif_from_memory+0x278>
 1bc:	90000008 	adrp	x8, 0 <stbi_load_gif_from_memory>
 1c0:	90000009 	adrp	x9, 0 <stbi_load_gif_from_memory>
 1c4:	91000108 	add	x8, x8, #0x0
 1c8:	91000129 	add	x9, x9, #0x0
 1cc:	f90013ff 	str	xzr, [sp,#32]
 1d0:	f9000909 	str	x9, [x8,#16]
 1d4:	1400003c 	b	2c4 <stbi_load_gif_from_memory+0x2c4>
 1d8:	aa1f03f8 	mov	x24, xzr
 1dc:	2a1f03f3 	mov	w19, wzr
 1e0:	910143f5 	add	x21, sp, #0x50
 1e4:	b9412be8 	ldr	w8, [sp,#296]
 1e8:	f9401be9 	ldr	x9, [sp,#48]
 1ec:	11000676 	add	w22, w19, #0x1
 1f0:	b9000128 	str	w8, [x9]
 1f4:	b9412fe9 	ldr	w9, [sp,#300]
 1f8:	f9401fea 	ldr	x10, [sp,#56]
 1fc:	1b087d34 	mul	w20, w9, w8
 200:	531e7697 	lsl	w23, w20, #2
 204:	1b167ee8 	mul	w8, w23, w22
 208:	93407d01 	sxtw	x1, w8
 20c:	b9000149 	str	w9, [x10]
 210:	b4000098 	cbz	x24, 220 <stbi_load_gif_from_memory+0x220>
 214:	aa1803e0 	mov	x0, x24
 218:	94000000 	bl	0 <realloc>
 21c:	14000003 	b	228 <stbi_load_gif_from_memory+0x228>
 220:	aa0103e0 	mov	x0, x1
 224:	94000000 	bl	0 <malloc>
 228:	aa0003f8 	mov	x24, x0
 22c:	1b137ee8 	mul	w8, w23, w19
 230:	8b28c300 	add	x0, x24, w8, sxtw
 234:	93407ee2 	sxtw	x2, w23
 238:	aa1a03e1 	mov	x1, x26
 23c:	94000000 	bl	0 <memcpy>
 240:	7100067f 	cmp	w19, #0x1
 244:	5400006b 	b.lt	250 <stbi_load_gif_from_memory+0x250>
 248:	531d7288 	lsl	w8, w20, #3
 24c:	cb28c319 	sub	x25, x24, w8, sxtw
 250:	f94023e2 	ldr	x2, [sp,#64]
 254:	910143e0 	add	x0, sp, #0x50
 258:	9104a3e1 	add	x1, sp, #0x128
 25c:	aa1903e3 	mov	x3, x25
 260:	94000000 	bl	0 <stbi_load_gif_from_memory>
 264:	aa0003fa 	mov	x26, x0
 268:	eb15035f 	cmp	x26, x21
 26c:	54000060 	b.eq	278 <stbi_load_gif_from_memory+0x278>
 270:	2a1603f3 	mov	w19, w22
 274:	b5fffb9a 	cbnz	x26, 1e4 <stbi_load_gif_from_memory+0x1e4>
 278:	f9409be0 	ldr	x0, [sp,#304]
 27c:	94000000 	bl	0 <free>
 280:	f940a3e0 	ldr	x0, [sp,#320]
 284:	94000000 	bl	0 <free>
 288:	f9409fe0 	ldr	x0, [sp,#312]
 28c:	94000000 	bl	0 <free>
 290:	321e0388 	orr	w8, w28, #0x4
 294:	7100111f 	cmp	w8, #0x4
 298:	54000120 	b.eq	2bc <stbi_load_gif_from_memory+0x2bc>
 29c:	b9412be8 	ldr	w8, [sp,#296]
 2a0:	b9412fe4 	ldr	w4, [sp,#300]
 2a4:	321e03e1 	orr	w1, wzr, #0x4
 2a8:	aa1803e0 	mov	x0, x24
 2ac:	1b167d03 	mul	w3, w8, w22
 2b0:	2a1c03e2 	mov	w2, w28
 2b4:	94000000 	bl	0 <stbi_load_gif_from_memory>
 2b8:	aa0003f8 	mov	x24, x0
 2bc:	f90013f8 	str	x24, [sp,#32]
 2c0:	b9000376 	str	w22, [x27]
 2c4:	90000008 	adrp	x8, 0 <stbi_load_gif_from_memory>
 2c8:	b9400108 	ldr	w8, [x8]
 2cc:	34000768 	cbz	w8, 3b8 <stbi_load_gif_from_memory+0x3b8>
 2d0:	b9400368 	ldr	w8, [x27]
 2d4:	7100051f 	cmp	w8, #0x1
 2d8:	b9002be8 	str	w8, [sp,#40]
 2dc:	540006eb 	b.lt	3b8 <stbi_load_gif_from_memory+0x3b8>
 2e0:	f9401fe8 	ldr	x8, [sp,#56]
 2e4:	b9400108 	ldr	w8, [x8]
 2e8:	13017d18 	asr	w24, w8, #1
 2ec:	7100071f 	cmp	w24, #0x1
 2f0:	5400064b 	b.lt	3b8 <stbi_load_gif_from_memory+0x3b8>
 2f4:	f9401be9 	ldr	x9, [sp,#48]
 2f8:	b980012a 	ldrsw	x10, [x9]
 2fc:	f94023e9 	ldr	x9, [sp,#64]
 300:	b9800129 	ldrsw	x9, [x9]
 304:	9b0a7d3a 	mul	x26, x9, x10
 308:	b400059a 	cbz	x26, 3b8 <stbi_load_gif_from_memory+0x3b8>
 30c:	f94013f3 	ldr	x19, [sp,#32]
 310:	1b0a7d0a 	mul	w10, w8, w10
 314:	5100051b 	sub	w27, w8, #0x1
 318:	1b097d48 	mul	w8, w10, w9
 31c:	2a1f03eb 	mov	w11, wzr
 320:	93407d08 	sxtw	x8, w8
 324:	321503f7 	orr	w23, wzr, #0x800
 328:	f9001fe8 	str	x8, [sp,#56]
 32c:	aa1f03fc 	mov	x28, xzr
 330:	b90043eb 	str	w11, [sp,#64]
 334:	4b1c0368 	sub	w8, w27, w28
 338:	93407d08 	sxtw	x8, w8
 33c:	9b1a4f94 	madd	x20, x28, x26, x19
 340:	9b084f55 	madd	x21, x26, x8, x19
 344:	aa1a03f9 	mov	x25, x26
 348:	f120033f 	cmp	x25, #0x800
 34c:	9a973336 	csel	x22, x25, x23, cc
 350:	9104a3e0 	add	x0, sp, #0x128
 354:	aa1403e1 	mov	x1, x20
 358:	aa1603e2 	mov	x2, x22
 35c:	94000000 	bl	0 <memcpy>
 360:	aa1403e0 	mov	x0, x20
 364:	aa1503e1 	mov	x1, x21
 368:	aa1603e2 	mov	x2, x22
 36c:	94000000 	bl	0 <memcpy>
 370:	9104a3e1 	add	x1, sp, #0x128
 374:	aa1503e0 	mov	x0, x21
 378:	aa1603e2 	mov	x2, x22
 37c:	94000000 	bl	0 <memcpy>
 380:	8b160294 	add	x20, x20, x22
 384:	cb160339 	sub	x25, x25, x22
 388:	8b1602b5 	add	x21, x21, x22
 38c:	b5fffdf9 	cbnz	x25, 348 <stbi_load_gif_from_memory+0x348>
 390:	9100079c 	add	x28, x28, #0x1
 394:	eb18039f 	cmp	x28, x24
 398:	54fffce1 	b.ne	334 <stbi_load_gif_from_memory+0x334>
 39c:	b94043eb 	ldr	w11, [sp,#64]
 3a0:	b9402be8 	ldr	w8, [sp,#40]
 3a4:	1100056b 	add	w11, w11, #0x1
 3a8:	6b08017f 	cmp	w11, w8
 3ac:	f9401fe8 	ldr	x8, [sp,#56]
 3b0:	8b080273 	add	x19, x19, x8
 3b4:	54fffbc1 	b.ne	32c <stbi_load_gif_from_memory+0x32c>
 3b8:	f9400fe8 	ldr	x8, [sp,#24]
 3bc:	910123e9 	add	x9, sp, #0x48
 3c0:	f9401508 	ldr	x8, [x8,#40]
 3c4:	f9400129 	ldr	x9, [x9]
 3c8:	eb09011f 	cmp	x8, x9
 3cc:	54000161 	b.ne	3f8 <stbi_load_gif_from_memory+0x3f8>
 3d0:	f94013e0 	ldr	x0, [sp,#32]
 3d4:	914023ff 	add	sp, sp, #0x8, lsl #12
 3d8:	912683ff 	add	sp, sp, #0x9a0
 3dc:	a9457bfd 	ldp	x29, x30, [sp,#80]
 3e0:	a9444ff4 	ldp	x20, x19, [sp,#64]
 3e4:	a94357f6 	ldp	x22, x21, [sp,#48]
 3e8:	a9425ff8 	ldp	x24, x23, [sp,#32]
 3ec:	a94167fa 	ldp	x26, x25, [sp,#16]
 3f0:	a8c66ffc 	ldp	x28, x27, [sp],#96
 3f4:	d65f03c0 	ret
 3f8:	94000000 	bl	0 <__stack_chk_fail>

Disassembly of section .text.stbi_loadf_from_memory:

0000000000000000 <stbi_loadf_from_memory>:
   0:	d10403ff 	sub	sp, sp, #0x100
   4:	f90073f3 	str	x19, [sp,#224]
   8:	a90f7bfd 	stp	x29, x30, [sp,#240]
   c:	9103c3fd 	add	x29, sp, #0xf0
  10:	d53bd053 	mrs	x19, tpidr_el0
  14:	f9401668 	ldr	x8, [x19,#40]
  18:	8b21c009 	add	x9, x0, w1, sxtw
  1c:	aa0203e1 	mov	x1, x2
  20:	aa0303e2 	mov	x2, x3
  24:	f81e83a8 	stur	x8, [x29,#-24]
  28:	a90ca7e0 	stp	x0, x9, [sp,#200]
  2c:	a90ba7e0 	stp	x0, x9, [sp,#184]
  30:	910003e0 	mov	x0, sp
  34:	aa0403e3 	mov	x3, x4
  38:	2a0503e4 	mov	w4, w5
  3c:	f9000bff 	str	xzr, [sp,#16]
  40:	b90033ff 	str	wzr, [sp,#48]
  44:	94000000 	bl	0 <stbi_loadf_from_memory>
  48:	f9401668 	ldr	x8, [x19,#40]
  4c:	f85e83a9 	ldur	x9, [x29,#-24]
  50:	eb09011f 	cmp	x8, x9
  54:	540000a1 	b.ne	68 <stbi_loadf_from_memory+0x68>
  58:	a94f7bfd 	ldp	x29, x30, [sp,#240]
  5c:	f94073f3 	ldr	x19, [sp,#224]
  60:	910403ff 	add	sp, sp, #0x100
  64:	d65f03c0 	ret
  68:	94000000 	bl	0 <__stack_chk_fail>

Disassembly of section .text._ZL16stbi__loadf_mainP13stbi__contextPiS1_S1_i:

0000000000000000 <_ZL16stbi__loadf_mainP13stbi__contextPiS1_S1_i>:
   0:	fc180fea 	str	d10, [sp,#-128]!
   4:	6d0123e9 	stp	d9, d8, [sp,#16]
   8:	a9026ffc 	stp	x28, x27, [sp,#32]
   c:	a90367fa 	stp	x26, x25, [sp,#48]
  10:	a9045ff8 	stp	x24, x23, [sp,#64]
  14:	a90557f6 	stp	x22, x21, [sp,#80]
  18:	a9064ff4 	stp	x20, x19, [sp,#96]
  1c:	a9077bfd 	stp	x29, x30, [sp,#112]
  20:	9101c3fd 	add	x29, sp, #0x70
  24:	d12103ff 	sub	sp, sp, #0x840
  28:	d53bd059 	mrs	x25, tpidr_el0
  2c:	f9401728 	ldr	x8, [x25,#40]
  30:	2a0403f5 	mov	w21, w4
  34:	aa0303f7 	mov	x23, x3
  38:	aa0203f8 	mov	x24, x2
  3c:	aa0103f6 	mov	x22, x1
  40:	aa0003f3 	mov	x19, x0
  44:	f81883a8 	stur	x8, [x29,#-120]
  48:	94000000 	bl	0 <_ZL16stbi__loadf_mainP13stbi__contextPiS1_S1_i>
  4c:	34000700 	cbz	w0, 12c <_ZL16stbi__loadf_mainP13stbi__contextPiS1_S1_i+0x12c>
  50:	aa1303e0 	mov	x0, x19
  54:	aa1603e1 	mov	x1, x22
  58:	aa1803e2 	mov	x2, x24
  5c:	aa1703e3 	mov	x3, x23
  60:	2a1503e4 	mov	w4, w21
  64:	94000000 	bl	0 <_ZL16stbi__loadf_mainP13stbi__contextPiS1_S1_i>
  68:	aa0003f3 	mov	x19, x0
  6c:	b4001413 	cbz	x19, 2ec <_ZL16stbi__loadf_mainP13stbi__contextPiS1_S1_i+0x2ec>
  70:	90000008 	adrp	x8, 0 <_ZL16stbi__loadf_mainP13stbi__contextPiS1_S1_i>
  74:	b9400108 	ldr	w8, [x8]
  78:	340013a8 	cbz	w8, 2ec <_ZL16stbi__loadf_mainP13stbi__contextPiS1_S1_i+0x2ec>
  7c:	f9001bf9 	str	x25, [sp,#48]
  80:	35000055 	cbnz	w21, 88 <_ZL16stbi__loadf_mainP13stbi__contextPiS1_S1_i+0x88>
  84:	b94002f5 	ldr	w21, [x23]
  88:	b9400308 	ldr	w8, [x24]
  8c:	13017d09 	asr	w9, w8, #1
  90:	7100053f 	cmp	w9, #0x1
  94:	5400048b 	b.lt	124 <_ZL16stbi__loadf_mainP13stbi__contextPiS1_S1_i+0x124>
  98:	b98002ca 	ldrsw	x10, [x22]
  9c:	531e76ab 	lsl	w11, w21, #2
  a0:	93407d6b 	sxtw	x11, w11
  a4:	9b0a7d79 	mul	x25, x11, x10
  a8:	b40003f9 	cbz	x25, 124 <_ZL16stbi__loadf_mainP13stbi__contextPiS1_S1_i+0x124>
  ac:	aa1f03f8 	mov	x24, xzr
  b0:	5100051a 	sub	w26, w8, #0x1
  b4:	2a0903fb 	mov	w27, w9
  b8:	321503fc 	orr	w28, wzr, #0x800
  bc:	4b180348 	sub	w8, w26, w24
  c0:	93407d08 	sxtw	x8, w8
  c4:	9b194f14 	madd	x20, x24, x25, x19
  c8:	9b084f35 	madd	x21, x25, x8, x19
  cc:	aa1903f7 	mov	x23, x25
  d0:	f12002ff 	cmp	x23, #0x800
  d4:	9a9c32f6 	csel	x22, x23, x28, cc
  d8:	9100e3e0 	add	x0, sp, #0x38
  dc:	aa1403e1 	mov	x1, x20
  e0:	aa1603e2 	mov	x2, x22
  e4:	94000000 	bl	0 <memcpy>
  e8:	aa1403e0 	mov	x0, x20
  ec:	aa1503e1 	mov	x1, x21
  f0:	aa1603e2 	mov	x2, x22
  f4:	94000000 	bl	0 <memcpy>
  f8:	9100e3e1 	add	x1, sp, #0x38
  fc:	aa1503e0 	mov	x0, x21
 100:	aa1603e2 	mov	x2, x22
 104:	94000000 	bl	0 <memcpy>
 108:	8b160294 	add	x20, x20, x22
 10c:	cb1602f7 	sub	x23, x23, x22
 110:	8b1602b5 	add	x21, x21, x22
 114:	b5fffdf7 	cbnz	x23, d0 <_ZL16stbi__loadf_mainP13stbi__contextPiS1_S1_i+0xd0>
 118:	91000718 	add	x24, x24, #0x1
 11c:	eb1b031f 	cmp	x24, x27
 120:	54fffce1 	b.ne	bc <_ZL16stbi__loadf_mainP13stbi__contextPiS1_S1_i+0xbc>
 124:	f9401bf9 	ldr	x25, [sp,#48]
 128:	14000071 	b	2ec <_ZL16stbi__loadf_mainP13stbi__contextPiS1_S1_i+0x2ec>
 12c:	aa1303e0 	mov	x0, x19
 130:	aa1603e1 	mov	x1, x22
 134:	aa1803e2 	mov	x2, x24
 138:	aa1703e3 	mov	x3, x23
 13c:	2a1503e4 	mov	w4, w21
 140:	94000000 	bl	0 <_ZL16stbi__loadf_mainP13stbi__contextPiS1_S1_i>
 144:	aa0003f4 	mov	x20, x0
 148:	b4000b14 	cbz	x20, 2a8 <_ZL16stbi__loadf_mainP13stbi__contextPiS1_S1_i+0x2a8>
 14c:	b94002c8 	ldr	w8, [x22]
 150:	b9400309 	ldr	w9, [x24]
 154:	34000b75 	cbz	w21, 2c0 <_ZL16stbi__loadf_mainP13stbi__contextPiS1_S1_i+0x2c0>
 158:	2a08012a 	orr	w10, w9, w8
 15c:	37f80b8a 	tbnz	w10, #31, 2cc <_ZL16stbi__loadf_mainP13stbi__contextPiS1_S1_i+0x2cc>
 160:	340000a9 	cbz	w9, 174 <_ZL16stbi__loadf_mainP13stbi__contextPiS1_S1_i+0x174>
 164:	32007bea 	orr	w10, wzr, #0x7fffffff
 168:	1ac90d4a 	sdiv	w10, w10, w9
 16c:	6b08015f 	cmp	w10, w8
 170:	54000aeb 	b.lt	2cc <_ZL16stbi__loadf_mainP13stbi__contextPiS1_S1_i+0x2cc>
 174:	1b087d36 	mul	w22, w9, w8
 178:	2a1602aa 	orr	w10, w21, w22
 17c:	37f80a8a 	tbnz	w10, #31, 2cc <_ZL16stbi__loadf_mainP13stbi__contextPiS1_S1_i+0x2cc>
 180:	34000115 	cbz	w21, 1a0 <_ZL16stbi__loadf_mainP13stbi__contextPiS1_S1_i+0x1a0>
 184:	1b167eaa 	mul	w10, w21, w22
 188:	531d7d4a 	lsr	w10, w10, #29
 18c:	35000a0a 	cbnz	w10, 2cc <_ZL16stbi__loadf_mainP13stbi__contextPiS1_S1_i+0x2cc>
 190:	32007bea 	orr	w10, wzr, #0x7fffffff
 194:	1ad50d4a 	sdiv	w10, w10, w21
 198:	6b16015f 	cmp	w10, w22
 19c:	5400098b 	b.lt	2cc <_ZL16stbi__loadf_mainP13stbi__contextPiS1_S1_i+0x2cc>
 1a0:	1b097d08 	mul	w8, w8, w9
 1a4:	1b157d08 	mul	w8, w8, w21
 1a8:	531e7508 	lsl	w8, w8, #2
 1ac:	93407d00 	sxtw	x0, w8
 1b0:	94000000 	bl	0 <malloc>
 1b4:	aa0003f3 	mov	x19, x0
 1b8:	b40008b3 	cbz	x19, 2cc <_ZL16stbi__loadf_mainP13stbi__contextPiS1_S1_i+0x2cc>
 1bc:	720002bf 	tst	w21, #0x1
 1c0:	1a9f17e8 	cset	w8, eq
 1c4:	710006df 	cmp	w22, #0x1
 1c8:	54000fab 	b.lt	3bc <_ZL16stbi__loadf_mainP13stbi__contextPiS1_S1_i+0x3bc>
 1cc:	93407ea9 	sxtw	x9, w21
 1d0:	cb080128 	sub	x8, x9, x8
 1d4:	7100051f 	cmp	w8, #0x1
 1d8:	b90017f6 	str	w22, [sp,#20]
 1dc:	a902e7e9 	stp	x9, x25, [sp,#40]
 1e0:	f90007e8 	str	x8, [sp,#8]
 1e4:	5400050b 	b.lt	284 <_ZL16stbi__loadf_mainP13stbi__contextPiS1_S1_i+0x284>
 1e8:	f94007e9 	ldr	x9, [sp,#8]
 1ec:	90000008 	adrp	x8, 0 <_ZL16stbi__loadf_mainP13stbi__contextPiS1_S1_i>
 1f0:	91000108 	add	x8, x8, #0x0
 1f4:	2d400500 	ldp	s0, s1, [x8]
 1f8:	2a0903e9 	mov	w9, w9
 1fc:	90000008 	adrp	x8, 0 <_ZL16stbi__loadf_mainP13stbi__contextPiS1_S1_i>
 200:	f90013e9 	str	x9, [sp,#32]
 204:	b94017e9 	ldr	w9, [sp,#20]
 208:	bd400109 	ldr	s9, [x8]
 20c:	f94017e8 	ldr	x8, [sp,#40]
 210:	aa1f03fa 	mov	x26, xzr
 214:	2a0903e9 	mov	w9, w9
 218:	1e22c008 	fcvt	d8, s0
 21c:	1e22c02a 	fcvt	d10, s1
 220:	d37ef516 	lsl	x22, x8, #2
 224:	aa1403fb 	mov	x27, x20
 228:	aa1303fc 	mov	x28, x19
 22c:	f9000fe9 	str	x9, [sp,#24]
 230:	f94013f9 	ldr	x25, [sp,#32]
 234:	aa1b03f7 	mov	x23, x27
 238:	aa1c03f8 	mov	x24, x28
 23c:	384016e8 	ldrb	w8, [x23],#1
 240:	4ea81d01 	mov	v1.16b, v8.16b
 244:	1e230100 	ucvtf	s0, w8
 248:	1e290800 	fmul	s0, s0, s9
 24c:	1e22c000 	fcvt	d0, s0
 250:	94000000 	bl	0 <pow>
 254:	1e6a0800 	fmul	d0, d0, d10
 258:	1e624000 	fcvt	s0, d0
 25c:	d1000739 	sub	x25, x25, #0x1
 260:	bc004700 	str	s0, [x24],#4
 264:	b5fffed9 	cbnz	x25, 23c <_ZL16stbi__loadf_mainP13stbi__contextPiS1_S1_i+0x23c>
 268:	f9400fe8 	ldr	x8, [sp,#24]
 26c:	9100075a 	add	x26, x26, #0x1
 270:	8b16039c 	add	x28, x28, x22
 274:	eb08035f 	cmp	x26, x8
 278:	f94017e8 	ldr	x8, [sp,#40]
 27c:	8b08037b 	add	x27, x27, x8
 280:	54fffd81 	b.ne	230 <_ZL16stbi__loadf_mainP13stbi__contextPiS1_S1_i+0x230>
 284:	f9401bf9 	ldr	x25, [sp,#48]
 288:	b94017ea 	ldr	w10, [sp,#20]
 28c:	37000995 	tbnz	w21, #0, 3bc <_ZL16stbi__loadf_mainP13stbi__contextPiS1_S1_i+0x3bc>
 290:	93407ea8 	sxtw	x8, w21
 294:	7100095f 	cmp	w10, #0x2
 298:	2a0a03e9 	mov	w9, w10
 29c:	54000462 	b.cs	328 <_ZL16stbi__loadf_mainP13stbi__contextPiS1_S1_i+0x328>
 2a0:	aa1f03ea 	mov	x10, xzr
 2a4:	1400003a 	b	38c <_ZL16stbi__loadf_mainP13stbi__contextPiS1_S1_i+0x38c>
 2a8:	90000008 	adrp	x8, 0 <_ZL16stbi__loadf_mainP13stbi__contextPiS1_S1_i>
 2ac:	90000009 	adrp	x9, 0 <_ZL16stbi__loadf_mainP13stbi__contextPiS1_S1_i>
 2b0:	aa1f03f3 	mov	x19, xzr
 2b4:	91000108 	add	x8, x8, #0x0
 2b8:	91000129 	add	x9, x9, #0x0
 2bc:	1400000b 	b	2e8 <_ZL16stbi__loadf_mainP13stbi__contextPiS1_S1_i+0x2e8>
 2c0:	b94002f5 	ldr	w21, [x23]
 2c4:	2a08012a 	orr	w10, w9, w8
 2c8:	36fff4ca 	tbz	w10, #31, 160 <_ZL16stbi__loadf_mainP13stbi__contextPiS1_S1_i+0x160>
 2cc:	aa1403e0 	mov	x0, x20
 2d0:	94000000 	bl	0 <free>
 2d4:	90000008 	adrp	x8, 0 <_ZL16stbi__loadf_mainP13stbi__contextPiS1_S1_i>
 2d8:	90000009 	adrp	x9, 0 <_ZL16stbi__loadf_mainP13stbi__contextPiS1_S1_i>
 2dc:	aa1f03f3 	mov	x19, xzr
 2e0:	91000108 	add	x8, x8, #0x0
 2e4:	91000129 	add	x9, x9, #0x0
 2e8:	f9000909 	str	x9, [x8,#16]
 2ec:	f9401728 	ldr	x8, [x25,#40]
 2f0:	f85883a9 	ldur	x9, [x29,#-120]
 2f4:	eb09011f 	cmp	x8, x9
 2f8:	54000681 	b.ne	3c8 <_ZL16stbi__loadf_mainP13stbi__contextPiS1_S1_i+0x3c8>
 2fc:	aa1303e0 	mov	x0, x19
 300:	912103ff 	add	sp, sp, #0x840
 304:	a9477bfd 	ldp	x29, x30, [sp,#112]
 308:	a9464ff4 	ldp	x20, x19, [sp,#96]
 30c:	a94557f6 	ldp	x22, x21, [sp,#80]
 310:	a9445ff8 	ldp	x24, x23, [sp,#64]
 314:	a94367fa 	ldp	x26, x25, [sp,#48]
 318:	a9426ffc 	ldp	x28, x27, [sp,#32]
 31c:	6d4123e9 	ldp	d9, d8, [sp,#16]
 320:	fc4807ea 	ldr	d10, [sp],#128
 324:	d65f03c0 	ret
 328:	1200014b 	and	w11, w10, #0x1
 32c:	cb0b012a 	sub	x10, x9, x11
 330:	b40002ea 	cbz	x10, 38c <_ZL16stbi__loadf_mainP13stbi__contextPiS1_S1_i+0x38c>
 334:	f94007f2 	ldr	x18, [sp,#8]
 338:	9000000d 	adrp	x13, 0 <_ZL16stbi__loadf_mainP13stbi__contextPiS1_S1_i>
 33c:	bd4001a0 	ldr	s0, [x13]
 340:	d37df10d 	lsl	x13, x8, #3
 344:	8b12010c 	add	x12, x8, x18
 348:	8b12028e 	add	x14, x20, x18
 34c:	d37ff90f 	lsl	x15, x8, #1
 350:	aa0a03f0 	mov	x16, x10
 354:	aa1303f1 	mov	x17, x19
 358:	3d4001c1 	ldr	b1, [x14]
 35c:	3c6e6902 	ldr	b2, [x8,x14]
 360:	d1000a10 	sub	x16, x16, #0x2
 364:	8b0f01ce 	add	x14, x14, x15
 368:	7e21d821 	ucvtf	s1, s1
 36c:	7e21d842 	ucvtf	s2, s2
 370:	1e200821 	fmul	s1, s1, s0
 374:	1e200842 	fmul	s2, s2, s0
 378:	bc327a21 	str	s1, [x17,x18,lsl #2]
 37c:	bc2c7a22 	str	s2, [x17,x12,lsl #2]
 380:	8b0d0231 	add	x17, x17, x13
 384:	b5fffeb0 	cbnz	x16, 358 <_ZL16stbi__loadf_mainP13stbi__contextPiS1_S1_i+0x358>
 388:	340001ab 	cbz	w11, 3bc <_ZL16stbi__loadf_mainP13stbi__contextPiS1_S1_i+0x3bc>
 38c:	9000000b 	adrp	x11, 0 <_ZL16stbi__loadf_mainP13stbi__contextPiS1_S1_i>
 390:	bd400160 	ldr	s0, [x11]
 394:	f94007eb 	ldr	x11, [sp,#8]
 398:	cb0a0129 	sub	x9, x9, x10
 39c:	9b082d4b 	madd	x11, x10, x8, x11
 3a0:	3c6b6a81 	ldr	b1, [x20,x11]
 3a4:	d1000529 	sub	x9, x9, #0x1
 3a8:	7e21d821 	ucvtf	s1, s1
 3ac:	1e200821 	fmul	s1, s1, s0
 3b0:	bc2b7a61 	str	s1, [x19,x11,lsl #2]
 3b4:	8b08016b 	add	x11, x11, x8
 3b8:	b5ffff49 	cbnz	x9, 3a0 <_ZL16stbi__loadf_mainP13stbi__contextPiS1_S1_i+0x3a0>
 3bc:	aa1403e0 	mov	x0, x20
 3c0:	94000000 	bl	0 <free>
 3c4:	17ffffca 	b	2ec <_ZL16stbi__loadf_mainP13stbi__contextPiS1_S1_i+0x2ec>
 3c8:	94000000 	bl	0 <__stack_chk_fail>

Disassembly of section .text.stbi_loadf_from_callbacks:

0000000000000000 <stbi_loadf_from_callbacks>:
   0:	d104c3ff 	sub	sp, sp, #0x130
   4:	a90e67fc 	stp	x28, x25, [sp,#224]
   8:	a90f5ff8 	stp	x24, x23, [sp,#240]
   c:	a91057f6 	stp	x22, x21, [sp,#256]
  10:	a9114ff4 	stp	x20, x19, [sp,#272]
  14:	a9127bfd 	stp	x29, x30, [sp,#288]
  18:	910483fd 	add	x29, sp, #0x120
  1c:	d53bd058 	mrs	x24, tpidr_el0
  20:	f9401708 	ldr	x8, [x24,#40]
  24:	910003f9 	mov	x25, sp
  28:	b21903e9 	mov	x9, #0x8000000080          	// #549755814016
  2c:	9100e337 	add	x23, x25, #0x38
  30:	f81b83a8 	stur	x8, [x29,#-72]
  34:	3dc00000 	ldr	q0, [x0]
  38:	f2800029 	movk	x9, #0x1
  3c:	aa0203f6 	mov	x22, x2
  40:	321903e2 	orr	w2, wzr, #0x80
  44:	3d8007e0 	str	q0, [sp,#16]
  48:	f9400808 	ldr	x8, [x0,#16]
  4c:	aa0103e0 	mov	x0, x1
  50:	2a0503f3 	mov	w19, w5
  54:	aa0403f4 	mov	x20, x4
  58:	a90207e8 	stp	x8, x1, [sp,#32]
  5c:	f9400be8 	ldr	x8, [sp,#16]
  60:	aa1703e1 	mov	x1, x23
  64:	aa0303f5 	mov	x21, x3
  68:	f9001be9 	str	x9, [sp,#48]
  6c:	f90067f7 	str	x23, [sp,#200]
  70:	d63f0100 	blr	x8
  74:	34000080 	cbz	w0, 84 <stbi_loadf_from_callbacks+0x84>
  78:	8b20c328 	add	x8, x25, w0, sxtw
  7c:	9100e108 	add	x8, x8, #0x38
  80:	14000004 	b	90 <stbi_loadf_from_callbacks+0x90>
  84:	b90033ff 	str	wzr, [sp,#48]
  88:	9100e728 	add	x8, x25, #0x39
  8c:	3900e3ff 	strb	wzr, [sp,#56]
  90:	910003e0 	mov	x0, sp
  94:	aa1603e1 	mov	x1, x22
  98:	aa1503e2 	mov	x2, x21
  9c:	aa1403e3 	mov	x3, x20
  a0:	2a1303e4 	mov	w4, w19
  a4:	a90ba3f7 	stp	x23, x8, [sp,#184]
  a8:	f9006be8 	str	x8, [sp,#208]
  ac:	94000000 	bl	0 <stbi_loadf_from_callbacks>
  b0:	f9401708 	ldr	x8, [x24,#40]
  b4:	f85b83a9 	ldur	x9, [x29,#-72]
  b8:	eb09011f 	cmp	x8, x9
  bc:	54000101 	b.ne	dc <stbi_loadf_from_callbacks+0xdc>
  c0:	a9527bfd 	ldp	x29, x30, [sp,#288]
  c4:	a9514ff4 	ldp	x20, x19, [sp,#272]
  c8:	a95057f6 	ldp	x22, x21, [sp,#256]
  cc:	a94f5ff8 	ldp	x24, x23, [sp,#240]
  d0:	a94e67fc 	ldp	x28, x25, [sp,#224]
  d4:	9104c3ff 	add	sp, sp, #0x130
  d8:	d65f03c0 	ret
  dc:	94000000 	bl	0 <__stack_chk_fail>

Disassembly of section .text.stbi_loadf:

0000000000000000 <stbi_loadf>:
   0:	d10503ff 	sub	sp, sp, #0x140
   4:	f90073fc 	str	x28, [sp,#224]
   8:	a90f67fa 	stp	x26, x25, [sp,#240]
   c:	a9105ff8 	stp	x24, x23, [sp,#256]
  10:	a91157f6 	stp	x22, x21, [sp,#272]
  14:	a9124ff4 	stp	x20, x19, [sp,#288]
  18:	a9137bfd 	stp	x29, x30, [sp,#304]
  1c:	9104c3fd 	add	x29, sp, #0x130
  20:	d53bd059 	mrs	x25, tpidr_el0
  24:	f9401728 	ldr	x8, [x25,#40]
  28:	aa0103f6 	mov	x22, x1
  2c:	90000001 	adrp	x1, 0 <stbi_loadf>
  30:	91000021 	add	x1, x1, #0x0
  34:	2a0403f3 	mov	w19, w4
  38:	aa0303f4 	mov	x20, x3
  3c:	aa0203f5 	mov	x21, x2
  40:	f81a83a8 	stur	x8, [x29,#-88]
  44:	94000000 	bl	0 <fopen>
  48:	aa0003f7 	mov	x23, x0
  4c:	b40002d7 	cbz	x23, a4 <stbi_loadf+0xa4>
  50:	90000008 	adrp	x8, 0 <stbi_loadf>
  54:	91000108 	add	x8, x8, #0x0
  58:	3dc00100 	ldr	q0, [x8]
  5c:	f9400908 	ldr	x8, [x8,#16]
  60:	910003fa 	mov	x26, sp
  64:	b21903e9 	mov	x9, #0x8000000080          	// #549755814016
  68:	3d8007e0 	str	q0, [sp,#16]
  6c:	a9025fe8 	stp	x8, x23, [sp,#32]
  70:	f9400be8 	ldr	x8, [sp,#16]
  74:	9100e358 	add	x24, x26, #0x38
  78:	f2800029 	movk	x9, #0x1
  7c:	321903e2 	orr	w2, wzr, #0x80
  80:	aa1703e0 	mov	x0, x23
  84:	aa1803e1 	mov	x1, x24
  88:	f9001be9 	str	x9, [sp,#48]
  8c:	f90067f8 	str	x24, [sp,#200]
  90:	d63f0100 	blr	x8
  94:	34000160 	cbz	w0, c0 <stbi_loadf+0xc0>
  98:	8b20c348 	add	x8, x26, w0, sxtw
  9c:	9100e108 	add	x8, x8, #0x38
  a0:	1400000b 	b	cc <stbi_loadf+0xcc>
  a4:	90000008 	adrp	x8, 0 <stbi_loadf>
  a8:	90000009 	adrp	x9, 0 <stbi_loadf>
  ac:	91000108 	add	x8, x8, #0x0
  b0:	91000129 	add	x9, x9, #0x0
  b4:	aa1f03f3 	mov	x19, xzr
  b8:	f9000909 	str	x9, [x8,#16]
  bc:	1400000f 	b	f8 <stbi_loadf+0xf8>
  c0:	b90033ff 	str	wzr, [sp,#48]
  c4:	9100e748 	add	x8, x26, #0x39
  c8:	3900e3ff 	strb	wzr, [sp,#56]
  cc:	910003e0 	mov	x0, sp
  d0:	aa1603e1 	mov	x1, x22
  d4:	aa1503e2 	mov	x2, x21
  d8:	aa1403e3 	mov	x3, x20
  dc:	2a1303e4 	mov	w4, w19
  e0:	a90ba3f8 	stp	x24, x8, [sp,#184]
  e4:	f9006be8 	str	x8, [sp,#208]
  e8:	94000000 	bl	0 <stbi_loadf>
  ec:	aa0003f3 	mov	x19, x0
  f0:	aa1703e0 	mov	x0, x23
  f4:	94000000 	bl	0 <fclose>
  f8:	f9401728 	ldr	x8, [x25,#40]
  fc:	f85a83a9 	ldur	x9, [x29,#-88]
 100:	eb09011f 	cmp	x8, x9
 104:	54000141 	b.ne	12c <stbi_loadf+0x12c>
 108:	aa1303e0 	mov	x0, x19
 10c:	a9537bfd 	ldp	x29, x30, [sp,#304]
 110:	a9524ff4 	ldp	x20, x19, [sp,#288]
 114:	a95157f6 	ldp	x22, x21, [sp,#272]
 118:	a9505ff8 	ldp	x24, x23, [sp,#256]
 11c:	a94f67fa 	ldp	x26, x25, [sp,#240]
 120:	f94073fc 	ldr	x28, [sp,#224]
 124:	910503ff 	add	sp, sp, #0x140
 128:	d65f03c0 	ret
 12c:	94000000 	bl	0 <__stack_chk_fail>

Disassembly of section .text.stbi_loadf_from_file:

0000000000000000 <stbi_loadf_from_file>:
   0:	d104c3ff 	sub	sp, sp, #0x130
   4:	a90e67fc 	stp	x28, x25, [sp,#224]
   8:	a90f5ff8 	stp	x24, x23, [sp,#240]
   c:	a91057f6 	stp	x22, x21, [sp,#256]
  10:	a9114ff4 	stp	x20, x19, [sp,#272]
  14:	a9127bfd 	stp	x29, x30, [sp,#288]
  18:	910483fd 	add	x29, sp, #0x120
  1c:	d53bd058 	mrs	x24, tpidr_el0
  20:	f9401708 	ldr	x8, [x24,#40]
  24:	90000009 	adrp	x9, 0 <stbi_loadf_from_file>
  28:	91000129 	add	x9, x9, #0x0
  2c:	910003f9 	mov	x25, sp
  30:	f81b83a8 	stur	x8, [x29,#-72]
  34:	3dc00120 	ldr	q0, [x9]
  38:	f9400928 	ldr	x8, [x9,#16]
  3c:	b21903e9 	mov	x9, #0x8000000080          	// #549755814016
  40:	9100e337 	add	x23, x25, #0x38
  44:	3d8007e0 	str	q0, [sp,#16]
  48:	a90203e8 	stp	x8, x0, [sp,#32]
  4c:	f9400be8 	ldr	x8, [sp,#16]
  50:	aa0203f5 	mov	x21, x2
  54:	f2800029 	movk	x9, #0x1
  58:	aa0103f6 	mov	x22, x1
  5c:	321903e2 	orr	w2, wzr, #0x80
  60:	aa1703e1 	mov	x1, x23
  64:	2a0403f3 	mov	w19, w4
  68:	aa0303f4 	mov	x20, x3
  6c:	f9001be9 	str	x9, [sp,#48]
  70:	f90067f7 	str	x23, [sp,#200]
  74:	d63f0100 	blr	x8
  78:	34000080 	cbz	w0, 88 <stbi_loadf_from_file+0x88>
  7c:	8b20c328 	add	x8, x25, w0, sxtw
  80:	9100e108 	add	x8, x8, #0x38
  84:	14000004 	b	94 <stbi_loadf_from_file+0x94>
  88:	b90033ff 	str	wzr, [sp,#48]
  8c:	9100e728 	add	x8, x25, #0x39
  90:	3900e3ff 	strb	wzr, [sp,#56]
  94:	910003e0 	mov	x0, sp
  98:	aa1603e1 	mov	x1, x22
  9c:	aa1503e2 	mov	x2, x21
  a0:	aa1403e3 	mov	x3, x20
  a4:	2a1303e4 	mov	w4, w19
  a8:	a90ba3f7 	stp	x23, x8, [sp,#184]
  ac:	f9006be8 	str	x8, [sp,#208]
  b0:	94000000 	bl	0 <stbi_loadf_from_file>
  b4:	f9401708 	ldr	x8, [x24,#40]
  b8:	f85b83a9 	ldur	x9, [x29,#-72]
  bc:	eb09011f 	cmp	x8, x9
  c0:	54000101 	b.ne	e0 <stbi_loadf_from_file+0xe0>
  c4:	a9527bfd 	ldp	x29, x30, [sp,#288]
  c8:	a9514ff4 	ldp	x20, x19, [sp,#272]
  cc:	a95057f6 	ldp	x22, x21, [sp,#256]
  d0:	a94f5ff8 	ldp	x24, x23, [sp,#240]
  d4:	a94e67fc 	ldp	x28, x25, [sp,#224]
  d8:	9104c3ff 	add	sp, sp, #0x130
  dc:	d65f03c0 	ret
  e0:	94000000 	bl	0 <__stack_chk_fail>

Disassembly of section .text.stbi_is_hdr_from_memory:

0000000000000000 <stbi_is_hdr_from_memory>:
   0:	d10403ff 	sub	sp, sp, #0x100
   4:	f90073f3 	str	x19, [sp,#224]
   8:	a90f7bfd 	stp	x29, x30, [sp,#240]
   c:	9103c3fd 	add	x29, sp, #0xf0
  10:	d53bd053 	mrs	x19, tpidr_el0
  14:	f9401668 	ldr	x8, [x19,#40]
  18:	8b21c009 	add	x9, x0, w1, sxtw
  1c:	f81e83a8 	stur	x8, [x29,#-24]
  20:	a90ca7e0 	stp	x0, x9, [sp,#200]
  24:	a90ba7e0 	stp	x0, x9, [sp,#184]
  28:	910003e0 	mov	x0, sp
  2c:	f9000bff 	str	xzr, [sp,#16]
  30:	b90033ff 	str	wzr, [sp,#48]
  34:	94000000 	bl	0 <stbi_is_hdr_from_memory>
  38:	f9401668 	ldr	x8, [x19,#40]
  3c:	f85e83a9 	ldur	x9, [x29,#-24]
  40:	eb09011f 	cmp	x8, x9
  44:	540000a1 	b.ne	58 <stbi_is_hdr_from_memory+0x58>
  48:	a94f7bfd 	ldp	x29, x30, [sp,#240]
  4c:	f94073f3 	ldr	x19, [sp,#224]
  50:	910403ff 	add	sp, sp, #0x100
  54:	d65f03c0 	ret
  58:	94000000 	bl	0 <__stack_chk_fail>

Disassembly of section .text._ZL14stbi__hdr_testP13stbi__context:

0000000000000000 <_ZL14stbi__hdr_testP13stbi__context>:
   0:	f81c0ff7 	str	x23, [sp,#-64]!
   4:	a90157f6 	stp	x22, x21, [sp,#16]
   8:	a9024ff4 	stp	x20, x19, [sp,#32]
   c:	a9037bfd 	stp	x29, x30, [sp,#48]
  10:	9100c3fd 	add	x29, sp, #0x30
  14:	aa0003f3 	mov	x19, x0
  18:	a94ba269 	ldp	x9, x8, [x19,#184]
  1c:	90000017 	adrp	x23, 0 <_ZL14stbi__hdr_testP13stbi__context>
  20:	aa1f03f6 	mov	x22, xzr
  24:	9100e274 	add	x20, x19, #0x38
  28:	9100e675 	add	x21, x19, #0x39
  2c:	5280046a 	mov	w10, #0x23                  	// #35
  30:	910002f7 	add	x23, x23, #0x0
  34:	eb08013f 	cmp	x9, x8
  38:	54000223 	b.cc	7c <_ZL14stbi__hdr_testP13stbi__context+0x7c>
  3c:	b940326b 	ldr	w11, [x19,#48]
  40:	3400028b 	cbz	w11, 90 <_ZL14stbi__hdr_testP13stbi__context+0x90>
  44:	f9400a68 	ldr	x8, [x19,#16]
  48:	f9401660 	ldr	x0, [x19,#40]
  4c:	b9403662 	ldr	w2, [x19,#52]
  50:	aa1403e1 	mov	x1, x20
  54:	d63f0100 	blr	x8
  58:	34000080 	cbz	w0, 68 <_ZL14stbi__hdr_testP13stbi__context+0x68>
  5c:	8b20c268 	add	x8, x19, w0, sxtw
  60:	9100e108 	add	x8, x8, #0x38
  64:	14000004 	b	74 <_ZL14stbi__hdr_testP13stbi__context+0x74>
  68:	b900327f 	str	wzr, [x19,#48]
  6c:	3900e27f 	strb	wzr, [x19,#56]
  70:	aa1503e8 	mov	x8, x21
  74:	aa1403e9 	mov	x9, x20
  78:	a90ba274 	stp	x20, x8, [x19,#184]
  7c:	9100052c 	add	x12, x9, #0x1
  80:	f9005e6c 	str	x12, [x19,#184]
  84:	3940012b 	ldrb	w11, [x9]
  88:	38766aea 	ldrb	w10, [x23,x22]
  8c:	aa0c03e9 	mov	x9, x12
  90:	6b2a017f 	cmp	w11, w10, uxtb
  94:	54000121 	b.ne	b8 <_ZL14stbi__hdr_testP13stbi__context+0xb8>
  98:	8b1602ea 	add	x10, x23, x22
  9c:	3940054a 	ldrb	w10, [x10,#1]
  a0:	910006d6 	add	x22, x22, #0x1
  a4:	f1002edf 	cmp	x22, #0xb
  a8:	54fffc61 	b.ne	34 <_ZL14stbi__hdr_testP13stbi__context+0x34>
  ac:	a94ca668 	ldp	x8, x9, [x19,#200]
  b0:	320003e0 	orr	w0, wzr, #0x1
  b4:	140000a9 	b	358 <_ZL14stbi__hdr_testP13stbi__context+0x358>
  b8:	a94ca26a 	ldp	x10, x8, [x19,#200]
  bc:	eb08015f 	cmp	x10, x8
  c0:	a90ba26a 	stp	x10, x8, [x19,#184]
  c4:	54000223 	b.cc	108 <_ZL14stbi__hdr_testP13stbi__context+0x108>
  c8:	b9403268 	ldr	w8, [x19,#48]
  cc:	34001428 	cbz	w8, 350 <_ZL14stbi__hdr_testP13stbi__context+0x350>
  d0:	f9400a68 	ldr	x8, [x19,#16]
  d4:	f9401660 	ldr	x0, [x19,#40]
  d8:	b9403662 	ldr	w2, [x19,#52]
  dc:	aa1403e1 	mov	x1, x20
  e0:	d63f0100 	blr	x8
  e4:	34000080 	cbz	w0, f4 <_ZL14stbi__hdr_testP13stbi__context+0xf4>
  e8:	8b20c268 	add	x8, x19, w0, sxtw
  ec:	9100e108 	add	x8, x8, #0x38
  f0:	14000004 	b	100 <_ZL14stbi__hdr_testP13stbi__context+0x100>
  f4:	b900327f 	str	wzr, [x19,#48]
  f8:	3900e27f 	strb	wzr, [x19,#56]
  fc:	aa1503e8 	mov	x8, x21
 100:	aa1403ea 	mov	x10, x20
 104:	a90ba274 	stp	x20, x8, [x19,#184]
 108:	91000549 	add	x9, x10, #0x1
 10c:	f9005e69 	str	x9, [x19,#184]
 110:	3940014a 	ldrb	w10, [x10]
 114:	71008d5f 	cmp	w10, #0x23
 118:	540011c1 	b.ne	350 <_ZL14stbi__hdr_testP13stbi__context+0x350>
 11c:	eb08013f 	cmp	x9, x8
 120:	54000223 	b.cc	164 <_ZL14stbi__hdr_testP13stbi__context+0x164>
 124:	b9403268 	ldr	w8, [x19,#48]
 128:	34001148 	cbz	w8, 350 <_ZL14stbi__hdr_testP13stbi__context+0x350>
 12c:	f9400a68 	ldr	x8, [x19,#16]
 130:	f9401660 	ldr	x0, [x19,#40]
 134:	b9403662 	ldr	w2, [x19,#52]
 138:	aa1403e1 	mov	x1, x20
 13c:	d63f0100 	blr	x8
 140:	34000080 	cbz	w0, 150 <_ZL14stbi__hdr_testP13stbi__context+0x150>
 144:	8b20c268 	add	x8, x19, w0, sxtw
 148:	9100e108 	add	x8, x8, #0x38
 14c:	14000004 	b	15c <_ZL14stbi__hdr_testP13stbi__context+0x15c>
 150:	aa1503e8 	mov	x8, x21
 154:	b900327f 	str	wzr, [x19,#48]
 158:	3900e27f 	strb	wzr, [x19,#56]
 15c:	aa1403e9 	mov	x9, x20
 160:	a90ba274 	stp	x20, x8, [x19,#184]
 164:	9100052a 	add	x10, x9, #0x1
 168:	f9005e6a 	str	x10, [x19,#184]
 16c:	39400129 	ldrb	w9, [x9]
 170:	7100fd3f 	cmp	w9, #0x3f
 174:	54000ee1 	b.ne	350 <_ZL14stbi__hdr_testP13stbi__context+0x350>
 178:	eb08015f 	cmp	x10, x8
 17c:	54000223 	b.cc	1c0 <_ZL14stbi__hdr_testP13stbi__context+0x1c0>
 180:	b9403268 	ldr	w8, [x19,#48]
 184:	34000e68 	cbz	w8, 350 <_ZL14stbi__hdr_testP13stbi__context+0x350>
 188:	f9400a68 	ldr	x8, [x19,#16]
 18c:	f9401660 	ldr	x0, [x19,#40]
 190:	b9403662 	ldr	w2, [x19,#52]
 194:	aa1403e1 	mov	x1, x20
 198:	d63f0100 	blr	x8
 19c:	34000080 	cbz	w0, 1ac <_ZL14stbi__hdr_testP13stbi__context+0x1ac>
 1a0:	8b20c268 	add	x8, x19, w0, sxtw
 1a4:	9100e108 	add	x8, x8, #0x38
 1a8:	14000004 	b	1b8 <_ZL14stbi__hdr_testP13stbi__context+0x1b8>
 1ac:	aa1503e8 	mov	x8, x21
 1b0:	b900327f 	str	wzr, [x19,#48]
 1b4:	3900e27f 	strb	wzr, [x19,#56]
 1b8:	aa1403ea 	mov	x10, x20
 1bc:	a90ba274 	stp	x20, x8, [x19,#184]
 1c0:	91000549 	add	x9, x10, #0x1
 1c4:	f9005e69 	str	x9, [x19,#184]
 1c8:	3940014a 	ldrb	w10, [x10]
 1cc:	7101495f 	cmp	w10, #0x52
 1d0:	54000c01 	b.ne	350 <_ZL14stbi__hdr_testP13stbi__context+0x350>
 1d4:	eb08013f 	cmp	x9, x8
 1d8:	54000223 	b.cc	21c <_ZL14stbi__hdr_testP13stbi__context+0x21c>
 1dc:	b9403268 	ldr	w8, [x19,#48]
 1e0:	34000b88 	cbz	w8, 350 <_ZL14stbi__hdr_testP13stbi__context+0x350>
 1e4:	f9400a68 	ldr	x8, [x19,#16]
 1e8:	f9401660 	ldr	x0, [x19,#40]
 1ec:	b9403662 	ldr	w2, [x19,#52]
 1f0:	aa1403e1 	mov	x1, x20
 1f4:	d63f0100 	blr	x8
 1f8:	34000080 	cbz	w0, 208 <_ZL14stbi__hdr_testP13stbi__context+0x208>
 1fc:	8b20c268 	add	x8, x19, w0, sxtw
 200:	9100e108 	add	x8, x8, #0x38
 204:	14000004 	b	214 <_ZL14stbi__hdr_testP13stbi__context+0x214>
 208:	aa1503e8 	mov	x8, x21
 20c:	b900327f 	str	wzr, [x19,#48]
 210:	3900e27f 	strb	wzr, [x19,#56]
 214:	aa1403e9 	mov	x9, x20
 218:	a90ba274 	stp	x20, x8, [x19,#184]
 21c:	9100052a 	add	x10, x9, #0x1
 220:	f9005e6a 	str	x10, [x19,#184]
 224:	39400129 	ldrb	w9, [x9]
 228:	71011d3f 	cmp	w9, #0x47
 22c:	54000921 	b.ne	350 <_ZL14stbi__hdr_testP13stbi__context+0x350>
 230:	eb08015f 	cmp	x10, x8
 234:	54000223 	b.cc	278 <_ZL14stbi__hdr_testP13stbi__context+0x278>
 238:	b9403268 	ldr	w8, [x19,#48]
 23c:	340008a8 	cbz	w8, 350 <_ZL14stbi__hdr_testP13stbi__context+0x350>
 240:	f9400a68 	ldr	x8, [x19,#16]
 244:	f9401660 	ldr	x0, [x19,#40]
 248:	b9403662 	ldr	w2, [x19,#52]
 24c:	aa1403e1 	mov	x1, x20
 250:	d63f0100 	blr	x8
 254:	34000080 	cbz	w0, 264 <_ZL14stbi__hdr_testP13stbi__context+0x264>
 258:	8b20c268 	add	x8, x19, w0, sxtw
 25c:	9100e108 	add	x8, x8, #0x38
 260:	14000004 	b	270 <_ZL14stbi__hdr_testP13stbi__context+0x270>
 264:	aa1503e8 	mov	x8, x21
 268:	b900327f 	str	wzr, [x19,#48]
 26c:	3900e27f 	strb	wzr, [x19,#56]
 270:	aa1403ea 	mov	x10, x20
 274:	a90ba274 	stp	x20, x8, [x19,#184]
 278:	91000549 	add	x9, x10, #0x1
 27c:	f9005e69 	str	x9, [x19,#184]
 280:	3940014a 	ldrb	w10, [x10]
 284:	7101095f 	cmp	w10, #0x42
 288:	54000641 	b.ne	350 <_ZL14stbi__hdr_testP13stbi__context+0x350>
 28c:	eb08013f 	cmp	x9, x8
 290:	54000223 	b.cc	2d4 <_ZL14stbi__hdr_testP13stbi__context+0x2d4>
 294:	b9403268 	ldr	w8, [x19,#48]
 298:	340005c8 	cbz	w8, 350 <_ZL14stbi__hdr_testP13stbi__context+0x350>
 29c:	f9400a68 	ldr	x8, [x19,#16]
 2a0:	f9401660 	ldr	x0, [x19,#40]
 2a4:	b9403662 	ldr	w2, [x19,#52]
 2a8:	aa1403e1 	mov	x1, x20
 2ac:	d63f0100 	blr	x8
 2b0:	34000080 	cbz	w0, 2c0 <_ZL14stbi__hdr_testP13stbi__context+0x2c0>
 2b4:	8b20c268 	add	x8, x19, w0, sxtw
 2b8:	9100e108 	add	x8, x8, #0x38
 2bc:	14000004 	b	2cc <_ZL14stbi__hdr_testP13stbi__context+0x2cc>
 2c0:	aa1503e8 	mov	x8, x21
 2c4:	b900327f 	str	wzr, [x19,#48]
 2c8:	3900e27f 	strb	wzr, [x19,#56]
 2cc:	aa1403e9 	mov	x9, x20
 2d0:	a90ba274 	stp	x20, x8, [x19,#184]
 2d4:	9100052a 	add	x10, x9, #0x1
 2d8:	f9005e6a 	str	x10, [x19,#184]
 2dc:	39400129 	ldrb	w9, [x9]
 2e0:	7101153f 	cmp	w9, #0x45
 2e4:	54000361 	b.ne	350 <_ZL14stbi__hdr_testP13stbi__context+0x350>
 2e8:	eb08015f 	cmp	x10, x8
 2ec:	54000203 	b.cc	32c <_ZL14stbi__hdr_testP13stbi__context+0x32c>
 2f0:	b9403268 	ldr	w8, [x19,#48]
 2f4:	340002e8 	cbz	w8, 350 <_ZL14stbi__hdr_testP13stbi__context+0x350>
 2f8:	f9400a68 	ldr	x8, [x19,#16]
 2fc:	f9401660 	ldr	x0, [x19,#40]
 300:	b9403662 	ldr	w2, [x19,#52]
 304:	aa1403e1 	mov	x1, x20
 308:	d63f0100 	blr	x8
 30c:	34000080 	cbz	w0, 31c <_ZL14stbi__hdr_testP13stbi__context+0x31c>
 310:	8b20c268 	add	x8, x19, w0, sxtw
 314:	9100e115 	add	x21, x8, #0x38
 318:	14000003 	b	324 <_ZL14stbi__hdr_testP13stbi__context+0x324>
 31c:	b900327f 	str	wzr, [x19,#48]
 320:	3900e27f 	strb	wzr, [x19,#56]
 324:	aa1403ea 	mov	x10, x20
 328:	a90bd674 	stp	x20, x21, [x19,#184]
 32c:	91000548 	add	x8, x10, #0x1
 330:	f9005e68 	str	x8, [x19,#184]
 334:	39400148 	ldrb	w8, [x10]
 338:	7100291f 	cmp	w8, #0xa
 33c:	540000a1 	b.ne	350 <_ZL14stbi__hdr_testP13stbi__context+0x350>
 340:	a94ca668 	ldp	x8, x9, [x19,#200]
 344:	320003e0 	orr	w0, wzr, #0x1
 348:	a90ba668 	stp	x8, x9, [x19,#184]
 34c:	14000003 	b	358 <_ZL14stbi__hdr_testP13stbi__context+0x358>
 350:	a94ca668 	ldp	x8, x9, [x19,#200]
 354:	2a1f03e0 	mov	w0, wzr
 358:	a90ba668 	stp	x8, x9, [x19,#184]
 35c:	a9437bfd 	ldp	x29, x30, [sp,#48]
 360:	a9424ff4 	ldp	x20, x19, [sp,#32]
 364:	a94157f6 	ldp	x22, x21, [sp,#16]
 368:	f84407f7 	ldr	x23, [sp],#64
 36c:	d65f03c0 	ret

Disassembly of section .text.stbi_is_hdr:

0000000000000000 <stbi_is_hdr>:
   0:	d10483ff 	sub	sp, sp, #0x120
   4:	a90e5ffc 	stp	x28, x23, [sp,#224]
   8:	a90f57f6 	stp	x22, x21, [sp,#240]
   c:	a9104ff4 	stp	x20, x19, [sp,#256]
  10:	a9117bfd 	stp	x29, x30, [sp,#272]
  14:	910443fd 	add	x29, sp, #0x110
  18:	d53bd056 	mrs	x22, tpidr_el0
  1c:	f94016c8 	ldr	x8, [x22,#40]
  20:	90000001 	adrp	x1, 0 <stbi_is_hdr>
  24:	91000021 	add	x1, x1, #0x0
  28:	f81c83a8 	stur	x8, [x29,#-56]
  2c:	94000000 	bl	0 <fopen>
  30:	aa0003f3 	mov	x19, x0
  34:	b4000333 	cbz	x19, 98 <stbi_is_hdr+0x98>
  38:	aa1303e0 	mov	x0, x19
  3c:	94000000 	bl	0 <ftell>
  40:	90000008 	adrp	x8, 0 <stbi_is_hdr>
  44:	91000108 	add	x8, x8, #0x0
  48:	3dc00100 	ldr	q0, [x8]
  4c:	f9400908 	ldr	x8, [x8,#16]
  50:	910003f7 	mov	x23, sp
  54:	b21903e9 	mov	x9, #0x8000000080          	// #549755814016
  58:	3d8007e0 	str	q0, [sp,#16]
  5c:	a9024fe8 	stp	x8, x19, [sp,#32]
  60:	f9400be8 	ldr	x8, [sp,#16]
  64:	9100e2f5 	add	x21, x23, #0x38
  68:	f2800029 	movk	x9, #0x1
  6c:	aa0003f4 	mov	x20, x0
  70:	321903e2 	orr	w2, wzr, #0x80
  74:	aa1303e0 	mov	x0, x19
  78:	aa1503e1 	mov	x1, x21
  7c:	f9001be9 	str	x9, [sp,#48]
  80:	f90067f5 	str	x21, [sp,#200]
  84:	d63f0100 	blr	x8
  88:	340000c0 	cbz	w0, a0 <stbi_is_hdr+0xa0>
  8c:	8b20c2e8 	add	x8, x23, w0, sxtw
  90:	9100e108 	add	x8, x8, #0x38
  94:	14000006 	b	ac <stbi_is_hdr+0xac>
  98:	2a1f03f5 	mov	w21, wzr
  9c:	1400000f 	b	d8 <stbi_is_hdr+0xd8>
  a0:	b90033ff 	str	wzr, [sp,#48]
  a4:	9100e6e8 	add	x8, x23, #0x39
  a8:	3900e3ff 	strb	wzr, [sp,#56]
  ac:	910003e0 	mov	x0, sp
  b0:	a90ba3f5 	stp	x21, x8, [sp,#184]
  b4:	f9006be8 	str	x8, [sp,#208]
  b8:	94000000 	bl	0 <stbi_is_hdr>
  bc:	2a0003f5 	mov	w21, w0
  c0:	aa1303e0 	mov	x0, x19
  c4:	aa1403e1 	mov	x1, x20
  c8:	2a1f03e2 	mov	w2, wzr
  cc:	94000000 	bl	0 <fseek>
  d0:	aa1303e0 	mov	x0, x19
  d4:	94000000 	bl	0 <fclose>
  d8:	f94016c8 	ldr	x8, [x22,#40]
  dc:	f85c83a9 	ldur	x9, [x29,#-56]
  e0:	eb09011f 	cmp	x8, x9
  e4:	54000101 	b.ne	104 <stbi_is_hdr+0x104>
  e8:	2a1503e0 	mov	w0, w21
  ec:	a9517bfd 	ldp	x29, x30, [sp,#272]
  f0:	a9504ff4 	ldp	x20, x19, [sp,#256]
  f4:	a94f57f6 	ldp	x22, x21, [sp,#240]
  f8:	a94e5ffc 	ldp	x28, x23, [sp,#224]
  fc:	910483ff 	add	sp, sp, #0x120
 100:	d65f03c0 	ret
 104:	94000000 	bl	0 <__stack_chk_fail>

Disassembly of section .text.stbi_is_hdr_from_file:

0000000000000000 <stbi_is_hdr_from_file>:
   0:	d10483ff 	sub	sp, sp, #0x120
   4:	a90e5ffc 	stp	x28, x23, [sp,#224]
   8:	a90f57f6 	stp	x22, x21, [sp,#240]
   c:	a9104ff4 	stp	x20, x19, [sp,#256]
  10:	a9117bfd 	stp	x29, x30, [sp,#272]
  14:	910443fd 	add	x29, sp, #0x110
  18:	d53bd056 	mrs	x22, tpidr_el0
  1c:	f94016c8 	ldr	x8, [x22,#40]
  20:	aa0003f3 	mov	x19, x0
  24:	f81c83a8 	stur	x8, [x29,#-56]
  28:	94000000 	bl	0 <ftell>
  2c:	90000008 	adrp	x8, 0 <stbi_is_hdr_from_file>
  30:	91000108 	add	x8, x8, #0x0
  34:	3dc00100 	ldr	q0, [x8]
  38:	f9400908 	ldr	x8, [x8,#16]
  3c:	910003f7 	mov	x23, sp
  40:	b21903e9 	mov	x9, #0x8000000080          	// #549755814016
  44:	3d8007e0 	str	q0, [sp,#16]
  48:	a9024fe8 	stp	x8, x19, [sp,#32]
  4c:	f9400be8 	ldr	x8, [sp,#16]
  50:	9100e2f5 	add	x21, x23, #0x38
  54:	f2800029 	movk	x9, #0x1
  58:	aa0003f4 	mov	x20, x0
  5c:	321903e2 	orr	w2, wzr, #0x80
  60:	aa1303e0 	mov	x0, x19
  64:	aa1503e1 	mov	x1, x21
  68:	f9001be9 	str	x9, [sp,#48]
  6c:	f90067f5 	str	x21, [sp,#200]
  70:	d63f0100 	blr	x8
  74:	34000080 	cbz	w0, 84 <stbi_is_hdr_from_file+0x84>
  78:	8b20c2e8 	add	x8, x23, w0, sxtw
  7c:	9100e108 	add	x8, x8, #0x38
  80:	14000004 	b	90 <stbi_is_hdr_from_file+0x90>
  84:	b90033ff 	str	wzr, [sp,#48]
  88:	9100e6e8 	add	x8, x23, #0x39
  8c:	3900e3ff 	strb	wzr, [sp,#56]
  90:	910003e0 	mov	x0, sp
  94:	a90ba3f5 	stp	x21, x8, [sp,#184]
  98:	f9006be8 	str	x8, [sp,#208]
  9c:	94000000 	bl	0 <stbi_is_hdr_from_file>
  a0:	2a0003f5 	mov	w21, w0
  a4:	aa1303e0 	mov	x0, x19
  a8:	aa1403e1 	mov	x1, x20
  ac:	2a1f03e2 	mov	w2, wzr
  b0:	94000000 	bl	0 <fseek>
  b4:	f94016c8 	ldr	x8, [x22,#40]
  b8:	f85c83a9 	ldur	x9, [x29,#-56]
  bc:	eb09011f 	cmp	x8, x9
  c0:	54000101 	b.ne	e0 <stbi_is_hdr_from_file+0xe0>
  c4:	2a1503e0 	mov	w0, w21
  c8:	a9517bfd 	ldp	x29, x30, [sp,#272]
  cc:	a9504ff4 	ldp	x20, x19, [sp,#256]
  d0:	a94f57f6 	ldp	x22, x21, [sp,#240]
  d4:	a94e5ffc 	ldp	x28, x23, [sp,#224]
  d8:	910483ff 	add	sp, sp, #0x120
  dc:	d65f03c0 	ret
  e0:	94000000 	bl	0 <__stack_chk_fail>

Disassembly of section .text.stbi_is_hdr_from_callbacks:

0000000000000000 <stbi_is_hdr_from_callbacks>:
   0:	d10443ff 	sub	sp, sp, #0x110
   4:	a90e57fc 	stp	x28, x21, [sp,#224]
   8:	a90f4ff4 	stp	x20, x19, [sp,#240]
   c:	a9107bfd 	stp	x29, x30, [sp,#256]
  10:	910403fd 	add	x29, sp, #0x100
  14:	d53bd054 	mrs	x20, tpidr_el0
  18:	f9401688 	ldr	x8, [x20,#40]
  1c:	910003f5 	mov	x21, sp
  20:	b21903e9 	mov	x9, #0x8000000080          	// #549755814016
  24:	9100e2b3 	add	x19, x21, #0x38
  28:	f81d83a8 	stur	x8, [x29,#-40]
  2c:	3dc00000 	ldr	q0, [x0]
  30:	f2800029 	movk	x9, #0x1
  34:	321903e2 	orr	w2, wzr, #0x80
  38:	3d8007e0 	str	q0, [sp,#16]
  3c:	f9400808 	ldr	x8, [x0,#16]
  40:	aa0103e0 	mov	x0, x1
  44:	f9001be9 	str	x9, [sp,#48]
  48:	f90067f3 	str	x19, [sp,#200]
  4c:	a90207e8 	stp	x8, x1, [sp,#32]
  50:	f9400be8 	ldr	x8, [sp,#16]
  54:	aa1303e1 	mov	x1, x19
  58:	d63f0100 	blr	x8
  5c:	34000080 	cbz	w0, 6c <stbi_is_hdr_from_callbacks+0x6c>
  60:	8b20c2a8 	add	x8, x21, w0, sxtw
  64:	9100e108 	add	x8, x8, #0x38
  68:	14000004 	b	78 <stbi_is_hdr_from_callbacks+0x78>
  6c:	b90033ff 	str	wzr, [sp,#48]
  70:	9100e6a8 	add	x8, x21, #0x39
  74:	3900e3ff 	strb	wzr, [sp,#56]
  78:	910003e0 	mov	x0, sp
  7c:	a90ba3f3 	stp	x19, x8, [sp,#184]
  80:	f9006be8 	str	x8, [sp,#208]
  84:	94000000 	bl	0 <stbi_is_hdr_from_callbacks>
  88:	f9401688 	ldr	x8, [x20,#40]
  8c:	f85d83a9 	ldur	x9, [x29,#-40]
  90:	eb09011f 	cmp	x8, x9
  94:	540000c1 	b.ne	ac <stbi_is_hdr_from_callbacks+0xac>
  98:	a9507bfd 	ldp	x29, x30, [sp,#256]
  9c:	a94f4ff4 	ldp	x20, x19, [sp,#240]
  a0:	a94e57fc 	ldp	x28, x21, [sp,#224]
  a4:	910443ff 	add	sp, sp, #0x110
  a8:	d65f03c0 	ret
  ac:	94000000 	bl	0 <__stack_chk_fail>

Disassembly of section .text.stbi_ldr_to_hdr_gamma:

0000000000000000 <stbi_ldr_to_hdr_gamma>:
   0:	90000008 	adrp	x8, 0 <stbi_ldr_to_hdr_gamma>
   4:	bd000100 	str	s0, [x8]
   8:	d65f03c0 	ret

Disassembly of section .text.stbi_ldr_to_hdr_scale:

0000000000000000 <stbi_ldr_to_hdr_scale>:
   0:	90000008 	adrp	x8, 0 <stbi_ldr_to_hdr_scale>
   4:	91000108 	add	x8, x8, #0x0
   8:	bd000500 	str	s0, [x8,#4]
   c:	d65f03c0 	ret

Disassembly of section .text.stbi_hdr_to_ldr_gamma:

0000000000000000 <stbi_hdr_to_ldr_gamma>:
   0:	1e2e1001 	fmov	s1, #1.000000000000000000e+00
   4:	90000008 	adrp	x8, 0 <stbi_hdr_to_ldr_gamma>
   8:	1e201820 	fdiv	s0, s1, s0
   c:	91000108 	add	x8, x8, #0x0
  10:	bd000900 	str	s0, [x8,#8]
  14:	d65f03c0 	ret

Disassembly of section .text.stbi_hdr_to_ldr_scale:

0000000000000000 <stbi_hdr_to_ldr_scale>:
   0:	1e2e1001 	fmov	s1, #1.000000000000000000e+00
   4:	90000008 	adrp	x8, 0 <stbi_hdr_to_ldr_scale>
   8:	1e201820 	fdiv	s0, s1, s0
   c:	91000108 	add	x8, x8, #0x0
  10:	bd000d00 	str	s0, [x8,#12]
  14:	d65f03c0 	ret

Disassembly of section .text.stbi_zlib_decode_malloc_guesssize:

0000000000000000 <stbi_zlib_decode_malloc_guesssize>:
   0:	a9bc5ffc 	stp	x28, x23, [sp,#-64]!
   4:	a90157f6 	stp	x22, x21, [sp,#16]
   8:	a9024ff4 	stp	x20, x19, [sp,#32]
   c:	a9037bfd 	stp	x29, x30, [sp,#48]
  10:	9100c3fd 	add	x29, sp, #0x30
  14:	d14007ff 	sub	sp, sp, #0x1, lsl #12
  18:	d10043ff 	sub	sp, sp, #0x10
  1c:	d53bd057 	mrs	x23, tpidr_el0
  20:	f94016e8 	ldr	x8, [x23,#40]
  24:	2a0203f4 	mov	w20, w2
  28:	aa0003f6 	mov	x22, x0
  2c:	93407e80 	sxtw	x0, w20
  30:	aa0303f3 	mov	x19, x3
  34:	2a0103f5 	mov	w21, w1
  38:	f81c83a8 	stur	x8, [x29,#-56]
  3c:	94000000 	bl	0 <malloc>
  40:	aa0003e8 	mov	x8, x0
  44:	b40002a8 	cbz	x8, 98 <stbi_zlib_decode_malloc_guesssize+0x98>
  48:	8b35c2c9 	add	x9, x22, w21, sxtw
  4c:	910023e0 	add	x0, sp, #0x8
  50:	320003e3 	orr	w3, wzr, #0x1
  54:	320003e4 	orr	w4, wzr, #0x1
  58:	aa0803e1 	mov	x1, x8
  5c:	2a1403e2 	mov	w2, w20
  60:	a900a7f6 	stp	x22, x9, [sp,#8]
  64:	94000000 	bl	0 <stbi_zlib_decode_malloc_guesssize>
  68:	340000e0 	cbz	w0, 84 <stbi_zlib_decode_malloc_guesssize+0x84>
  6c:	b4000153 	cbz	x19, 94 <stbi_zlib_decode_malloc_guesssize+0x94>
  70:	b94023e8 	ldr	w8, [sp,#32]
  74:	f94017e0 	ldr	x0, [sp,#40]
  78:	4b000108 	sub	w8, w8, w0
  7c:	b9000268 	str	w8, [x19]
  80:	14000006 	b	98 <stbi_zlib_decode_malloc_guesssize+0x98>
  84:	f94017e0 	ldr	x0, [sp,#40]
  88:	94000000 	bl	0 <free>
  8c:	aa1f03e0 	mov	x0, xzr
  90:	14000002 	b	98 <stbi_zlib_decode_malloc_guesssize+0x98>
  94:	f94017e0 	ldr	x0, [sp,#40]
  98:	f94016e8 	ldr	x8, [x23,#40]
  9c:	f85c83a9 	ldur	x9, [x29,#-56]
  a0:	eb09011f 	cmp	x8, x9
  a4:	54000101 	b.ne	c4 <stbi_zlib_decode_malloc_guesssize+0xc4>
  a8:	914007ff 	add	sp, sp, #0x1, lsl #12
  ac:	910043ff 	add	sp, sp, #0x10
  b0:	a9437bfd 	ldp	x29, x30, [sp,#48]
  b4:	a9424ff4 	ldp	x20, x19, [sp,#32]
  b8:	a94157f6 	ldp	x22, x21, [sp,#16]
  bc:	a8c45ffc 	ldp	x28, x23, [sp],#64
  c0:	d65f03c0 	ret
  c4:	94000000 	bl	0 <__stack_chk_fail>

Disassembly of section .text._ZL13stbi__do_zlibP10stbi__zbufPciii:

0000000000000000 <_ZL13stbi__do_zlibP10stbi__zbufPciii>:
   0:	a9ba6ffc 	stp	x28, x27, [sp,#-96]!
   4:	a90167fa 	stp	x26, x25, [sp,#16]
   8:	a9025ff8 	stp	x24, x23, [sp,#32]
   c:	a90357f6 	stp	x22, x21, [sp,#48]
  10:	a9044ff4 	stp	x20, x19, [sp,#64]
  14:	a9057bfd 	stp	x29, x30, [sp,#80]
  18:	910143fd 	add	x29, sp, #0x50
  1c:	d127c3ff 	sub	sp, sp, #0x9f0
  20:	d53bd04d 	mrs	x13, tpidr_el0
  24:	f94015a8 	ldr	x8, [x13,#40]
  28:	aa0103f8 	mov	x24, x1
  2c:	aa0003f3 	mov	x19, x0
  30:	8b22c309 	add	x9, x24, w2, sxtw
  34:	f81a83a8 	stur	x8, [x29,#-88]
  38:	a901e278 	stp	x24, x24, [x19,#24]
  3c:	f9001669 	str	x9, [x19,#40]
  40:	b9003263 	str	w3, [x19,#48]
  44:	340004c4 	cbz	w4, dc <_ZL13stbi__do_zlibP10stbi__zbufPciii+0xdc>
  48:	a9402a69 	ldp	x9, x10, [x19]
  4c:	eb0a013f 	cmp	x9, x10
  50:	54000122 	b.cs	74 <_ZL13stbi__do_zlibP10stbi__zbufPciii+0x74>
  54:	9100052b 	add	x11, x9, #0x1
  58:	f900026b 	str	x11, [x19]
  5c:	39400128 	ldrb	w8, [x9]
  60:	aa0b03e9 	mov	x9, x11
  64:	eb0a013f 	cmp	x9, x10
  68:	540000c3 	b.cc	80 <_ZL13stbi__do_zlibP10stbi__zbufPciii+0x80>
  6c:	2a1f03e9 	mov	w9, wzr
  70:	14000007 	b	8c <_ZL13stbi__do_zlibP10stbi__zbufPciii+0x8c>
  74:	2a1f03e8 	mov	w8, wzr
  78:	eb0a013f 	cmp	x9, x10
  7c:	54ffff82 	b.cs	6c <_ZL13stbi__do_zlibP10stbi__zbufPciii+0x6c>
  80:	9100052a 	add	x10, x9, #0x1
  84:	f900026a 	str	x10, [x19]
  88:	39400129 	ldrb	w9, [x9]
  8c:	2a0903ea 	mov	w10, w9
  90:	528210ab 	mov	w11, #0x1085                	// #4229
  94:	33181d0a 	bfi	w10, w8, #8, #8
  98:	72a1084b 	movk	w11, #0x842, lsl #16
  9c:	9bab7d4b 	umull	x11, w10, w11
  a0:	d360fd6b 	lsr	x11, x11, #32
  a4:	4b0b014c 	sub	w12, w10, w11
  a8:	0b4c056b 	add	w11, w11, w12, lsr #1
  ac:	53047d6b 	lsr	w11, w11, #4
  b0:	531b696c 	lsl	w12, w11, #5
  b4:	4b0b018b 	sub	w11, w12, w11
  b8:	4b0b014a 	sub	w10, w10, w11
  bc:	3400008a 	cbz	w10, cc <_ZL13stbi__do_zlibP10stbi__zbufPciii+0xcc>
  c0:	90000008 	adrp	x8, 0 <_ZL13stbi__do_zlibP10stbi__zbufPciii>
  c4:	91000108 	add	x8, x8, #0x0
  c8:	140002bc 	b	bb8 <_ZL13stbi__do_zlibP10stbi__zbufPciii+0xbb8>
  cc:	372854a9 	tbnz	w9, #5, b60 <_ZL13stbi__do_zlibP10stbi__zbufPciii+0xb60>
  d0:	12000d08 	and	w8, w8, #0xf
  d4:	7100211f 	cmp	w8, #0x8
  d8:	540056c1 	b.ne	bb0 <_ZL13stbi__do_zlibP10stbi__zbufPciii+0xbb0>
  dc:	91206269 	add	x9, x19, #0x818
  e0:	f9000bed 	str	x13, [sp,#16]
  e4:	2a1f03f6 	mov	w22, wzr
  e8:	2a1f03e8 	mov	w8, wzr
  ec:	f9000a7f 	str	xzr, [x19,#16]
  f0:	9100d274 	add	x20, x19, #0x34
  f4:	f9000fe9 	str	x9, [sp,#24]
  f8:	320003fc 	orr	w28, wzr, #0x1
  fc:	910803ee 	add	x14, sp, #0x200
 100:	910083fb 	add	x27, sp, #0x20
 104:	9100e3f5 	add	x21, sp, #0x38
 108:	7100011f 	cmp	w8, #0x0
 10c:	54004b0c 	b.gt	a6c <_ZL13stbi__do_zlibP10stbi__zbufPciii+0xa6c>
 110:	14000259 	b	a74 <_ZL13stbi__do_zlibP10stbi__zbufPciii+0xa74>
 114:	7100197f 	cmp	w11, #0x6
 118:	540002cc 	b.gt	170 <_ZL13stbi__do_zlibP10stbi__zbufPciii+0x170>
 11c:	51002969 	sub	w9, w11, #0xa
 120:	1100212a 	add	w10, w9, #0x8
 124:	1aca238b 	lsl	w11, w28, w10
 128:	6b0b011f 	cmp	w8, w11
 12c:	540058c2 	b.cs	c44 <_ZL13stbi__do_zlibP10stbi__zbufPciii+0xc44>
 130:	a940326b 	ldp	x11, x12, [x19]
 134:	eb0c017f 	cmp	x11, x12
 138:	540000a2 	b.cs	14c <_ZL13stbi__do_zlibP10stbi__zbufPciii+0x14c>
 13c:	9100056c 	add	x12, x11, #0x1
 140:	f900026c 	str	x12, [x19]
 144:	3940016b 	ldrb	w11, [x11]
 148:	14000002 	b	150 <_ZL13stbi__do_zlibP10stbi__zbufPciii+0x150>
 14c:	2a1f03eb 	mov	w11, wzr
 150:	1aca216a 	lsl	w10, w11, w10
 154:	1100412b 	add	w11, w9, #0x10
 158:	11002129 	add	w9, w9, #0x8
 15c:	2a080148 	orr	w8, w10, w8
 160:	7100453f 	cmp	w9, #0x11
 164:	2902226b 	stp	w11, w8, [x19,#16]
 168:	54fffdcb 	b.lt	120 <_ZL13stbi__do_zlibP10stbi__zbufPciii+0x120>
 16c:	1100212a 	add	w10, w9, #0x8
 170:	53057d09 	lsr	w9, w8, #5
 174:	5100154d 	sub	w13, w10, #0x5
 178:	7100255f 	cmp	w10, #0x9
 17c:	2902266d 	stp	w13, w9, [x19,#16]
 180:	540002cc 	b.gt	1d8 <_ZL13stbi__do_zlibP10stbi__zbufPciii+0x1d8>
 184:	5100354a 	sub	w10, w10, #0xd
 188:	1100214b 	add	w11, w10, #0x8
 18c:	1acb238c 	lsl	w12, w28, w11
 190:	6b0c013f 	cmp	w9, w12
 194:	54005582 	b.cs	c44 <_ZL13stbi__do_zlibP10stbi__zbufPciii+0xc44>
 198:	a940366c 	ldp	x12, x13, [x19]
 19c:	eb0d019f 	cmp	x12, x13
 1a0:	540000a2 	b.cs	1b4 <_ZL13stbi__do_zlibP10stbi__zbufPciii+0x1b4>
 1a4:	9100058d 	add	x13, x12, #0x1
 1a8:	f900026d 	str	x13, [x19]
 1ac:	3940018c 	ldrb	w12, [x12]
 1b0:	14000002 	b	1b8 <_ZL13stbi__do_zlibP10stbi__zbufPciii+0x1b8>
 1b4:	2a1f03ec 	mov	w12, wzr
 1b8:	1acb218b 	lsl	w11, w12, w11
 1bc:	1100414c 	add	w12, w10, #0x10
 1c0:	1100214a 	add	w10, w10, #0x8
 1c4:	2a090169 	orr	w9, w11, w9
 1c8:	7100455f 	cmp	w10, #0x11
 1cc:	2902266c 	stp	w12, w9, [x19,#16]
 1d0:	54fffdcb 	b.lt	188 <_ZL13stbi__do_zlibP10stbi__zbufPciii+0x188>
 1d4:	1100214d 	add	w13, w10, #0x8
 1d8:	53057d2b 	lsr	w11, w9, #5
 1dc:	510015ac 	sub	w12, w13, #0x5
 1e0:	710025bf 	cmp	w13, #0x9
 1e4:	29022e6c 	stp	w12, w11, [x19,#16]
 1e8:	540002ca 	b.ge	240 <_ZL13stbi__do_zlibP10stbi__zbufPciii+0x240>
 1ec:	510035aa 	sub	w10, w13, #0xd
 1f0:	1100214c 	add	w12, w10, #0x8
 1f4:	1acc238d 	lsl	w13, w28, w12
 1f8:	6b0d017f 	cmp	w11, w13
 1fc:	54005242 	b.cs	c44 <_ZL13stbi__do_zlibP10stbi__zbufPciii+0xc44>
 200:	a9403a6d 	ldp	x13, x14, [x19]
 204:	eb0e01bf 	cmp	x13, x14
 208:	540000a2 	b.cs	21c <_ZL13stbi__do_zlibP10stbi__zbufPciii+0x21c>
 20c:	910005ae 	add	x14, x13, #0x1
 210:	f900026e 	str	x14, [x19]
 214:	394001ad 	ldrb	w13, [x13]
 218:	14000002 	b	220 <_ZL13stbi__do_zlibP10stbi__zbufPciii+0x220>
 21c:	2a1f03ed 	mov	w13, wzr
 220:	1acc21ac 	lsl	w12, w13, w12
 224:	1100414d 	add	w13, w10, #0x10
 228:	1100214a 	add	w10, w10, #0x8
 22c:	2a0b018b 	orr	w11, w12, w11
 230:	7100455f 	cmp	w10, #0x11
 234:	29022e6d 	stp	w13, w11, [x19,#16]
 238:	54fffdcb 	b.lt	1f0 <_ZL13stbi__do_zlibP10stbi__zbufPciii+0x1f0>
 23c:	1100214c 	add	w12, w10, #0x8
 240:	1200110d 	and	w13, w8, #0x1f
 244:	12001129 	and	w9, w9, #0x1f
 248:	12000d6e 	and	w14, w11, #0xf
 24c:	110405b9 	add	w25, w13, #0x101
 250:	11000537 	add	w23, w9, #0x1
 254:	11000dc9 	add	w9, w14, #0x3
 258:	9000000e 	adrp	x14, 0 <_ZL13stbi__do_zlibP10stbi__zbufPciii>
 25c:	aa1f03ea 	mov	x10, xzr
 260:	53047d68 	lsr	w8, w11, #4
 264:	5100118b 	sub	w11, w12, #0x4
 268:	0b1902f8 	add	w24, w23, w25
 26c:	910001ce 	add	x14, x14, #0x0
 270:	2902226b 	stp	w11, w8, [x19,#16]
 274:	3900cbff 	strb	wzr, [sp,#50]
 278:	790063ff 	strh	wzr, [sp,#48]
 27c:	a9027fff 	stp	xzr, xzr, [sp,#32]
 280:	7100097f 	cmp	w11, #0x2
 284:	5400028c 	b.gt	2d4 <_ZL13stbi__do_zlibP10stbi__zbufPciii+0x2d4>
 288:	1acb238c 	lsl	w12, w28, w11
 28c:	6b0c011f 	cmp	w8, w12
 290:	54004da2 	b.cs	c44 <_ZL13stbi__do_zlibP10stbi__zbufPciii+0xc44>
 294:	a940366c 	ldp	x12, x13, [x19]
 298:	eb0d019f 	cmp	x12, x13
 29c:	540000a2 	b.cs	2b0 <_ZL13stbi__do_zlibP10stbi__zbufPciii+0x2b0>
 2a0:	9100058d 	add	x13, x12, #0x1
 2a4:	f900026d 	str	x13, [x19]
 2a8:	3940018c 	ldrb	w12, [x12]
 2ac:	14000002 	b	2b4 <_ZL13stbi__do_zlibP10stbi__zbufPciii+0x2b4>
 2b0:	2a1f03ec 	mov	w12, wzr
 2b4:	1acb218d 	lsl	w13, w12, w11
 2b8:	1100216c 	add	w12, w11, #0x8
 2bc:	7100457f 	cmp	w11, #0x11
 2c0:	2a0801a8 	orr	w8, w13, w8
 2c4:	2a0c03eb 	mov	w11, w12
 2c8:	2902226c 	stp	w12, w8, [x19,#16]
 2cc:	54fffdeb 	b.lt	288 <_ZL13stbi__do_zlibP10stbi__zbufPciii+0x288>
 2d0:	14000002 	b	2d8 <_ZL13stbi__do_zlibP10stbi__zbufPciii+0x2d8>
 2d4:	2a0b03ec 	mov	w12, w11
 2d8:	51000d8b 	sub	w11, w12, #0x3
 2dc:	386a69cc 	ldrb	w12, [x14,x10]
 2e0:	1200090d 	and	w13, w8, #0x7
 2e4:	53037d08 	lsr	w8, w8, #3
 2e8:	eb09015f 	cmp	x10, x9
 2ec:	9100054a 	add	x10, x10, #0x1
 2f0:	2902226b 	stp	w11, w8, [x19,#16]
 2f4:	382c6b6d 	strb	w13, [x27,x12]
 2f8:	54fffc4b 	b.lt	280 <_ZL13stbi__do_zlibP10stbi__zbufPciii+0x280>
 2fc:	910803e0 	add	x0, sp, #0x200
 300:	910083e1 	add	x1, sp, #0x20
 304:	52800262 	mov	w2, #0x13                  	// #19
 308:	94000000 	bl	0 <_ZL13stbi__do_zlibP10stbi__zbufPciii>
 30c:	34001780 	cbz	w0, 5fc <_ZL13stbi__do_zlibP10stbi__zbufPciii+0x5fc>
 310:	f90007f9 	str	x25, [sp,#8]
 314:	2a1f03f9 	mov	w25, wzr
 318:	910803e1 	add	x1, sp, #0x200
 31c:	aa1303e0 	mov	x0, x19
 320:	94000000 	bl	0 <_ZL13stbi__do_zlibP10stbi__zbufPciii>
 324:	71004c1f 	cmp	w0, #0x13
 328:	540015a2 	b.cs	5dc <_ZL13stbi__do_zlibP10stbi__zbufPciii+0x5dc>
 32c:	71003c1f 	cmp	w0, #0xf
 330:	540000ec 	b.gt	34c <_ZL13stbi__do_zlibP10stbi__zbufPciii+0x34c>
 334:	11000728 	add	w8, w25, #0x1
 338:	3839caa0 	strb	w0, [x21,w25,sxtw]
 33c:	2a0803f9 	mov	w25, w8
 340:	6b19031f 	cmp	w24, w25
 344:	54fffeac 	b.gt	318 <_ZL13stbi__do_zlibP10stbi__zbufPciii+0x318>
 348:	1400006b 	b	4f4 <_ZL13stbi__do_zlibP10stbi__zbufPciii+0x4f4>
 34c:	7100481f 	cmp	w0, #0x12
 350:	54000360 	b.eq	3bc <_ZL13stbi__do_zlibP10stbi__zbufPciii+0x3bc>
 354:	7100441f 	cmp	w0, #0x11
 358:	540005e0 	b.eq	414 <_ZL13stbi__do_zlibP10stbi__zbufPciii+0x414>
 35c:	7100401f 	cmp	w0, #0x10
 360:	54004841 	b.ne	c68 <_ZL13stbi__do_zlibP10stbi__zbufPciii+0xc68>
 364:	29422269 	ldp	w9, w8, [x19,#16]
 368:	7100053f 	cmp	w9, #0x1
 36c:	5400080c 	b.gt	46c <_ZL13stbi__do_zlibP10stbi__zbufPciii+0x46c>
 370:	1ac9238a 	lsl	w10, w28, w9
 374:	6b0a011f 	cmp	w8, w10
 378:	54004662 	b.cs	c44 <_ZL13stbi__do_zlibP10stbi__zbufPciii+0xc44>
 37c:	a9402e6a 	ldp	x10, x11, [x19]
 380:	eb0b015f 	cmp	x10, x11
 384:	540000a2 	b.cs	398 <_ZL13stbi__do_zlibP10stbi__zbufPciii+0x398>
 388:	9100054b 	add	x11, x10, #0x1
 38c:	f900026b 	str	x11, [x19]
 390:	3940014a 	ldrb	w10, [x10]
 394:	14000002 	b	39c <_ZL13stbi__do_zlibP10stbi__zbufPciii+0x39c>
 398:	2a1f03ea 	mov	w10, wzr
 39c:	1ac9214b 	lsl	w11, w10, w9
 3a0:	1100212a 	add	w10, w9, #0x8
 3a4:	7100453f 	cmp	w9, #0x11
 3a8:	2a080168 	orr	w8, w11, w8
 3ac:	2a0a03e9 	mov	w9, w10
 3b0:	2902226a 	stp	w10, w8, [x19,#16]
 3b4:	54fffdeb 	b.lt	370 <_ZL13stbi__do_zlibP10stbi__zbufPciii+0x370>
 3b8:	1400002e 	b	470 <_ZL13stbi__do_zlibP10stbi__zbufPciii+0x470>
 3bc:	29422269 	ldp	w9, w8, [x19,#16]
 3c0:	7100193f 	cmp	w9, #0x6
 3c4:	5400068c 	b.gt	494 <_ZL13stbi__do_zlibP10stbi__zbufPciii+0x494>
 3c8:	1ac9238a 	lsl	w10, w28, w9
 3cc:	6b0a011f 	cmp	w8, w10
 3d0:	540043a2 	b.cs	c44 <_ZL13stbi__do_zlibP10stbi__zbufPciii+0xc44>
 3d4:	a9402e6a 	ldp	x10, x11, [x19]
 3d8:	eb0b015f 	cmp	x10, x11
 3dc:	540000a2 	b.cs	3f0 <_ZL13stbi__do_zlibP10stbi__zbufPciii+0x3f0>
 3e0:	9100054b 	add	x11, x10, #0x1
 3e4:	f900026b 	str	x11, [x19]
 3e8:	3940014a 	ldrb	w10, [x10]
 3ec:	14000002 	b	3f4 <_ZL13stbi__do_zlibP10stbi__zbufPciii+0x3f4>
 3f0:	2a1f03ea 	mov	w10, wzr
 3f4:	1ac9214b 	lsl	w11, w10, w9
 3f8:	1100212a 	add	w10, w9, #0x8
 3fc:	7100453f 	cmp	w9, #0x11
 400:	2a080168 	orr	w8, w11, w8
 404:	2a0a03e9 	mov	w9, w10
 408:	2902226a 	stp	w10, w8, [x19,#16]
 40c:	54fffdeb 	b.lt	3c8 <_ZL13stbi__do_zlibP10stbi__zbufPciii+0x3c8>
 410:	14000022 	b	498 <_ZL13stbi__do_zlibP10stbi__zbufPciii+0x498>
 414:	29422269 	ldp	w9, w8, [x19,#16]
 418:	7100093f 	cmp	w9, #0x2
 41c:	540004cc 	b.gt	4b4 <_ZL13stbi__do_zlibP10stbi__zbufPciii+0x4b4>
 420:	1ac9238a 	lsl	w10, w28, w9
 424:	6b0a011f 	cmp	w8, w10
 428:	540040e2 	b.cs	c44 <_ZL13stbi__do_zlibP10stbi__zbufPciii+0xc44>
 42c:	a9402e6a 	ldp	x10, x11, [x19]
 430:	eb0b015f 	cmp	x10, x11
 434:	540000a2 	b.cs	448 <_ZL13stbi__do_zlibP10stbi__zbufPciii+0x448>
 438:	9100054b 	add	x11, x10, #0x1
 43c:	f900026b 	str	x11, [x19]
 440:	3940014a 	ldrb	w10, [x10]
 444:	14000002 	b	44c <_ZL13stbi__do_zlibP10stbi__zbufPciii+0x44c>
 448:	2a1f03ea 	mov	w10, wzr
 44c:	1ac9214b 	lsl	w11, w10, w9
 450:	1100212a 	add	w10, w9, #0x8
 454:	7100453f 	cmp	w9, #0x11
 458:	2a080168 	orr	w8, w11, w8
 45c:	2a0a03e9 	mov	w9, w10
 460:	2902226a 	stp	w10, w8, [x19,#16]
 464:	54fffdeb 	b.lt	420 <_ZL13stbi__do_zlibP10stbi__zbufPciii+0x420>
 468:	14000014 	b	4b8 <_ZL13stbi__do_zlibP10stbi__zbufPciii+0x4b8>
 46c:	2a0903ea 	mov	w10, w9
 470:	53027d09 	lsr	w9, w8, #2
 474:	5100094a 	sub	w10, w10, #0x2
 478:	2902266a 	stp	w10, w9, [x19,#16]
 47c:	34000b19 	cbz	w25, 5dc <_ZL13stbi__do_zlibP10stbi__zbufPciii+0x5dc>
 480:	8b39c2a9 	add	x9, x21, w25, sxtw
 484:	385ff121 	ldurb	w1, [x9,#-1]
 488:	12000508 	and	w8, w8, #0x3
 48c:	11000d1a 	add	w26, w8, #0x3
 490:	14000010 	b	4d0 <_ZL13stbi__do_zlibP10stbi__zbufPciii+0x4d0>
 494:	2a0903ea 	mov	w10, w9
 498:	12001909 	and	w9, w8, #0x7f
 49c:	2a1f03e1 	mov	w1, wzr
 4a0:	53077d08 	lsr	w8, w8, #7
 4a4:	51001d4a 	sub	w10, w10, #0x7
 4a8:	11002d3a 	add	w26, w9, #0xb
 4ac:	2902226a 	stp	w10, w8, [x19,#16]
 4b0:	14000008 	b	4d0 <_ZL13stbi__do_zlibP10stbi__zbufPciii+0x4d0>
 4b4:	2a0903ea 	mov	w10, w9
 4b8:	12000909 	and	w9, w8, #0x7
 4bc:	53037d08 	lsr	w8, w8, #3
 4c0:	51000d4a 	sub	w10, w10, #0x3
 4c4:	2a1f03e1 	mov	w1, wzr
 4c8:	2902226a 	stp	w10, w8, [x19,#16]
 4cc:	11000d3a 	add	w26, w9, #0x3
 4d0:	4b190308 	sub	w8, w24, w25
 4d4:	6b1a011f 	cmp	w8, w26
 4d8:	5400082b 	b.lt	5dc <_ZL13stbi__do_zlibP10stbi__zbufPciii+0x5dc>
 4dc:	8b39c2a0 	add	x0, x21, w25, sxtw
 4e0:	aa1a03e2 	mov	x2, x26
 4e4:	94000000 	bl	0 <memset>
 4e8:	0b190359 	add	w25, w26, w25
 4ec:	6b19031f 	cmp	w24, w25
 4f0:	54fff14c 	b.gt	318 <_ZL13stbi__do_zlibP10stbi__zbufPciii+0x318>
 4f4:	54000741 	b.ne	5dc <_ZL13stbi__do_zlibP10stbi__zbufPciii+0x5dc>
 4f8:	f94007f8 	ldr	x24, [sp,#8]
 4fc:	9100e3e1 	add	x1, sp, #0x38
 500:	aa1403e0 	mov	x0, x20
 504:	2a1803e2 	mov	w2, w24
 508:	94000000 	bl	0 <_ZL13stbi__do_zlibP10stbi__zbufPciii>
 50c:	34000780 	cbz	w0, 5fc <_ZL13stbi__do_zlibP10stbi__zbufPciii+0x5fc>
 510:	f9400fe0 	ldr	x0, [sp,#24]
 514:	8b1802a1 	add	x1, x21, x24
 518:	2a1703e2 	mov	w2, w23
 51c:	94000000 	bl	0 <_ZL13stbi__do_zlibP10stbi__zbufPciii>
 520:	7100001f 	cmp	w0, #0x0
 524:	1a9f07e8 	cset	w8, ne
 528:	350006e8 	cbnz	w8, 604 <_ZL13stbi__do_zlibP10stbi__zbufPciii+0x604>
 52c:	14000187 	b	b48 <_ZL13stbi__do_zlibP10stbi__zbufPciii+0xb48>
 530:	12000949 	and	w9, w10, #0x7
 534:	34001f29 	cbz	w9, 918 <_ZL13stbi__do_zlibP10stbi__zbufPciii+0x918>
 538:	6b09015f 	cmp	w10, w9
 53c:	540002ca 	b.ge	594 <_ZL13stbi__do_zlibP10stbi__zbufPciii+0x594>
 540:	5100296a 	sub	w10, w11, #0xa
 544:	1100214b 	add	w11, w10, #0x8
 548:	1acb238c 	lsl	w12, w28, w11
 54c:	6b0c011f 	cmp	w8, w12
 550:	540037a2 	b.cs	c44 <_ZL13stbi__do_zlibP10stbi__zbufPciii+0xc44>
 554:	a940366c 	ldp	x12, x13, [x19]
 558:	eb0d019f 	cmp	x12, x13
 55c:	540000a2 	b.cs	570 <_ZL13stbi__do_zlibP10stbi__zbufPciii+0x570>
 560:	9100058d 	add	x13, x12, #0x1
 564:	f900026d 	str	x13, [x19]
 568:	3940018c 	ldrb	w12, [x12]
 56c:	14000002 	b	574 <_ZL13stbi__do_zlibP10stbi__zbufPciii+0x574>
 570:	2a1f03ec 	mov	w12, wzr
 574:	1acb218b 	lsl	w11, w12, w11
 578:	1100414c 	add	w12, w10, #0x10
 57c:	1100214a 	add	w10, w10, #0x8
 580:	2a080168 	orr	w8, w11, w8
 584:	7100455f 	cmp	w10, #0x11
 588:	2902226c 	stp	w12, w8, [x19,#16]
 58c:	54fffdcb 	b.lt	544 <_ZL13stbi__do_zlibP10stbi__zbufPciii+0x544>
 590:	1100214a 	add	w10, w10, #0x8
 594:	2a1f03eb 	mov	w11, wzr
 598:	1ac92508 	lsr	w8, w8, w9
 59c:	4b09014a 	sub	w10, w10, w9
 5a0:	b9001668 	str	w8, [x19,#20]
 5a4:	14000128 	b	a44 <_ZL13stbi__do_zlibP10stbi__zbufPciii+0xa44>
 5a8:	90000001 	adrp	x1, 0 <_ZL13stbi__do_zlibP10stbi__zbufPciii>
 5ac:	52802402 	mov	w2, #0x120                 	// #288
 5b0:	aa1403e0 	mov	x0, x20
 5b4:	91000021 	add	x1, x1, #0x0
 5b8:	94000000 	bl	0 <_ZL13stbi__do_zlibP10stbi__zbufPciii>
 5bc:	340032a0 	cbz	w0, c10 <_ZL13stbi__do_zlibP10stbi__zbufPciii+0xc10>
 5c0:	f9400fe0 	ldr	x0, [sp,#24]
 5c4:	90000001 	adrp	x1, 0 <_ZL13stbi__do_zlibP10stbi__zbufPciii>
 5c8:	321b03e2 	orr	w2, wzr, #0x20
 5cc:	91000021 	add	x1, x1, #0x0
 5d0:	94000000 	bl	0 <_ZL13stbi__do_zlibP10stbi__zbufPciii>
 5d4:	35000180 	cbnz	w0, 604 <_ZL13stbi__do_zlibP10stbi__zbufPciii+0x604>
 5d8:	1400018e 	b	c10 <_ZL13stbi__do_zlibP10stbi__zbufPciii+0xc10>
 5dc:	90000009 	adrp	x9, 0 <_ZL13stbi__do_zlibP10stbi__zbufPciii>
 5e0:	9000000a 	adrp	x10, 0 <_ZL13stbi__do_zlibP10stbi__zbufPciii>
 5e4:	91000129 	add	x9, x9, #0x0
 5e8:	9100014a 	add	x10, x10, #0x0
 5ec:	2a1f03e8 	mov	w8, wzr
 5f0:	f900092a 	str	x10, [x9,#16]
 5f4:	35000088 	cbnz	w8, 604 <_ZL13stbi__do_zlibP10stbi__zbufPciii+0x604>
 5f8:	14000154 	b	b48 <_ZL13stbi__do_zlibP10stbi__zbufPciii+0xb48>
 5fc:	2a1f03e8 	mov	w8, wzr
 600:	34002a48 	cbz	w8, b48 <_ZL13stbi__do_zlibP10stbi__zbufPciii+0xb48>
 604:	f9400e78 	ldr	x24, [x19,#24]
 608:	14000005 	b	61c <_ZL13stbi__do_zlibP10stbi__zbufPciii+0x61c>
 60c:	38001719 	strb	w25, [x24],#1
 610:	14000003 	b	61c <_ZL13stbi__do_zlibP10stbi__zbufPciii+0x61c>
 614:	8b090308 	add	x8, x24, x9
 618:	91000518 	add	x24, x8, #0x1
 61c:	aa1303e0 	mov	x0, x19
 620:	aa1403e1 	mov	x1, x20
 624:	94000000 	bl	0 <_ZL13stbi__do_zlibP10stbi__zbufPciii>
 628:	2a0003f9 	mov	w25, w0
 62c:	7103ff3f 	cmp	w25, #0xff
 630:	5400030c 	b.gt	690 <_ZL13stbi__do_zlibP10stbi__zbufPciii+0x690>
 634:	37f828f9 	tbnz	w25, #31, b50 <_ZL13stbi__do_zlibP10stbi__zbufPciii+0xb50>
 638:	f9401668 	ldr	x8, [x19,#40]
 63c:	eb08031f 	cmp	x24, x8
 640:	54fffe63 	b.cc	60c <_ZL13stbi__do_zlibP10stbi__zbufPciii+0x60c>
 644:	b9403269 	ldr	w9, [x19,#48]
 648:	f9000e78 	str	x24, [x19,#24]
 64c:	34002909 	cbz	w9, b6c <_ZL13stbi__do_zlibP10stbi__zbufPciii+0xb6c>
 650:	f9401260 	ldr	x0, [x19,#32]
 654:	cb000315 	sub	x21, x24, x0
 658:	4b000109 	sub	w9, w8, w0
 65c:	2a0903e8 	mov	w8, w9
 660:	6b15011f 	cmp	w8, w21
 664:	531f7909 	lsl	w9, w8, #1
 668:	54ffffad 	b.le	65c <_ZL13stbi__do_zlibP10stbi__zbufPciii+0x65c>
 66c:	93407d1a 	sxtw	x26, w8
 670:	aa1a03e1 	mov	x1, x26
 674:	94000000 	bl	0 <realloc>
 678:	b4002920 	cbz	x0, b9c <_ZL13stbi__do_zlibP10stbi__zbufPciii+0xb9c>
 67c:	8b35c018 	add	x24, x0, w21, sxtw
 680:	8b1a0008 	add	x8, x0, x26
 684:	a9018278 	stp	x24, x0, [x19,#24]
 688:	f9001668 	str	x8, [x19,#40]
 68c:	17ffffe0 	b	60c <_ZL13stbi__do_zlibP10stbi__zbufPciii+0x60c>
 690:	7104033f 	cmp	w25, #0x100
 694:	54001c80 	b.eq	a24 <_ZL13stbi__do_zlibP10stbi__zbufPciii+0xa24>
 698:	93407f29 	sxtw	x9, w25
 69c:	9000000a 	adrp	x10, 0 <_ZL13stbi__do_zlibP10stbi__zbufPciii>
 6a0:	d1040528 	sub	x8, x9, #0x101
 6a4:	9100014a 	add	x10, x10, #0x0
 6a8:	b868795a 	ldr	w26, [x10,x8,lsl #2]
 6ac:	d1042529 	sub	x9, x9, #0x109
 6b0:	f1004d3f 	cmp	x9, #0x13
 6b4:	54000448 	b.hi	73c <_ZL13stbi__do_zlibP10stbi__zbufPciii+0x73c>
 6b8:	90000009 	adrp	x9, 0 <_ZL13stbi__do_zlibP10stbi__zbufPciii>
 6bc:	91000129 	add	x9, x9, #0x0
 6c0:	b8687928 	ldr	w8, [x9,x8,lsl #2]
 6c4:	2942266a 	ldp	w10, w9, [x19,#16]
 6c8:	6b08015f 	cmp	w10, w8
 6cc:	5400028a 	b.ge	71c <_ZL13stbi__do_zlibP10stbi__zbufPciii+0x71c>
 6d0:	1aca238b 	lsl	w11, w28, w10
 6d4:	6b0b013f 	cmp	w9, w11
 6d8:	54002b62 	b.cs	c44 <_ZL13stbi__do_zlibP10stbi__zbufPciii+0xc44>
 6dc:	a940326b 	ldp	x11, x12, [x19]
 6e0:	eb0c017f 	cmp	x11, x12
 6e4:	540000a2 	b.cs	6f8 <_ZL13stbi__do_zlibP10stbi__zbufPciii+0x6f8>
 6e8:	9100056c 	add	x12, x11, #0x1
 6ec:	f900026c 	str	x12, [x19]
 6f0:	3940016b 	ldrb	w11, [x11]
 6f4:	14000002 	b	6fc <_ZL13stbi__do_zlibP10stbi__zbufPciii+0x6fc>
 6f8:	2a1f03eb 	mov	w11, wzr
 6fc:	1aca216c 	lsl	w12, w11, w10
 700:	1100214b 	add	w11, w10, #0x8
 704:	7100455f 	cmp	w10, #0x11
 708:	2a090189 	orr	w9, w12, w9
 70c:	2a0b03ea 	mov	w10, w11
 710:	2902266b 	stp	w11, w9, [x19,#16]
 714:	54fffdeb 	b.lt	6d0 <_ZL13stbi__do_zlibP10stbi__zbufPciii+0x6d0>
 718:	14000002 	b	720 <_ZL13stbi__do_zlibP10stbi__zbufPciii+0x720>
 71c:	2a0a03eb 	mov	w11, w10
 720:	1ac8238a 	lsl	w10, w28, w8
 724:	5100054a 	sub	w10, w10, #0x1
 728:	1ac8252c 	lsr	w12, w9, w8
 72c:	0a0a0129 	and	w9, w9, w10
 730:	4b080168 	sub	w8, w11, w8
 734:	0b1a013a 	add	w26, w9, w26
 738:	29023268 	stp	w8, w12, [x19,#16]
 73c:	f9400fe1 	ldr	x1, [sp,#24]
 740:	aa1303e0 	mov	x0, x19
 744:	94000000 	bl	0 <_ZL13stbi__do_zlibP10stbi__zbufPciii>
 748:	37f82040 	tbnz	w0, #31, b50 <_ZL13stbi__do_zlibP10stbi__zbufPciii+0xb50>
 74c:	90000008 	adrp	x8, 0 <_ZL13stbi__do_zlibP10stbi__zbufPciii>
 750:	91000108 	add	x8, x8, #0x0
 754:	b860d908 	ldr	w8, [x8,w0,sxtw #2]
 758:	93407c09 	sxtw	x9, w0
 75c:	d100112a 	sub	x10, x9, #0x4
 760:	f100655f 	cmp	x10, #0x19
 764:	54000448 	b.hi	7ec <_ZL13stbi__do_zlibP10stbi__zbufPciii+0x7ec>
 768:	9000000a 	adrp	x10, 0 <_ZL13stbi__do_zlibP10stbi__zbufPciii>
 76c:	9100014a 	add	x10, x10, #0x0
 770:	b8697949 	ldr	w9, [x10,x9,lsl #2]
 774:	29422a6b 	ldp	w11, w10, [x19,#16]
 778:	6b09017f 	cmp	w11, w9
 77c:	5400028a 	b.ge	7cc <_ZL13stbi__do_zlibP10stbi__zbufPciii+0x7cc>
 780:	1acb238c 	lsl	w12, w28, w11
 784:	6b0c015f 	cmp	w10, w12
 788:	540025e2 	b.cs	c44 <_ZL13stbi__do_zlibP10stbi__zbufPciii+0xc44>
 78c:	a940366c 	ldp	x12, x13, [x19]
 790:	eb0d019f 	cmp	x12, x13
 794:	540000a2 	b.cs	7a8 <_ZL13stbi__do_zlibP10stbi__zbufPciii+0x7a8>
 798:	9100058d 	add	x13, x12, #0x1
 79c:	f900026d 	str	x13, [x19]
 7a0:	3940018c 	ldrb	w12, [x12]
 7a4:	14000002 	b	7ac <_ZL13stbi__do_zlibP10stbi__zbufPciii+0x7ac>
 7a8:	2a1f03ec 	mov	w12, wzr
 7ac:	1acb218d 	lsl	w13, w12, w11
 7b0:	1100216c 	add	w12, w11, #0x8
 7b4:	7100457f 	cmp	w11, #0x11
 7b8:	2a0a01aa 	orr	w10, w13, w10
 7bc:	2a0c03eb 	mov	w11, w12
 7c0:	29022a6c 	stp	w12, w10, [x19,#16]
 7c4:	54fffdeb 	b.lt	780 <_ZL13stbi__do_zlibP10stbi__zbufPciii+0x780>
 7c8:	14000002 	b	7d0 <_ZL13stbi__do_zlibP10stbi__zbufPciii+0x7d0>
 7cc:	2a0b03ec 	mov	w12, w11
 7d0:	1ac9238b 	lsl	w11, w28, w9
 7d4:	5100056b 	sub	w11, w11, #0x1
 7d8:	1ac9254d 	lsr	w13, w10, w9
 7dc:	0a0b014a 	and	w10, w10, w11
 7e0:	4b090189 	sub	w9, w12, w9
 7e4:	0b080148 	add	w8, w10, w8
 7e8:	29023669 	stp	w9, w13, [x19,#16]
 7ec:	f9401260 	ldr	x0, [x19,#32]
 7f0:	93407d15 	sxtw	x21, w8
 7f4:	cb000317 	sub	x23, x24, x0
 7f8:	eb1502ff 	cmp	x23, x21
 7fc:	54001c2b 	b.lt	b80 <_ZL13stbi__do_zlibP10stbi__zbufPciii+0xb80>
 800:	f9401668 	ldr	x8, [x19,#40]
 804:	8b3ac309 	add	x9, x24, w26, sxtw
 808:	eb08013f 	cmp	x9, x8
 80c:	54000249 	b.ls	854 <_ZL13stbi__do_zlibP10stbi__zbufPciii+0x854>
 810:	b9403269 	ldr	w9, [x19,#48]
 814:	f9000e78 	str	x24, [x19,#24]
 818:	34001aa9 	cbz	w9, b6c <_ZL13stbi__do_zlibP10stbi__zbufPciii+0xb6c>
 81c:	4b00010a 	sub	w10, w8, w0
 820:	0b170348 	add	w8, w26, w23
 824:	2a0a03e9 	mov	w9, w10
 828:	6b09011f 	cmp	w8, w9
 82c:	531f792a 	lsl	w10, w9, #1
 830:	54ffffac 	b.gt	824 <_ZL13stbi__do_zlibP10stbi__zbufPciii+0x824>
 834:	93407d39 	sxtw	x25, w9
 838:	aa1903e1 	mov	x1, x25
 83c:	94000000 	bl	0 <realloc>
 840:	b4001ae0 	cbz	x0, b9c <_ZL13stbi__do_zlibP10stbi__zbufPciii+0xb9c>
 844:	8b37c018 	add	x24, x0, w23, sxtw
 848:	8b190008 	add	x8, x0, x25
 84c:	a9018278 	stp	x24, x0, [x19,#24]
 850:	f9001668 	str	x8, [x19,#40]
 854:	710006bf 	cmp	w21, #0x1
 858:	cb150308 	sub	x8, x24, x21
 85c:	54000121 	b.ne	880 <_ZL13stbi__do_zlibP10stbi__zbufPciii+0x880>
 860:	34ffedfa 	cbz	w26, 61c <_ZL13stbi__do_zlibP10stbi__zbufPciii+0x61c>
 864:	39400101 	ldrb	w1, [x8]
 868:	51000755 	sub	w21, w26, #0x1
 86c:	910006a2 	add	x2, x21, #0x1
 870:	aa1803e0 	mov	x0, x24
 874:	94000000 	bl	0 <memset>
 878:	8b150308 	add	x8, x24, x21
 87c:	17ffff67 	b	618 <_ZL13stbi__do_zlibP10stbi__zbufPciii+0x618>
 880:	34ffecfa 	cbz	w26, 61c <_ZL13stbi__do_zlibP10stbi__zbufPciii+0x61c>
 884:	51000749 	sub	w9, w26, #0x1
 888:	9100052a 	add	x10, x9, #0x1
 88c:	f100815f 	cmp	x10, #0x20
 890:	54000062 	b.cs	89c <_ZL13stbi__do_zlibP10stbi__zbufPciii+0x89c>
 894:	aa1803ea 	mov	x10, x24
 898:	1400001b 	b	904 <_ZL13stbi__do_zlibP10stbi__zbufPciii+0x904>
 89c:	1200134b 	and	w11, w26, #0x1f
 8a0:	cb0b014c 	sub	x12, x10, x11
 8a4:	b400016c 	cbz	x12, 8d0 <_ZL13stbi__do_zlibP10stbi__zbufPciii+0x8d0>
 8a8:	9100070a 	add	x10, x24, #0x1
 8ac:	cb15012d 	sub	x13, x9, x21
 8b0:	8b0d014d 	add	x13, x10, x13
 8b4:	eb0d031f 	cmp	x24, x13
 8b8:	54000102 	b.cs	8d8 <_ZL13stbi__do_zlibP10stbi__zbufPciii+0x8d8>
 8bc:	8b09014a 	add	x10, x10, x9
 8c0:	eb0a011f 	cmp	x8, x10
 8c4:	540000a2 	b.cs	8d8 <_ZL13stbi__do_zlibP10stbi__zbufPciii+0x8d8>
 8c8:	aa1803ea 	mov	x10, x24
 8cc:	1400000e 	b	904 <_ZL13stbi__do_zlibP10stbi__zbufPciii+0x904>
 8d0:	aa1803ea 	mov	x10, x24
 8d4:	1400000c 	b	904 <_ZL13stbi__do_zlibP10stbi__zbufPciii+0x904>
 8d8:	cb1503ed 	neg	x13, x21
 8dc:	8b0c030a 	add	x10, x24, x12
 8e0:	8b0c0108 	add	x8, x8, x12
 8e4:	4b0c035a 	sub	w26, w26, w12
 8e8:	aa1803ee 	mov	x14, x24
 8ec:	8b0e01af 	add	x15, x13, x14
 8f0:	ad4005e0 	ldp	q0, q1, [x15]
 8f4:	d100818c 	sub	x12, x12, #0x20
 8f8:	ac8105c0 	stp	q0, q1, [x14],#32
 8fc:	b5ffff8c 	cbnz	x12, 8ec <_ZL13stbi__do_zlibP10stbi__zbufPciii+0x8ec>
 900:	34ffe8ab 	cbz	w11, 614 <_ZL13stbi__do_zlibP10stbi__zbufPciii+0x614>
 904:	3840150b 	ldrb	w11, [x8],#1
 908:	5100075a 	sub	w26, w26, #0x1
 90c:	3800154b 	strb	w11, [x10],#1
 910:	35ffffba 	cbnz	w26, 904 <_ZL13stbi__do_zlibP10stbi__zbufPciii+0x904>
 914:	17ffff40 	b	614 <_ZL13stbi__do_zlibP10stbi__zbufPciii+0x614>
 918:	2a1f03eb 	mov	w11, wzr
 91c:	7100055f 	cmp	w10, #0x1
 920:	5400098a 	b.ge	a50 <_ZL13stbi__do_zlibP10stbi__zbufPciii+0xa50>
 924:	35001b2a 	cbnz	w10, c88 <_ZL13stbi__do_zlibP10stbi__zbufPciii+0xc88>
 928:	71000d7f 	cmp	w11, #0x3
 92c:	5400020c 	b.gt	96c <_ZL13stbi__do_zlibP10stbi__zbufPciii+0x96c>
 930:	a9402269 	ldp	x9, x8, [x19]
 934:	93407d6a 	sxtw	x10, w11
 938:	eb08013f 	cmp	x9, x8
 93c:	540000c2 	b.cs	954 <_ZL13stbi__do_zlibP10stbi__zbufPciii+0x954>
 940:	9100052c 	add	x12, x9, #0x1
 944:	f900026c 	str	x12, [x19]
 948:	3940012b 	ldrb	w11, [x9]
 94c:	aa0c03e9 	mov	x9, x12
 950:	14000002 	b	958 <_ZL13stbi__do_zlibP10stbi__zbufPciii+0x958>
 954:	2a1f03eb 	mov	w11, wzr
 958:	9100054c 	add	x12, x10, #0x1
 95c:	f1000d5f 	cmp	x10, #0x3
 960:	382a69cb 	strb	w11, [x14,x10]
 964:	aa0c03ea 	mov	x10, x12
 968:	54fffe8b 	b.lt	938 <_ZL13stbi__do_zlibP10stbi__zbufPciii+0x938>
 96c:	394807e8 	ldrb	w8, [sp,#513]
 970:	394803f9 	ldrb	w25, [sp,#512]
 974:	39480fe9 	ldrb	w9, [sp,#515]
 978:	39480bea 	ldrb	w10, [sp,#514]
 97c:	33181d19 	bfi	w25, w8, #8, #8
 980:	52003f28 	eor	w8, w25, #0xffff
 984:	33181d2a 	bfi	w10, w9, #8, #8
 988:	6b08015f 	cmp	w10, w8
 98c:	54001241 	b.ne	bd4 <_ZL13stbi__do_zlibP10stbi__zbufPciii+0xbd4>
 990:	a9402261 	ldp	x1, x8, [x19]
 994:	8b190029 	add	x9, x1, x25
 998:	eb08013f 	cmp	x9, x8
 99c:	54001228 	b.hi	be0 <_ZL13stbi__do_zlibP10stbi__zbufPciii+0xbe0>
 9a0:	f9401668 	ldr	x8, [x19,#40]
 9a4:	8b190309 	add	x9, x24, x25
 9a8:	eb08013f 	cmp	x9, x8
 9ac:	540002a9 	b.ls	a00 <_ZL13stbi__do_zlibP10stbi__zbufPciii+0xa00>
 9b0:	b9403269 	ldr	w9, [x19,#48]
 9b4:	340011c9 	cbz	w9, bec <_ZL13stbi__do_zlibP10stbi__zbufPciii+0xbec>
 9b8:	f9401260 	ldr	x0, [x19,#32]
 9bc:	cb000315 	sub	x21, x24, x0
 9c0:	4b00010a 	sub	w10, w8, w0
 9c4:	0b150328 	add	w8, w25, w21
 9c8:	2a0a03e9 	mov	w9, w10
 9cc:	6b09011f 	cmp	w8, w9
 9d0:	531f792a 	lsl	w10, w9, #1
 9d4:	54ffffac 	b.gt	9c8 <_ZL13stbi__do_zlibP10stbi__zbufPciii+0x9c8>
 9d8:	93407d3a 	sxtw	x26, w9
 9dc:	aa1a03e1 	mov	x1, x26
 9e0:	94000000 	bl	0 <realloc>
 9e4:	b40010a0 	cbz	x0, bf8 <_ZL13stbi__do_zlibP10stbi__zbufPciii+0xbf8>
 9e8:	f9400261 	ldr	x1, [x19]
 9ec:	8b35c018 	add	x24, x0, w21, sxtw
 9f0:	8b1a0008 	add	x8, x0, x26
 9f4:	9100e3f5 	add	x21, sp, #0x38
 9f8:	a9018278 	stp	x24, x0, [x19,#24]
 9fc:	f9001668 	str	x8, [x19,#40]
 a00:	aa1803e0 	mov	x0, x24
 a04:	aa1903e2 	mov	x2, x25
 a08:	94000000 	bl	0 <memcpy>
 a0c:	f9400268 	ldr	x8, [x19]
 a10:	f9400e69 	ldr	x9, [x19,#24]
 a14:	8b190108 	add	x8, x8, x25
 a18:	8b190138 	add	x24, x9, x25
 a1c:	f9000268 	str	x8, [x19]
 a20:	14000002 	b	a28 <_ZL13stbi__do_zlibP10stbi__zbufPciii+0xa28>
 a24:	9100e3f5 	add	x21, sp, #0x38
 a28:	f9000e78 	str	x24, [x19,#24]
 a2c:	910803ee 	add	x14, sp, #0x200
 a30:	37000cf6 	tbnz	w22, #0, bcc <_ZL13stbi__do_zlibP10stbi__zbufPciii+0xbcc>
 a34:	29425a68 	ldp	w8, w22, [x19,#16]
 a38:	7100011f 	cmp	w8, #0x0
 a3c:	5400018c 	b.gt	a6c <_ZL13stbi__do_zlibP10stbi__zbufPciii+0xa6c>
 a40:	1400000d 	b	a74 <_ZL13stbi__do_zlibP10stbi__zbufPciii+0xa74>
 a44:	b900126a 	str	w10, [x19,#16]
 a48:	7100055f 	cmp	w10, #0x1
 a4c:	54fff6cb 	b.lt	924 <_ZL13stbi__do_zlibP10stbi__zbufPciii+0x924>
 a50:	382bc9c8 	strb	w8, [x14,w11,sxtw]
 a54:	11000569 	add	w9, w11, #0x1
 a58:	53087d08 	lsr	w8, w8, #8
 a5c:	b9001668 	str	w8, [x19,#20]
 a60:	5100214a 	sub	w10, w10, #0x8
 a64:	2a0903eb 	mov	w11, w9
 a68:	17fffff7 	b	a44 <_ZL13stbi__do_zlibP10stbi__zbufPciii+0xa44>
 a6c:	2a0803ea 	mov	w10, w8
 a70:	14000013 	b	abc <_ZL13stbi__do_zlibP10stbi__zbufPciii+0xabc>
 a74:	1ac82389 	lsl	w9, w28, w8
 a78:	6b0902df 	cmp	w22, w9
 a7c:	54000e42 	b.cs	c44 <_ZL13stbi__do_zlibP10stbi__zbufPciii+0xc44>
 a80:	a9402a69 	ldp	x9, x10, [x19]
 a84:	eb0a013f 	cmp	x9, x10
 a88:	540000a2 	b.cs	a9c <_ZL13stbi__do_zlibP10stbi__zbufPciii+0xa9c>
 a8c:	9100052a 	add	x10, x9, #0x1
 a90:	f900026a 	str	x10, [x19]
 a94:	39400129 	ldrb	w9, [x9]
 a98:	14000002 	b	aa0 <_ZL13stbi__do_zlibP10stbi__zbufPciii+0xaa0>
 a9c:	2a1f03e9 	mov	w9, wzr
 aa0:	1ac82129 	lsl	w9, w9, w8
 aa4:	1100210a 	add	w10, w8, #0x8
 aa8:	7100451f 	cmp	w8, #0x11
 aac:	2a160136 	orr	w22, w9, w22
 ab0:	2a0a03e8 	mov	w8, w10
 ab4:	29025a6a 	stp	w10, w22, [x19,#16]
 ab8:	54fffdeb 	b.lt	a74 <_ZL13stbi__do_zlibP10stbi__zbufPciii+0xa74>
 abc:	53017ec9 	lsr	w9, w22, #1
 ac0:	5100054b 	sub	w11, w10, #0x1
 ac4:	7100095f 	cmp	w10, #0x2
 ac8:	2902266b 	stp	w11, w9, [x19,#16]
 acc:	540002cc 	b.gt	b24 <_ZL13stbi__do_zlibP10stbi__zbufPciii+0xb24>
 ad0:	51002548 	sub	w8, w10, #0x9
 ad4:	1100210a 	add	w10, w8, #0x8
 ad8:	1aca238b 	lsl	w11, w28, w10
 adc:	6b0b013f 	cmp	w9, w11
 ae0:	54000b22 	b.cs	c44 <_ZL13stbi__do_zlibP10stbi__zbufPciii+0xc44>
 ae4:	a940326b 	ldp	x11, x12, [x19]
 ae8:	eb0c017f 	cmp	x11, x12
 aec:	540000a2 	b.cs	b00 <_ZL13stbi__do_zlibP10stbi__zbufPciii+0xb00>
 af0:	9100056c 	add	x12, x11, #0x1
 af4:	f900026c 	str	x12, [x19]
 af8:	3940016b 	ldrb	w11, [x11]
 afc:	14000002 	b	b04 <_ZL13stbi__do_zlibP10stbi__zbufPciii+0xb04>
 b00:	2a1f03eb 	mov	w11, wzr
 b04:	1aca216a 	lsl	w10, w11, w10
 b08:	1100410b 	add	w11, w8, #0x10
 b0c:	11002108 	add	w8, w8, #0x8
 b10:	2a090149 	orr	w9, w10, w9
 b14:	7100451f 	cmp	w8, #0x11
 b18:	2902266b 	stp	w11, w9, [x19,#16]
 b1c:	54fffdcb 	b.lt	ad4 <_ZL13stbi__do_zlibP10stbi__zbufPciii+0xad4>
 b20:	1100210b 	add	w11, w8, #0x8
 b24:	53027d28 	lsr	w8, w9, #2
 b28:	5100096a 	sub	w10, w11, #0x2
 b2c:	12000529 	and	w9, w9, #0x3
 b30:	2902226a 	stp	w10, w8, [x19,#16]
 b34:	34ffcfe9 	cbz	w9, 530 <_ZL13stbi__do_zlibP10stbi__zbufPciii+0x530>
 b38:	7100053f 	cmp	w9, #0x1
 b3c:	54ffd360 	b.eq	5a8 <_ZL13stbi__do_zlibP10stbi__zbufPciii+0x5a8>
 b40:	71000d3f 	cmp	w9, #0x3
 b44:	54ffae81 	b.ne	114 <_ZL13stbi__do_zlibP10stbi__zbufPciii+0x114>
 b48:	2a1f03e0 	mov	w0, wzr
 b4c:	14000031 	b	c10 <_ZL13stbi__do_zlibP10stbi__zbufPciii+0xc10>
 b50:	90000008 	adrp	x8, 0 <_ZL13stbi__do_zlibP10stbi__zbufPciii>
 b54:	2a1f03e0 	mov	w0, wzr
 b58:	91000108 	add	x8, x8, #0x0
 b5c:	1400000c 	b	b8c <_ZL13stbi__do_zlibP10stbi__zbufPciii+0xb8c>
 b60:	90000008 	adrp	x8, 0 <_ZL13stbi__do_zlibP10stbi__zbufPciii>
 b64:	91000108 	add	x8, x8, #0x0
 b68:	14000014 	b	bb8 <_ZL13stbi__do_zlibP10stbi__zbufPciii+0xbb8>
 b6c:	90000008 	adrp	x8, 0 <_ZL13stbi__do_zlibP10stbi__zbufPciii>
 b70:	90000009 	adrp	x9, 0 <_ZL13stbi__do_zlibP10stbi__zbufPciii>
 b74:	91000108 	add	x8, x8, #0x0
 b78:	91000129 	add	x9, x9, #0x0
 b7c:	14000023 	b	c08 <_ZL13stbi__do_zlibP10stbi__zbufPciii+0xc08>
 b80:	90000008 	adrp	x8, 0 <_ZL13stbi__do_zlibP10stbi__zbufPciii>
 b84:	2a1f03e0 	mov	w0, wzr
 b88:	91000108 	add	x8, x8, #0x0
 b8c:	90000009 	adrp	x9, 0 <_ZL13stbi__do_zlibP10stbi__zbufPciii>
 b90:	91000129 	add	x9, x9, #0x0
 b94:	f9000928 	str	x8, [x9,#16]
 b98:	1400001e 	b	c10 <_ZL13stbi__do_zlibP10stbi__zbufPciii+0xc10>
 b9c:	90000008 	adrp	x8, 0 <_ZL13stbi__do_zlibP10stbi__zbufPciii>
 ba0:	90000009 	adrp	x9, 0 <_ZL13stbi__do_zlibP10stbi__zbufPciii>
 ba4:	91000108 	add	x8, x8, #0x0
 ba8:	91000129 	add	x9, x9, #0x0
 bac:	14000018 	b	c0c <_ZL13stbi__do_zlibP10stbi__zbufPciii+0xc0c>
 bb0:	90000008 	adrp	x8, 0 <_ZL13stbi__do_zlibP10stbi__zbufPciii>
 bb4:	91000108 	add	x8, x8, #0x0
 bb8:	90000009 	adrp	x9, 0 <_ZL13stbi__do_zlibP10stbi__zbufPciii>
 bbc:	91000129 	add	x9, x9, #0x0
 bc0:	2a1f03e0 	mov	w0, wzr
 bc4:	f9000928 	str	x8, [x9,#16]
 bc8:	14000013 	b	c14 <_ZL13stbi__do_zlibP10stbi__zbufPciii+0xc14>
 bcc:	320003e0 	orr	w0, wzr, #0x1
 bd0:	14000010 	b	c10 <_ZL13stbi__do_zlibP10stbi__zbufPciii+0xc10>
 bd4:	90000009 	adrp	x9, 0 <_ZL13stbi__do_zlibP10stbi__zbufPciii>
 bd8:	91000129 	add	x9, x9, #0x0
 bdc:	14000009 	b	c00 <_ZL13stbi__do_zlibP10stbi__zbufPciii+0xc00>
 be0:	90000009 	adrp	x9, 0 <_ZL13stbi__do_zlibP10stbi__zbufPciii>
 be4:	91000129 	add	x9, x9, #0x0
 be8:	14000006 	b	c00 <_ZL13stbi__do_zlibP10stbi__zbufPciii+0xc00>
 bec:	90000009 	adrp	x9, 0 <_ZL13stbi__do_zlibP10stbi__zbufPciii>
 bf0:	91000129 	add	x9, x9, #0x0
 bf4:	14000003 	b	c00 <_ZL13stbi__do_zlibP10stbi__zbufPciii+0xc00>
 bf8:	90000009 	adrp	x9, 0 <_ZL13stbi__do_zlibP10stbi__zbufPciii>
 bfc:	91000129 	add	x9, x9, #0x0
 c00:	90000008 	adrp	x8, 0 <_ZL13stbi__do_zlibP10stbi__zbufPciii>
 c04:	91000108 	add	x8, x8, #0x0
 c08:	2a1f03e0 	mov	w0, wzr
 c0c:	f9000909 	str	x9, [x8,#16]
 c10:	f9400bed 	ldr	x13, [sp,#16]
 c14:	f94015a8 	ldr	x8, [x13,#40]
 c18:	f85a83a9 	ldur	x9, [x29,#-88]
 c1c:	eb09011f 	cmp	x8, x9
 c20:	54000221 	b.ne	c64 <_ZL13stbi__do_zlibP10stbi__zbufPciii+0xc64>
 c24:	9127c3ff 	add	sp, sp, #0x9f0
 c28:	a9457bfd 	ldp	x29, x30, [sp,#80]
 c2c:	a9444ff4 	ldp	x20, x19, [sp,#64]
 c30:	a94357f6 	ldp	x22, x21, [sp,#48]
 c34:	a9425ff8 	ldp	x24, x23, [sp,#32]
 c38:	a94167fa 	ldp	x26, x25, [sp,#16]
 c3c:	a8c66ffc 	ldp	x28, x27, [sp],#96
 c40:	d65f03c0 	ret
 c44:	90000000 	adrp	x0, 0 <_ZL13stbi__do_zlibP10stbi__zbufPciii>
 c48:	90000002 	adrp	x2, 0 <_ZL13stbi__do_zlibP10stbi__zbufPciii>
 c4c:	90000003 	adrp	x3, 0 <_ZL13stbi__do_zlibP10stbi__zbufPciii>
 c50:	91000000 	add	x0, x0, #0x0
 c54:	91000042 	add	x2, x2, #0x0
 c58:	91000063 	add	x3, x3, #0x0
 c5c:	5281ef61 	mov	w1, #0xf7b                 	// #3963
 c60:	94000000 	bl	0 <__assert2>
 c64:	94000000 	bl	0 <__stack_chk_fail>
 c68:	90000000 	adrp	x0, 0 <_ZL13stbi__do_zlibP10stbi__zbufPciii>
 c6c:	90000002 	adrp	x2, 0 <_ZL13stbi__do_zlibP10stbi__zbufPciii>
 c70:	90000003 	adrp	x3, 0 <_ZL13stbi__do_zlibP10stbi__zbufPciii>
 c74:	91000000 	add	x0, x0, #0x0
 c78:	91000042 	add	x2, x2, #0x0
 c7c:	91000063 	add	x3, x3, #0x0
 c80:	52820321 	mov	w1, #0x1019                	// #4121
 c84:	94000000 	bl	0 <__assert2>
 c88:	90000000 	adrp	x0, 0 <_ZL13stbi__do_zlibP10stbi__zbufPciii>
 c8c:	90000002 	adrp	x2, 0 <_ZL13stbi__do_zlibP10stbi__zbufPciii>
 c90:	90000003 	adrp	x3, 0 <_ZL13stbi__do_zlibP10stbi__zbufPciii>
 c94:	91000000 	add	x0, x0, #0x0
 c98:	91000042 	add	x2, x2, #0x0
 c9c:	91000063 	add	x3, x3, #0x0
 ca0:	52820681 	mov	w1, #0x1034                	// #4148
 ca4:	94000000 	bl	0 <__assert2>

Disassembly of section .text.stbi_zlib_decode_malloc:

0000000000000000 <stbi_zlib_decode_malloc>:
   0:	f81c0ffc 	str	x28, [sp,#-64]!
   4:	a90157f6 	stp	x22, x21, [sp,#16]
   8:	a9024ff4 	stp	x20, x19, [sp,#32]
   c:	a9037bfd 	stp	x29, x30, [sp,#48]
  10:	9100c3fd 	add	x29, sp, #0x30
  14:	d14007ff 	sub	sp, sp, #0x1, lsl #12
  18:	d10043ff 	sub	sp, sp, #0x10
  1c:	d53bd056 	mrs	x22, tpidr_el0
  20:	f94016c8 	ldr	x8, [x22,#40]
  24:	aa0003f5 	mov	x21, x0
  28:	321203e0 	orr	w0, wzr, #0x4000
  2c:	aa0203f3 	mov	x19, x2
  30:	2a0103f4 	mov	w20, w1
  34:	f81c83a8 	stur	x8, [x29,#-56]
  38:	94000000 	bl	0 <malloc>
  3c:	aa0003e8 	mov	x8, x0
  40:	b40002a8 	cbz	x8, 94 <stbi_zlib_decode_malloc+0x94>
  44:	8b34c2a9 	add	x9, x21, w20, sxtw
  48:	910023e0 	add	x0, sp, #0x8
  4c:	321203e2 	orr	w2, wzr, #0x4000
  50:	320003e3 	orr	w3, wzr, #0x1
  54:	320003e4 	orr	w4, wzr, #0x1
  58:	aa0803e1 	mov	x1, x8
  5c:	a900a7f5 	stp	x21, x9, [sp,#8]
  60:	94000000 	bl	0 <stbi_zlib_decode_malloc>
  64:	340000e0 	cbz	w0, 80 <stbi_zlib_decode_malloc+0x80>
  68:	b4000153 	cbz	x19, 90 <stbi_zlib_decode_malloc+0x90>
  6c:	b94023e8 	ldr	w8, [sp,#32]
  70:	f94017e0 	ldr	x0, [sp,#40]
  74:	4b000108 	sub	w8, w8, w0
  78:	b9000268 	str	w8, [x19]
  7c:	14000006 	b	94 <stbi_zlib_decode_malloc+0x94>
  80:	f94017e0 	ldr	x0, [sp,#40]
  84:	94000000 	bl	0 <free>
  88:	aa1f03e0 	mov	x0, xzr
  8c:	14000002 	b	94 <stbi_zlib_decode_malloc+0x94>
  90:	f94017e0 	ldr	x0, [sp,#40]
  94:	f94016c8 	ldr	x8, [x22,#40]
  98:	f85c83a9 	ldur	x9, [x29,#-56]
  9c:	eb09011f 	cmp	x8, x9
  a0:	54000101 	b.ne	c0 <stbi_zlib_decode_malloc+0xc0>
  a4:	914007ff 	add	sp, sp, #0x1, lsl #12
  a8:	910043ff 	add	sp, sp, #0x10
  ac:	a9437bfd 	ldp	x29, x30, [sp,#48]
  b0:	a9424ff4 	ldp	x20, x19, [sp,#32]
  b4:	a94157f6 	ldp	x22, x21, [sp,#16]
  b8:	f84407fc 	ldr	x28, [sp],#64
  bc:	d65f03c0 	ret
  c0:	94000000 	bl	0 <__stack_chk_fail>

Disassembly of section .text.stbi_zlib_decode_malloc_guesssize_headerflag:

0000000000000000 <stbi_zlib_decode_malloc_guesssize_headerflag>:
   0:	f81b0ffc 	str	x28, [sp,#-80]!
   4:	a9015ff8 	stp	x24, x23, [sp,#16]
   8:	a90257f6 	stp	x22, x21, [sp,#32]
   c:	a9034ff4 	stp	x20, x19, [sp,#48]
  10:	a9047bfd 	stp	x29, x30, [sp,#64]
  14:	910103fd 	add	x29, sp, #0x40
  18:	d14007ff 	sub	sp, sp, #0x1, lsl #12
  1c:	d10043ff 	sub	sp, sp, #0x10
  20:	d53bd058 	mrs	x24, tpidr_el0
  24:	f9401708 	ldr	x8, [x24,#40]
  28:	2a0203f5 	mov	w21, w2
  2c:	aa0003f7 	mov	x23, x0
  30:	93407ea0 	sxtw	x0, w21
  34:	2a0403f4 	mov	w20, w4
  38:	aa0303f3 	mov	x19, x3
  3c:	2a0103f6 	mov	w22, w1
  40:	f81b83a8 	stur	x8, [x29,#-72]
  44:	94000000 	bl	0 <malloc>
  48:	aa0003e8 	mov	x8, x0
  4c:	b40002a8 	cbz	x8, a0 <stbi_zlib_decode_malloc_guesssize_headerflag+0xa0>
  50:	8b36c2e9 	add	x9, x23, w22, sxtw
  54:	910023e0 	add	x0, sp, #0x8
  58:	320003e3 	orr	w3, wzr, #0x1
  5c:	aa0803e1 	mov	x1, x8
  60:	2a1503e2 	mov	w2, w21
  64:	2a1403e4 	mov	w4, w20
  68:	a900a7f7 	stp	x23, x9, [sp,#8]
  6c:	94000000 	bl	0 <stbi_zlib_decode_malloc_guesssize_headerflag>
  70:	340000e0 	cbz	w0, 8c <stbi_zlib_decode_malloc_guesssize_headerflag+0x8c>
  74:	b4000153 	cbz	x19, 9c <stbi_zlib_decode_malloc_guesssize_headerflag+0x9c>
  78:	b94023e8 	ldr	w8, [sp,#32]
  7c:	f94017e0 	ldr	x0, [sp,#40]
  80:	4b000108 	sub	w8, w8, w0
  84:	b9000268 	str	w8, [x19]
  88:	14000006 	b	a0 <stbi_zlib_decode_malloc_guesssize_headerflag+0xa0>
  8c:	f94017e0 	ldr	x0, [sp,#40]
  90:	94000000 	bl	0 <free>
  94:	aa1f03e0 	mov	x0, xzr
  98:	14000002 	b	a0 <stbi_zlib_decode_malloc_guesssize_headerflag+0xa0>
  9c:	f94017e0 	ldr	x0, [sp,#40]
  a0:	f9401708 	ldr	x8, [x24,#40]
  a4:	f85b83a9 	ldur	x9, [x29,#-72]
  a8:	eb09011f 	cmp	x8, x9
  ac:	54000121 	b.ne	d0 <stbi_zlib_decode_malloc_guesssize_headerflag+0xd0>
  b0:	914007ff 	add	sp, sp, #0x1, lsl #12
  b4:	910043ff 	add	sp, sp, #0x10
  b8:	a9447bfd 	ldp	x29, x30, [sp,#64]
  bc:	a9434ff4 	ldp	x20, x19, [sp,#48]
  c0:	a94257f6 	ldp	x22, x21, [sp,#32]
  c4:	a9415ff8 	ldp	x24, x23, [sp,#16]
  c8:	f84507fc 	ldr	x28, [sp],#80
  cc:	d65f03c0 	ret
  d0:	94000000 	bl	0 <__stack_chk_fail>

Disassembly of section .text.stbi_zlib_decode_buffer:

0000000000000000 <stbi_zlib_decode_buffer>:
   0:	a9be4ffc 	stp	x28, x19, [sp,#-32]!
   4:	a9017bfd 	stp	x29, x30, [sp,#16]
   8:	910043fd 	add	x29, sp, #0x10
   c:	d14007ff 	sub	sp, sp, #0x1, lsl #12
  10:	d10043ff 	sub	sp, sp, #0x10
  14:	d53bd053 	mrs	x19, tpidr_el0
  18:	f940166a 	ldr	x10, [x19,#40]
  1c:	2a0103e8 	mov	w8, w1
  20:	aa0003e9 	mov	x9, x0
  24:	8b23c04b 	add	x11, x2, w3, sxtw
  28:	f81e83aa 	stur	x10, [x29,#-24]
  2c:	a900afe2 	stp	x2, x11, [sp,#8]
  30:	910023e0 	add	x0, sp, #0x8
  34:	320003e4 	orr	w4, wzr, #0x1
  38:	aa0903e1 	mov	x1, x9
  3c:	2a0803e2 	mov	w2, w8
  40:	2a1f03e3 	mov	w3, wzr
  44:	94000000 	bl	0 <stbi_zlib_decode_buffer>
  48:	340000a0 	cbz	w0, 5c <stbi_zlib_decode_buffer+0x5c>
  4c:	b94023e8 	ldr	w8, [sp,#32]
  50:	b9402be9 	ldr	w9, [sp,#40]
  54:	4b090100 	sub	w0, w8, w9
  58:	14000002 	b	60 <stbi_zlib_decode_buffer+0x60>
  5c:	12800000 	mov	w0, #0xffffffff            	// #-1
  60:	f9401668 	ldr	x8, [x19,#40]
  64:	f85e83a9 	ldur	x9, [x29,#-24]
  68:	eb09011f 	cmp	x8, x9
  6c:	540000c1 	b.ne	84 <stbi_zlib_decode_buffer+0x84>
  70:	914007ff 	add	sp, sp, #0x1, lsl #12
  74:	910043ff 	add	sp, sp, #0x10
  78:	a9417bfd 	ldp	x29, x30, [sp,#16]
  7c:	a8c24ffc 	ldp	x28, x19, [sp],#32
  80:	d65f03c0 	ret
  84:	94000000 	bl	0 <__stack_chk_fail>

Disassembly of section .text.stbi_zlib_decode_noheader_malloc:

0000000000000000 <stbi_zlib_decode_noheader_malloc>:
   0:	f81c0ffc 	str	x28, [sp,#-64]!
   4:	a90157f6 	stp	x22, x21, [sp,#16]
   8:	a9024ff4 	stp	x20, x19, [sp,#32]
   c:	a9037bfd 	stp	x29, x30, [sp,#48]
  10:	9100c3fd 	add	x29, sp, #0x30
  14:	d14007ff 	sub	sp, sp, #0x1, lsl #12
  18:	d10043ff 	sub	sp, sp, #0x10
  1c:	d53bd056 	mrs	x22, tpidr_el0
  20:	f94016c8 	ldr	x8, [x22,#40]
  24:	aa0003f5 	mov	x21, x0
  28:	321203e0 	orr	w0, wzr, #0x4000
  2c:	aa0203f3 	mov	x19, x2
  30:	2a0103f4 	mov	w20, w1
  34:	f81c83a8 	stur	x8, [x29,#-56]
  38:	94000000 	bl	0 <malloc>
  3c:	aa0003e8 	mov	x8, x0
  40:	b40002a8 	cbz	x8, 94 <stbi_zlib_decode_noheader_malloc+0x94>
  44:	8b34c2a9 	add	x9, x21, w20, sxtw
  48:	910023e0 	add	x0, sp, #0x8
  4c:	321203e2 	orr	w2, wzr, #0x4000
  50:	320003e3 	orr	w3, wzr, #0x1
  54:	aa0803e1 	mov	x1, x8
  58:	2a1f03e4 	mov	w4, wzr
  5c:	a900a7f5 	stp	x21, x9, [sp,#8]
  60:	94000000 	bl	0 <stbi_zlib_decode_noheader_malloc>
  64:	340000e0 	cbz	w0, 80 <stbi_zlib_decode_noheader_malloc+0x80>
  68:	b4000153 	cbz	x19, 90 <stbi_zlib_decode_noheader_malloc+0x90>
  6c:	b94023e8 	ldr	w8, [sp,#32]
  70:	f94017e0 	ldr	x0, [sp,#40]
  74:	4b000108 	sub	w8, w8, w0
  78:	b9000268 	str	w8, [x19]
  7c:	14000006 	b	94 <stbi_zlib_decode_noheader_malloc+0x94>
  80:	f94017e0 	ldr	x0, [sp,#40]
  84:	94000000 	bl	0 <free>
  88:	aa1f03e0 	mov	x0, xzr
  8c:	14000002 	b	94 <stbi_zlib_decode_noheader_malloc+0x94>
  90:	f94017e0 	ldr	x0, [sp,#40]
  94:	f94016c8 	ldr	x8, [x22,#40]
  98:	f85c83a9 	ldur	x9, [x29,#-56]
  9c:	eb09011f 	cmp	x8, x9
  a0:	54000101 	b.ne	c0 <stbi_zlib_decode_noheader_malloc+0xc0>
  a4:	914007ff 	add	sp, sp, #0x1, lsl #12
  a8:	910043ff 	add	sp, sp, #0x10
  ac:	a9437bfd 	ldp	x29, x30, [sp,#48]
  b0:	a9424ff4 	ldp	x20, x19, [sp,#32]
  b4:	a94157f6 	ldp	x22, x21, [sp,#16]
  b8:	f84407fc 	ldr	x28, [sp],#64
  bc:	d65f03c0 	ret
  c0:	94000000 	bl	0 <__stack_chk_fail>

Disassembly of section .text.stbi_zlib_decode_noheader_buffer:

0000000000000000 <stbi_zlib_decode_noheader_buffer>:
   0:	a9be4ffc 	stp	x28, x19, [sp,#-32]!
   4:	a9017bfd 	stp	x29, x30, [sp,#16]
   8:	910043fd 	add	x29, sp, #0x10
   c:	d14007ff 	sub	sp, sp, #0x1, lsl #12
  10:	d10043ff 	sub	sp, sp, #0x10
  14:	d53bd053 	mrs	x19, tpidr_el0
  18:	f940166a 	ldr	x10, [x19,#40]
  1c:	2a0103e8 	mov	w8, w1
  20:	aa0003e9 	mov	x9, x0
  24:	8b23c04b 	add	x11, x2, w3, sxtw
  28:	f81e83aa 	stur	x10, [x29,#-24]
  2c:	a900afe2 	stp	x2, x11, [sp,#8]
  30:	910023e0 	add	x0, sp, #0x8
  34:	aa0903e1 	mov	x1, x9
  38:	2a0803e2 	mov	w2, w8
  3c:	2a1f03e3 	mov	w3, wzr
  40:	2a1f03e4 	mov	w4, wzr
  44:	94000000 	bl	0 <stbi_zlib_decode_noheader_buffer>
  48:	340000a0 	cbz	w0, 5c <stbi_zlib_decode_noheader_buffer+0x5c>
  4c:	b94023e8 	ldr	w8, [sp,#32]
  50:	b9402be9 	ldr	w9, [sp,#40]
  54:	4b090100 	sub	w0, w8, w9
  58:	14000002 	b	60 <stbi_zlib_decode_noheader_buffer+0x60>
  5c:	12800000 	mov	w0, #0xffffffff            	// #-1
  60:	f9401668 	ldr	x8, [x19,#40]
  64:	f85e83a9 	ldur	x9, [x29,#-24]
  68:	eb09011f 	cmp	x8, x9
  6c:	540000c1 	b.ne	84 <stbi_zlib_decode_noheader_buffer+0x84>
  70:	914007ff 	add	sp, sp, #0x1, lsl #12
  74:	910043ff 	add	sp, sp, #0x10
  78:	a9417bfd 	ldp	x29, x30, [sp,#16]
  7c:	a8c24ffc 	ldp	x28, x19, [sp],#32
  80:	d65f03c0 	ret
  84:	94000000 	bl	0 <__stack_chk_fail>

Disassembly of section .text.stbi_set_unpremultiply_on_load:

0000000000000000 <stbi_set_unpremultiply_on_load>:
   0:	90000008 	adrp	x8, 0 <stbi_set_unpremultiply_on_load>
   4:	91000108 	add	x8, x8, #0x0
   8:	b9000500 	str	w0, [x8,#4]
   c:	d65f03c0 	ret

Disassembly of section .text.stbi_convert_iphone_png_to_rgb:

0000000000000000 <stbi_convert_iphone_png_to_rgb>:
   0:	90000008 	adrp	x8, 0 <stbi_convert_iphone_png_to_rgb>
   4:	91000108 	add	x8, x8, #0x0
   8:	b9000900 	str	w0, [x8,#8]
   c:	d65f03c0 	ret

Disassembly of section .text.stbi_info:

0000000000000000 <stbi_info>:
   0:	d10503ff 	sub	sp, sp, #0x140
   4:	f90073fc 	str	x28, [sp,#224]
   8:	a90f67fa 	stp	x26, x25, [sp,#240]
   c:	a9105ff8 	stp	x24, x23, [sp,#256]
  10:	a91157f6 	stp	x22, x21, [sp,#272]
  14:	a9124ff4 	stp	x20, x19, [sp,#288]
  18:	a9137bfd 	stp	x29, x30, [sp,#304]
  1c:	9104c3fd 	add	x29, sp, #0x130
  20:	d53bd059 	mrs	x25, tpidr_el0
  24:	f9401728 	ldr	x8, [x25,#40]
  28:	aa0103f6 	mov	x22, x1
  2c:	90000001 	adrp	x1, 0 <stbi_info>
  30:	91000021 	add	x1, x1, #0x0
  34:	aa0303f3 	mov	x19, x3
  38:	aa0203f5 	mov	x21, x2
  3c:	f81a83a8 	stur	x8, [x29,#-88]
  40:	94000000 	bl	0 <fopen>
  44:	aa0003f4 	mov	x20, x0
  48:	b4000334 	cbz	x20, ac <stbi_info+0xac>
  4c:	aa1403e0 	mov	x0, x20
  50:	94000000 	bl	0 <ftell>
  54:	90000008 	adrp	x8, 0 <stbi_info>
  58:	91000108 	add	x8, x8, #0x0
  5c:	3dc00100 	ldr	q0, [x8]
  60:	f9400908 	ldr	x8, [x8,#16]
  64:	910003fa 	mov	x26, sp
  68:	b21903e9 	mov	x9, #0x8000000080          	// #549755814016
  6c:	3d8007e0 	str	q0, [sp,#16]
  70:	a90253e8 	stp	x8, x20, [sp,#32]
  74:	f9400be8 	ldr	x8, [sp,#16]
  78:	9100e358 	add	x24, x26, #0x38
  7c:	f2800029 	movk	x9, #0x1
  80:	aa0003f7 	mov	x23, x0
  84:	321903e2 	orr	w2, wzr, #0x80
  88:	aa1403e0 	mov	x0, x20
  8c:	aa1803e1 	mov	x1, x24
  90:	f9001be9 	str	x9, [sp,#48]
  94:	f90067f8 	str	x24, [sp,#200]
  98:	d63f0100 	blr	x8
  9c:	34000160 	cbz	w0, c8 <stbi_info+0xc8>
  a0:	8b20c348 	add	x8, x26, w0, sxtw
  a4:	9100e108 	add	x8, x8, #0x38
  a8:	1400000b 	b	d4 <stbi_info+0xd4>
  ac:	90000008 	adrp	x8, 0 <stbi_info>
  b0:	90000009 	adrp	x9, 0 <stbi_info>
  b4:	91000108 	add	x8, x8, #0x0
  b8:	91000129 	add	x9, x9, #0x0
  bc:	2a1f03f3 	mov	w19, wzr
  c0:	f9000909 	str	x9, [x8,#16]
  c4:	14000012 	b	10c <stbi_info+0x10c>
  c8:	b90033ff 	str	wzr, [sp,#48]
  cc:	9100e748 	add	x8, x26, #0x39
  d0:	3900e3ff 	strb	wzr, [sp,#56]
  d4:	910003e0 	mov	x0, sp
  d8:	aa1603e1 	mov	x1, x22
  dc:	aa1503e2 	mov	x2, x21
  e0:	aa1303e3 	mov	x3, x19
  e4:	a90ba3f8 	stp	x24, x8, [sp,#184]
  e8:	f9006be8 	str	x8, [sp,#208]
  ec:	94000000 	bl	0 <stbi_info>
  f0:	2a0003f3 	mov	w19, w0
  f4:	aa1403e0 	mov	x0, x20
  f8:	aa1703e1 	mov	x1, x23
  fc:	2a1f03e2 	mov	w2, wzr
 100:	94000000 	bl	0 <fseek>
 104:	aa1403e0 	mov	x0, x20
 108:	94000000 	bl	0 <fclose>
 10c:	f9401728 	ldr	x8, [x25,#40]
 110:	f85a83a9 	ldur	x9, [x29,#-88]
 114:	eb09011f 	cmp	x8, x9
 118:	54000141 	b.ne	140 <stbi_info+0x140>
 11c:	2a1303e0 	mov	w0, w19
 120:	a9537bfd 	ldp	x29, x30, [sp,#304]
 124:	a9524ff4 	ldp	x20, x19, [sp,#288]
 128:	a95157f6 	ldp	x22, x21, [sp,#272]
 12c:	a9505ff8 	ldp	x24, x23, [sp,#256]
 130:	a94f67fa 	ldp	x26, x25, [sp,#240]
 134:	f94073fc 	ldr	x28, [sp,#224]
 138:	910503ff 	add	sp, sp, #0x140
 13c:	d65f03c0 	ret
 140:	94000000 	bl	0 <__stack_chk_fail>

Disassembly of section .text.stbi_info_from_file:

0000000000000000 <stbi_info_from_file>:
   0:	d10503ff 	sub	sp, sp, #0x140
   4:	f90073fc 	str	x28, [sp,#224]
   8:	a90f67fa 	stp	x26, x25, [sp,#240]
   c:	a9105ff8 	stp	x24, x23, [sp,#256]
  10:	a91157f6 	stp	x22, x21, [sp,#272]
  14:	a9124ff4 	stp	x20, x19, [sp,#288]
  18:	a9137bfd 	stp	x29, x30, [sp,#304]
  1c:	9104c3fd 	add	x29, sp, #0x130
  20:	d53bd059 	mrs	x25, tpidr_el0
  24:	f9401728 	ldr	x8, [x25,#40]
  28:	aa0303f4 	mov	x20, x3
  2c:	aa0203f5 	mov	x21, x2
  30:	aa0103f6 	mov	x22, x1
  34:	aa0003f3 	mov	x19, x0
  38:	f81a83a8 	stur	x8, [x29,#-88]
  3c:	94000000 	bl	0 <ftell>
  40:	90000008 	adrp	x8, 0 <stbi_info_from_file>
  44:	91000108 	add	x8, x8, #0x0
  48:	3dc00100 	ldr	q0, [x8]
  4c:	f9400908 	ldr	x8, [x8,#16]
  50:	910003fa 	mov	x26, sp
  54:	b21903e9 	mov	x9, #0x8000000080          	// #549755814016
  58:	3d8007e0 	str	q0, [sp,#16]
  5c:	a9024fe8 	stp	x8, x19, [sp,#32]
  60:	f9400be8 	ldr	x8, [sp,#16]
  64:	9100e358 	add	x24, x26, #0x38
  68:	f2800029 	movk	x9, #0x1
  6c:	aa0003f7 	mov	x23, x0
  70:	321903e2 	orr	w2, wzr, #0x80
  74:	aa1303e0 	mov	x0, x19
  78:	aa1803e1 	mov	x1, x24
  7c:	f9001be9 	str	x9, [sp,#48]
  80:	f90067f8 	str	x24, [sp,#200]
  84:	d63f0100 	blr	x8
  88:	34000080 	cbz	w0, 98 <stbi_info_from_file+0x98>
  8c:	8b20c348 	add	x8, x26, w0, sxtw
  90:	9100e108 	add	x8, x8, #0x38
  94:	14000004 	b	a4 <stbi_info_from_file+0xa4>
  98:	b90033ff 	str	wzr, [sp,#48]
  9c:	9100e748 	add	x8, x26, #0x39
  a0:	3900e3ff 	strb	wzr, [sp,#56]
  a4:	910003e0 	mov	x0, sp
  a8:	aa1603e1 	mov	x1, x22
  ac:	aa1503e2 	mov	x2, x21
  b0:	aa1403e3 	mov	x3, x20
  b4:	a90ba3f8 	stp	x24, x8, [sp,#184]
  b8:	f9006be8 	str	x8, [sp,#208]
  bc:	94000000 	bl	0 <stbi_info_from_file>
  c0:	2a0003f4 	mov	w20, w0
  c4:	aa1303e0 	mov	x0, x19
  c8:	aa1703e1 	mov	x1, x23
  cc:	2a1f03e2 	mov	w2, wzr
  d0:	94000000 	bl	0 <fseek>
  d4:	f9401728 	ldr	x8, [x25,#40]
  d8:	f85a83a9 	ldur	x9, [x29,#-88]
  dc:	eb09011f 	cmp	x8, x9
  e0:	54000141 	b.ne	108 <stbi_info_from_file+0x108>
  e4:	2a1403e0 	mov	w0, w20
  e8:	a9537bfd 	ldp	x29, x30, [sp,#304]
  ec:	a9524ff4 	ldp	x20, x19, [sp,#288]
  f0:	a95157f6 	ldp	x22, x21, [sp,#272]
  f4:	a9505ff8 	ldp	x24, x23, [sp,#256]
  f8:	a94f67fa 	ldp	x26, x25, [sp,#240]
  fc:	f94073fc 	ldr	x28, [sp,#224]
 100:	910503ff 	add	sp, sp, #0x140
 104:	d65f03c0 	ret
 108:	94000000 	bl	0 <__stack_chk_fail>

Disassembly of section .text._ZL15stbi__info_mainP13stbi__contextPiS1_S1_:

0000000000000000 <_ZL15stbi__info_mainP13stbi__contextPiS1_S1_>:
       0:	a9ba6ffc 	stp	x28, x27, [sp,#-96]!
       4:	a90167fa 	stp	x26, x25, [sp,#16]
       8:	a9025ff8 	stp	x24, x23, [sp,#32]
       c:	a90357f6 	stp	x22, x21, [sp,#48]
      10:	a9044ff4 	stp	x20, x19, [sp,#64]
      14:	a9057bfd 	stp	x29, x30, [sp,#80]
      18:	910143fd 	add	x29, sp, #0x50
      1c:	d11143ff 	sub	sp, sp, #0x450
      20:	d53bd059 	mrs	x25, tpidr_el0
      24:	f9401728 	ldr	x8, [x25,#40]
      28:	aa0003f6 	mov	x22, x0
      2c:	9100c3fa 	add	x26, sp, #0x30
      30:	52891100 	mov	w0, #0x4888                	// #18568
      34:	aa0303f3 	mov	x19, x3
      38:	aa0203f4 	mov	x20, x2
      3c:	aa0103f5 	mov	x21, x1
      40:	f9000348 	str	x8, [x26]
      44:	94000000 	bl	0 <malloc>
      48:	aa0003f7 	mov	x23, x0
      4c:	321f03e1 	orr	w1, wzr, #0x2
      50:	f90002f6 	str	x22, [x23]
      54:	94000000 	bl	0 <_ZL15stbi__info_mainP13stbi__contextPiS1_S1_>
      58:	340003e0 	cbz	w0, d4 <_ZL15stbi__info_mainP13stbi__contextPiS1_S1_+0xd4>
      5c:	b4000095 	cbz	x21, 6c <_ZL15stbi__info_mainP13stbi__contextPiS1_S1_+0x6c>
      60:	f94002e8 	ldr	x8, [x23]
      64:	b9400108 	ldr	w8, [x8]
      68:	b90002a8 	str	w8, [x21]
      6c:	b4000094 	cbz	x20, 7c <_ZL15stbi__info_mainP13stbi__contextPiS1_S1_+0x7c>
      70:	f94002e8 	ldr	x8, [x23]
      74:	b9400508 	ldr	w8, [x8,#4]
      78:	b9000288 	str	w8, [x20]
      7c:	b40000f3 	cbz	x19, 98 <_ZL15stbi__info_mainP13stbi__contextPiS1_S1_+0x98>
      80:	f94002e8 	ldr	x8, [x23]
      84:	b9400908 	ldr	w8, [x8,#8]
      88:	7100091f 	cmp	w8, #0x2
      8c:	320007e8 	orr	w8, wzr, #0x3
      90:	1a9fc508 	csinc	w8, w8, wzr, gt
      94:	b9000268 	str	w8, [x19]
      98:	aa1703e0 	mov	x0, x23
      9c:	94000000 	bl	0 <free>
      a0:	320003e0 	orr	w0, wzr, #0x1
      a4:	f9401728 	ldr	x8, [x25,#40]
      a8:	f9400349 	ldr	x9, [x26]
      ac:	eb09011f 	cmp	x8, x9
      b0:	54009981 	b.ne	13e0 <_ZL15stbi__info_mainP13stbi__contextPiS1_S1_+0x13e0>
      b4:	911143ff 	add	sp, sp, #0x450
      b8:	a9457bfd 	ldp	x29, x30, [sp,#80]
      bc:	a9444ff4 	ldp	x20, x19, [sp,#64]
      c0:	a94357f6 	ldp	x22, x21, [sp,#48]
      c4:	a9425ff8 	ldp	x24, x23, [sp,#32]
      c8:	a94167fa 	ldp	x26, x25, [sp,#16]
      cc:	a8c66ffc 	ldp	x28, x27, [sp],#96
      d0:	d65f03c0 	ret
      d4:	f94002e8 	ldr	x8, [x23]
      d8:	aa1703e0 	mov	x0, x23
      dc:	3ccc8100 	ldur	q0, [x8,#200]
      e0:	3c8b8100 	stur	q0, [x8,#184]
      e4:	94000000 	bl	0 <free>
      e8:	910123e0 	add	x0, sp, #0x48
      ec:	321f03e1 	orr	w1, wzr, #0x2
      f0:	2a1f03e2 	mov	w2, wzr
      f4:	f90027f6 	str	x22, [sp,#72]
      f8:	94000000 	bl	0 <_ZL15stbi__info_mainP13stbi__contextPiS1_S1_>
      fc:	340001c0 	cbz	w0, 134 <_ZL15stbi__info_mainP13stbi__contextPiS1_S1_+0x134>
     100:	b4000095 	cbz	x21, 110 <_ZL15stbi__info_mainP13stbi__contextPiS1_S1_+0x110>
     104:	f94027e8 	ldr	x8, [sp,#72]
     108:	b9400108 	ldr	w8, [x8]
     10c:	b90002a8 	str	w8, [x21]
     110:	b4000094 	cbz	x20, 120 <_ZL15stbi__info_mainP13stbi__contextPiS1_S1_+0x120>
     114:	f94027e8 	ldr	x8, [sp,#72]
     118:	b9400508 	ldr	w8, [x8,#4]
     11c:	b9000288 	str	w8, [x20]
     120:	b4fffc13 	cbz	x19, a0 <_ZL15stbi__info_mainP13stbi__contextPiS1_S1_+0xa0>
     124:	f94027e8 	ldr	x8, [sp,#72]
     128:	b9400908 	ldr	w8, [x8,#8]
     12c:	b9000268 	str	w8, [x19]
     130:	17ffffdc 	b	a0 <_ZL15stbi__info_mainP13stbi__contextPiS1_S1_+0xa0>
     134:	f94027e8 	ldr	x8, [sp,#72]
     138:	52910e00 	mov	w0, #0x8870                	// #34928
     13c:	3ccc8100 	ldur	q0, [x8,#200]
     140:	3c8b8100 	stur	q0, [x8,#184]
     144:	94000000 	bl	0 <malloc>
     148:	aa0003f7 	mov	x23, x0
     14c:	320003e3 	orr	w3, wzr, #0x1
     150:	aa1603e0 	mov	x0, x22
     154:	aa1703e1 	mov	x1, x23
     158:	aa1303e2 	mov	x2, x19
     15c:	94000000 	bl	0 <_ZL15stbi__info_mainP13stbi__contextPiS1_S1_>
     160:	34000100 	cbz	w0, 180 <_ZL15stbi__info_mainP13stbi__contextPiS1_S1_+0x180>
     164:	b4000075 	cbz	x21, 170 <_ZL15stbi__info_mainP13stbi__contextPiS1_S1_+0x170>
     168:	b94002e8 	ldr	w8, [x23]
     16c:	b90002a8 	str	w8, [x21]
     170:	b4fff954 	cbz	x20, 98 <_ZL15stbi__info_mainP13stbi__contextPiS1_S1_+0x98>
     174:	b94006e8 	ldr	w8, [x23,#4]
     178:	b9000288 	str	w8, [x20]
     17c:	17ffffc7 	b	98 <_ZL15stbi__info_mainP13stbi__contextPiS1_S1_+0x98>
     180:	aa1703e0 	mov	x0, x23
     184:	94000000 	bl	0 <free>
     188:	3ccc82c0 	ldur	q0, [x22,#200]
     18c:	32001fe8 	orr	w8, wzr, #0xff
     190:	910123e1 	add	x1, sp, #0x48
     194:	aa1603e0 	mov	x0, x22
     198:	3c8b82c0 	stur	q0, [x22,#184]
     19c:	b90067e8 	str	w8, [sp,#100]
     1a0:	910123f7 	add	x23, sp, #0x48
     1a4:	94000000 	bl	0 <_ZL15stbi__info_mainP13stbi__contextPiS1_S1_>
     1a8:	3ccc82c0 	ldur	q0, [x22,#200]
     1ac:	3c8b82c0 	stur	q0, [x22,#184]
     1b0:	b40001a0 	cbz	x0, 1e4 <_ZL15stbi__info_mainP13stbi__contextPiS1_S1_+0x1e4>
     1b4:	b4000075 	cbz	x21, 1c0 <_ZL15stbi__info_mainP13stbi__contextPiS1_S1_+0x1c0>
     1b8:	b94002c8 	ldr	w8, [x22]
     1bc:	b90002a8 	str	w8, [x21]
     1c0:	b4000074 	cbz	x20, 1cc <_ZL15stbi__info_mainP13stbi__contextPiS1_S1_+0x1cc>
     1c4:	b94006c8 	ldr	w8, [x22,#4]
     1c8:	b9000288 	str	w8, [x20]
     1cc:	b4fff6b3 	cbz	x19, a0 <_ZL15stbi__info_mainP13stbi__contextPiS1_S1_+0xa0>
     1d0:	b94063e8 	ldr	w8, [sp,#96]
     1d4:	7100011f 	cmp	w8, #0x0
     1d8:	320007e8 	orr	w8, wzr, #0x3
     1dc:	1a880508 	cinc	w8, w8, ne
     1e0:	17ffffd3 	b	12c <_ZL15stbi__info_mainP13stbi__contextPiS1_S1_+0x12c>
     1e4:	f10002bf 	cmp	x21, #0x0
     1e8:	9a9502fb 	csel	x27, x23, x21, eq
     1ec:	f100029f 	cmp	x20, #0x0
     1f0:	9a9402fc 	csel	x28, x23, x20, eq
     1f4:	f100027f 	cmp	x19, #0x0
     1f8:	aa1603e0 	mov	x0, x22
     1fc:	9a9302f8 	csel	x24, x23, x19, eq
     200:	94000000 	bl	0 <_ZL15stbi__info_mainP13stbi__contextPiS1_S1_>
     204:	528a0a68 	mov	w8, #0x5053                	// #20563
     208:	72a70848 	movk	w8, #0x3842, lsl #16
     20c:	6b08001f 	cmp	w0, w8
     210:	54001bc1 	b.ne	588 <_ZL15stbi__info_mainP13stbi__contextPiS1_S1_+0x588>
     214:	a94ba2d7 	ldp	x23, x8, [x22,#184]
     218:	eb0802ff 	cmp	x23, x8
     21c:	54000223 	b.cc	260 <_ZL15stbi__info_mainP13stbi__contextPiS1_S1_+0x260>
     220:	b94032c9 	ldr	w9, [x22,#48]
     224:	34000269 	cbz	w9, 270 <_ZL15stbi__info_mainP13stbi__contextPiS1_S1_+0x270>
     228:	f9400ac8 	ldr	x8, [x22,#16]
     22c:	f94016c0 	ldr	x0, [x22,#40]
     230:	b94036c2 	ldr	w2, [x22,#52]
     234:	9100e2d7 	add	x23, x22, #0x38
     238:	aa1703e1 	mov	x1, x23
     23c:	d63f0100 	blr	x8
     240:	34000080 	cbz	w0, 250 <_ZL15stbi__info_mainP13stbi__contextPiS1_S1_+0x250>
     244:	8b20c2c8 	add	x8, x22, w0, sxtw
     248:	9100e108 	add	x8, x8, #0x38
     24c:	14000004 	b	25c <_ZL15stbi__info_mainP13stbi__contextPiS1_S1_+0x25c>
     250:	b90032df 	str	wzr, [x22,#48]
     254:	9100e6c8 	add	x8, x22, #0x39
     258:	3900e2df 	strb	wzr, [x22,#56]
     25c:	a90ba2d7 	stp	x23, x8, [x22,#184]
     260:	910006ea 	add	x10, x23, #0x1
     264:	f9005eca 	str	x10, [x22,#184]
     268:	394002e9 	ldrb	w9, [x23]
     26c:	aa0a03f7 	mov	x23, x10
     270:	eb0802ff 	cmp	x23, x8
     274:	53185d3a 	lsl	w26, w9, #8
     278:	54000223 	b.cc	2bc <_ZL15stbi__info_mainP13stbi__contextPiS1_S1_+0x2bc>
     27c:	b94032c9 	ldr	w9, [x22,#48]
     280:	34000269 	cbz	w9, 2cc <_ZL15stbi__info_mainP13stbi__contextPiS1_S1_+0x2cc>
     284:	f9400ac8 	ldr	x8, [x22,#16]
     288:	f94016c0 	ldr	x0, [x22,#40]
     28c:	b94036c2 	ldr	w2, [x22,#52]
     290:	9100e2d7 	add	x23, x22, #0x38
     294:	aa1703e1 	mov	x1, x23
     298:	d63f0100 	blr	x8
     29c:	34000080 	cbz	w0, 2ac <_ZL15stbi__info_mainP13stbi__contextPiS1_S1_+0x2ac>
     2a0:	8b20c2c8 	add	x8, x22, w0, sxtw
     2a4:	9100e108 	add	x8, x8, #0x38
     2a8:	14000004 	b	2b8 <_ZL15stbi__info_mainP13stbi__contextPiS1_S1_+0x2b8>
     2ac:	b90032df 	str	wzr, [x22,#48]
     2b0:	9100e6c8 	add	x8, x22, #0x39
     2b4:	3900e2df 	strb	wzr, [x22,#56]
     2b8:	a90ba2d7 	stp	x23, x8, [x22,#184]
     2bc:	910006ea 	add	x10, x23, #0x1
     2c0:	f9005eca 	str	x10, [x22,#184]
     2c4:	394002e9 	ldrb	w9, [x23]
     2c8:	aa0a03f7 	mov	x23, x10
     2cc:	2a090349 	orr	w9, w26, w9
     2d0:	7100053f 	cmp	w9, #0x1
     2d4:	540015a1 	b.ne	588 <_ZL15stbi__info_mainP13stbi__contextPiS1_S1_+0x588>
     2d8:	f9400ac9 	ldr	x9, [x22,#16]
     2dc:	b40001c9 	cbz	x9, 314 <_ZL15stbi__info_mainP13stbi__contextPiS1_S1_+0x314>
     2e0:	4b170109 	sub	w9, w8, w23
     2e4:	7100153f 	cmp	w9, #0x5
     2e8:	5400016c 	b.gt	314 <_ZL15stbi__info_mainP13stbi__contextPiS1_S1_+0x314>
     2ec:	f9400eca 	ldr	x10, [x22,#24]
     2f0:	f94016c0 	ldr	x0, [x22,#40]
     2f4:	f9005ec8 	str	x8, [x22,#184]
     2f8:	321f07e8 	orr	w8, wzr, #0x6
     2fc:	4b090101 	sub	w1, w8, w9
     300:	d63f0140 	blr	x10
     304:	a94ba2d7 	ldp	x23, x8, [x22,#184]
     308:	eb0802ff 	cmp	x23, x8
     30c:	540000c2 	b.cs	324 <_ZL15stbi__info_mainP13stbi__contextPiS1_S1_+0x324>
     310:	14000015 	b	364 <_ZL15stbi__info_mainP13stbi__contextPiS1_S1_+0x364>
     314:	91001af7 	add	x23, x23, #0x6
     318:	f9005ed7 	str	x23, [x22,#184]
     31c:	eb0802ff 	cmp	x23, x8
     320:	54000223 	b.cc	364 <_ZL15stbi__info_mainP13stbi__contextPiS1_S1_+0x364>
     324:	b94032c9 	ldr	w9, [x22,#48]
     328:	34000269 	cbz	w9, 374 <_ZL15stbi__info_mainP13stbi__contextPiS1_S1_+0x374>
     32c:	f9400ac8 	ldr	x8, [x22,#16]
     330:	f94016c0 	ldr	x0, [x22,#40]
     334:	b94036c2 	ldr	w2, [x22,#52]
     338:	9100e2d7 	add	x23, x22, #0x38
     33c:	aa1703e1 	mov	x1, x23
     340:	d63f0100 	blr	x8
     344:	34000080 	cbz	w0, 354 <_ZL15stbi__info_mainP13stbi__contextPiS1_S1_+0x354>
     348:	8b20c2c8 	add	x8, x22, w0, sxtw
     34c:	9100e108 	add	x8, x8, #0x38
     350:	14000004 	b	360 <_ZL15stbi__info_mainP13stbi__contextPiS1_S1_+0x360>
     354:	b90032df 	str	wzr, [x22,#48]
     358:	9100e6c8 	add	x8, x22, #0x39
     35c:	3900e2df 	strb	wzr, [x22,#56]
     360:	a90ba2d7 	stp	x23, x8, [x22,#184]
     364:	910006ea 	add	x10, x23, #0x1
     368:	f9005eca 	str	x10, [x22,#184]
     36c:	394002e9 	ldrb	w9, [x23]
     370:	aa0a03f7 	mov	x23, x10
     374:	eb0802ff 	cmp	x23, x8
     378:	53185d3a 	lsl	w26, w9, #8
     37c:	54000223 	b.cc	3c0 <_ZL15stbi__info_mainP13stbi__contextPiS1_S1_+0x3c0>
     380:	b94032c8 	ldr	w8, [x22,#48]
     384:	34000248 	cbz	w8, 3cc <_ZL15stbi__info_mainP13stbi__contextPiS1_S1_+0x3cc>
     388:	f9400ac8 	ldr	x8, [x22,#16]
     38c:	f94016c0 	ldr	x0, [x22,#40]
     390:	b94036c2 	ldr	w2, [x22,#52]
     394:	9100e2d7 	add	x23, x22, #0x38
     398:	aa1703e1 	mov	x1, x23
     39c:	d63f0100 	blr	x8
     3a0:	34000080 	cbz	w0, 3b0 <_ZL15stbi__info_mainP13stbi__contextPiS1_S1_+0x3b0>
     3a4:	8b20c2c8 	add	x8, x22, w0, sxtw
     3a8:	9100e108 	add	x8, x8, #0x38
     3ac:	14000004 	b	3bc <_ZL15stbi__info_mainP13stbi__contextPiS1_S1_+0x3bc>
     3b0:	b90032df 	str	wzr, [x22,#48]
     3b4:	9100e6c8 	add	x8, x22, #0x39
     3b8:	3900e2df 	strb	wzr, [x22,#56]
     3bc:	a90ba2d7 	stp	x23, x8, [x22,#184]
     3c0:	910006e8 	add	x8, x23, #0x1
     3c4:	f9005ec8 	str	x8, [x22,#184]
     3c8:	394002e8 	ldrb	w8, [x23]
     3cc:	2a080348 	orr	w8, w26, w8
     3d0:	7100411f 	cmp	w8, #0x10
     3d4:	54000da8 	b.hi	588 <_ZL15stbi__info_mainP13stbi__contextPiS1_S1_+0x588>
     3d8:	aa1603e0 	mov	x0, x22
     3dc:	94000000 	bl	0 <_ZL15stbi__info_mainP13stbi__contextPiS1_S1_>
     3e0:	b9000380 	str	w0, [x28]
     3e4:	aa1603e0 	mov	x0, x22
     3e8:	94000000 	bl	0 <_ZL15stbi__info_mainP13stbi__contextPiS1_S1_>
     3ec:	b9000360 	str	w0, [x27]
     3f0:	a94ba2d7 	ldp	x23, x8, [x22,#184]
     3f4:	eb0802ff 	cmp	x23, x8
     3f8:	54000223 	b.cc	43c <_ZL15stbi__info_mainP13stbi__contextPiS1_S1_+0x43c>
     3fc:	b94032c9 	ldr	w9, [x22,#48]
     400:	34000269 	cbz	w9, 44c <_ZL15stbi__info_mainP13stbi__contextPiS1_S1_+0x44c>
     404:	f9400ac8 	ldr	x8, [x22,#16]
     408:	f94016c0 	ldr	x0, [x22,#40]
     40c:	b94036c2 	ldr	w2, [x22,#52]
     410:	9100e2d7 	add	x23, x22, #0x38
     414:	aa1703e1 	mov	x1, x23
     418:	d63f0100 	blr	x8
     41c:	34000080 	cbz	w0, 42c <_ZL15stbi__info_mainP13stbi__contextPiS1_S1_+0x42c>
     420:	8b20c2c8 	add	x8, x22, w0, sxtw
     424:	9100e108 	add	x8, x8, #0x38
     428:	14000004 	b	438 <_ZL15stbi__info_mainP13stbi__contextPiS1_S1_+0x438>
     42c:	b90032df 	str	wzr, [x22,#48]
     430:	9100e6c8 	add	x8, x22, #0x39
     434:	3900e2df 	strb	wzr, [x22,#56]
     438:	a90ba2d7 	stp	x23, x8, [x22,#184]
     43c:	910006ea 	add	x10, x23, #0x1
     440:	f9005eca 	str	x10, [x22,#184]
     444:	394002e9 	ldrb	w9, [x23]
     448:	aa0a03f7 	mov	x23, x10
     44c:	eb0802ff 	cmp	x23, x8
     450:	53185d3a 	lsl	w26, w9, #8
     454:	54000223 	b.cc	498 <_ZL15stbi__info_mainP13stbi__contextPiS1_S1_+0x498>
     458:	b94032c9 	ldr	w9, [x22,#48]
     45c:	34000269 	cbz	w9, 4a8 <_ZL15stbi__info_mainP13stbi__contextPiS1_S1_+0x4a8>
     460:	f9400ac8 	ldr	x8, [x22,#16]
     464:	f94016c0 	ldr	x0, [x22,#40]
     468:	b94036c2 	ldr	w2, [x22,#52]
     46c:	9100e2d7 	add	x23, x22, #0x38
     470:	aa1703e1 	mov	x1, x23
     474:	d63f0100 	blr	x8
     478:	34000080 	cbz	w0, 488 <_ZL15stbi__info_mainP13stbi__contextPiS1_S1_+0x488>
     47c:	8b20c2c8 	add	x8, x22, w0, sxtw
     480:	9100e108 	add	x8, x8, #0x38
     484:	14000004 	b	494 <_ZL15stbi__info_mainP13stbi__contextPiS1_S1_+0x494>
     488:	b90032df 	str	wzr, [x22,#48]
     48c:	9100e6c8 	add	x8, x22, #0x39
     490:	3900e2df 	strb	wzr, [x22,#56]
     494:	a90ba2d7 	stp	x23, x8, [x22,#184]
     498:	910006ea 	add	x10, x23, #0x1
     49c:	f9005eca 	str	x10, [x22,#184]
     4a0:	394002e9 	ldrb	w9, [x23]
     4a4:	aa0a03f7 	mov	x23, x10
     4a8:	2a090349 	orr	w9, w26, w9
     4ac:	7100413f 	cmp	w9, #0x10
     4b0:	54000060 	b.eq	4bc <_ZL15stbi__info_mainP13stbi__contextPiS1_S1_+0x4bc>
     4b4:	7100213f 	cmp	w9, #0x8
     4b8:	54000681 	b.ne	588 <_ZL15stbi__info_mainP13stbi__contextPiS1_S1_+0x588>
     4bc:	eb0802ff 	cmp	x23, x8
     4c0:	54000223 	b.cc	504 <_ZL15stbi__info_mainP13stbi__contextPiS1_S1_+0x504>
     4c4:	b94032c9 	ldr	w9, [x22,#48]
     4c8:	34000269 	cbz	w9, 514 <_ZL15stbi__info_mainP13stbi__contextPiS1_S1_+0x514>
     4cc:	f9400ac8 	ldr	x8, [x22,#16]
     4d0:	f94016c0 	ldr	x0, [x22,#40]
     4d4:	b94036c2 	ldr	w2, [x22,#52]
     4d8:	9100e2d7 	add	x23, x22, #0x38
     4dc:	aa1703e1 	mov	x1, x23
     4e0:	d63f0100 	blr	x8
     4e4:	34000080 	cbz	w0, 4f4 <_ZL15stbi__info_mainP13stbi__contextPiS1_S1_+0x4f4>
     4e8:	8b20c2c8 	add	x8, x22, w0, sxtw
     4ec:	9100e108 	add	x8, x8, #0x38
     4f0:	14000004 	b	500 <_ZL15stbi__info_mainP13stbi__contextPiS1_S1_+0x500>
     4f4:	b90032df 	str	wzr, [x22,#48]
     4f8:	9100e6c8 	add	x8, x22, #0x39
     4fc:	3900e2df 	strb	wzr, [x22,#56]
     500:	a90ba2d7 	stp	x23, x8, [x22,#184]
     504:	910006ea 	add	x10, x23, #0x1
     508:	f9005eca 	str	x10, [x22,#184]
     50c:	394002e9 	ldrb	w9, [x23]
     510:	aa0a03f7 	mov	x23, x10
     514:	eb0802ff 	cmp	x23, x8
     518:	53185d3a 	lsl	w26, w9, #8
     51c:	54000223 	b.cc	560 <_ZL15stbi__info_mainP13stbi__contextPiS1_S1_+0x560>
     520:	b94032c8 	ldr	w8, [x22,#48]
     524:	34000248 	cbz	w8, 56c <_ZL15stbi__info_mainP13stbi__contextPiS1_S1_+0x56c>
     528:	f9400ac8 	ldr	x8, [x22,#16]
     52c:	f94016c0 	ldr	x0, [x22,#40]
     530:	b94036c2 	ldr	w2, [x22,#52]
     534:	9100e2d7 	add	x23, x22, #0x38
     538:	aa1703e1 	mov	x1, x23
     53c:	d63f0100 	blr	x8
     540:	34000080 	cbz	w0, 550 <_ZL15stbi__info_mainP13stbi__contextPiS1_S1_+0x550>
     544:	8b20c2c8 	add	x8, x22, w0, sxtw
     548:	9100e108 	add	x8, x8, #0x38
     54c:	14000004 	b	55c <_ZL15stbi__info_mainP13stbi__contextPiS1_S1_+0x55c>
     550:	b90032df 	str	wzr, [x22,#48]
     554:	9100e6c8 	add	x8, x22, #0x39
     558:	3900e2df 	strb	wzr, [x22,#56]
     55c:	a90ba2d7 	stp	x23, x8, [x22,#184]
     560:	910006e8 	add	x8, x23, #0x1
     564:	f9005ec8 	str	x8, [x22,#184]
     568:	394002e8 	ldrb	w8, [x23]
     56c:	2a080348 	orr	w8, w26, w8
     570:	71000d1f 	cmp	w8, #0x3
     574:	540000a1 	b.ne	588 <_ZL15stbi__info_mainP13stbi__contextPiS1_S1_+0x588>
     578:	321e03e8 	orr	w8, wzr, #0x4
     57c:	b9000308 	str	w8, [x24]
     580:	320003e0 	orr	w0, wzr, #0x1
     584:	14000386 	b	139c <_ZL15stbi__info_mainP13stbi__contextPiS1_S1_+0x139c>
     588:	3ccc82c0 	ldur	q0, [x22,#200]
     58c:	f10002bf 	cmp	x21, #0x0
     590:	910123e8 	add	x8, sp, #0x48
     594:	9a95011c 	csel	x28, x8, x21, eq
     598:	f100029f 	cmp	x20, #0x0
     59c:	9a94011b 	csel	x27, x8, x20, eq
     5a0:	f100027f 	cmp	x19, #0x0
     5a4:	90000001 	adrp	x1, 0 <_ZL15stbi__info_mainP13stbi__contextPiS1_S1_>
     5a8:	9a930108 	csel	x8, x8, x19, eq
     5ac:	91000021 	add	x1, x1, #0x0
     5b0:	aa1603e0 	mov	x0, x22
     5b4:	3c8b82c0 	stur	q0, [x22,#184]
     5b8:	f9000fe8 	str	x8, [sp,#24]
     5bc:	94000000 	bl	0 <_ZL15stbi__info_mainP13stbi__contextPiS1_S1_>
     5c0:	34002240 	cbz	w0, a08 <_ZL15stbi__info_mainP13stbi__contextPiS1_S1_+0xa08>
     5c4:	f9400ac8 	ldr	x8, [x22,#16]
     5c8:	b40001a8 	cbz	x8, 5fc <_ZL15stbi__info_mainP13stbi__contextPiS1_S1_+0x5fc>
     5cc:	a94ba6c8 	ldp	x8, x9, [x22,#184]
     5d0:	4b08012a 	sub	w10, w9, w8
     5d4:	71015d5f 	cmp	w10, #0x57
     5d8:	5400014c 	b.gt	600 <_ZL15stbi__info_mainP13stbi__contextPiS1_S1_+0x600>
     5dc:	f9400ec8 	ldr	x8, [x22,#24]
     5e0:	f94016c0 	ldr	x0, [x22,#40]
     5e4:	f9005ec9 	str	x9, [x22,#184]
     5e8:	52800b09 	mov	w9, #0x58                  	// #88
     5ec:	4b0a0121 	sub	w1, w9, w10
     5f0:	d63f0100 	blr	x8
     5f4:	f9405ed7 	ldr	x23, [x22,#184]
     5f8:	14000004 	b	608 <_ZL15stbi__info_mainP13stbi__contextPiS1_S1_+0x608>
     5fc:	f9405ec8 	ldr	x8, [x22,#184]
     600:	91016117 	add	x23, x8, #0x58
     604:	f9005ed7 	str	x23, [x22,#184]
     608:	f94062c8 	ldr	x8, [x22,#192]
     60c:	eb0802ff 	cmp	x23, x8
     610:	54000223 	b.cc	654 <_ZL15stbi__info_mainP13stbi__contextPiS1_S1_+0x654>
     614:	b94032c9 	ldr	w9, [x22,#48]
     618:	34000269 	cbz	w9, 664 <_ZL15stbi__info_mainP13stbi__contextPiS1_S1_+0x664>
     61c:	f9400ac8 	ldr	x8, [x22,#16]
     620:	f94016c0 	ldr	x0, [x22,#40]
     624:	b94036c2 	ldr	w2, [x22,#52]
     628:	9100e2d7 	add	x23, x22, #0x38
     62c:	aa1703e1 	mov	x1, x23
     630:	d63f0100 	blr	x8
     634:	34000080 	cbz	w0, 644 <_ZL15stbi__info_mainP13stbi__contextPiS1_S1_+0x644>
     638:	8b20c2c8 	add	x8, x22, w0, sxtw
     63c:	9100e108 	add	x8, x8, #0x38
     640:	14000004 	b	650 <_ZL15stbi__info_mainP13stbi__contextPiS1_S1_+0x650>
     644:	b90032df 	str	wzr, [x22,#48]
     648:	9100e6c8 	add	x8, x22, #0x39
     64c:	3900e2df 	strb	wzr, [x22,#56]
     650:	a90ba2d7 	stp	x23, x8, [x22,#184]
     654:	910006ea 	add	x10, x23, #0x1
     658:	f9005eca 	str	x10, [x22,#184]
     65c:	394002e9 	ldrb	w9, [x23]
     660:	aa0a03f7 	mov	x23, x10
     664:	eb0802ff 	cmp	x23, x8
     668:	53185d38 	lsl	w24, w9, #8
     66c:	54000223 	b.cc	6b0 <_ZL15stbi__info_mainP13stbi__contextPiS1_S1_+0x6b0>
     670:	b94032c9 	ldr	w9, [x22,#48]
     674:	34000269 	cbz	w9, 6c0 <_ZL15stbi__info_mainP13stbi__contextPiS1_S1_+0x6c0>
     678:	f9400ac8 	ldr	x8, [x22,#16]
     67c:	f94016c0 	ldr	x0, [x22,#40]
     680:	b94036c2 	ldr	w2, [x22,#52]
     684:	9100e2d7 	add	x23, x22, #0x38
     688:	aa1703e1 	mov	x1, x23
     68c:	d63f0100 	blr	x8
     690:	34000080 	cbz	w0, 6a0 <_ZL15stbi__info_mainP13stbi__contextPiS1_S1_+0x6a0>
     694:	8b20c2c8 	add	x8, x22, w0, sxtw
     698:	9100e108 	add	x8, x8, #0x38
     69c:	14000004 	b	6ac <_ZL15stbi__info_mainP13stbi__contextPiS1_S1_+0x6ac>
     6a0:	b90032df 	str	wzr, [x22,#48]
     6a4:	9100e6c8 	add	x8, x22, #0x39
     6a8:	3900e2df 	strb	wzr, [x22,#56]
     6ac:	a90ba2d7 	stp	x23, x8, [x22,#184]
     6b0:	910006ea 	add	x10, x23, #0x1
     6b4:	f9005eca 	str	x10, [x22,#184]
     6b8:	394002e9 	ldrb	w9, [x23]
     6bc:	aa0a03f7 	mov	x23, x10
     6c0:	2a090309 	orr	w9, w24, w9
     6c4:	eb0802ff 	cmp	x23, x8
     6c8:	b9000389 	str	w9, [x28]
     6cc:	54000223 	b.cc	710 <_ZL15stbi__info_mainP13stbi__contextPiS1_S1_+0x710>
     6d0:	b94032c9 	ldr	w9, [x22,#48]
     6d4:	34000269 	cbz	w9, 720 <_ZL15stbi__info_mainP13stbi__contextPiS1_S1_+0x720>
     6d8:	f9400ac8 	ldr	x8, [x22,#16]
     6dc:	f94016c0 	ldr	x0, [x22,#40]
     6e0:	b94036c2 	ldr	w2, [x22,#52]
     6e4:	9100e2d7 	add	x23, x22, #0x38
     6e8:	aa1703e1 	mov	x1, x23
     6ec:	d63f0100 	blr	x8
     6f0:	34000080 	cbz	w0, 700 <_ZL15stbi__info_mainP13stbi__contextPiS1_S1_+0x700>
     6f4:	8b20c2c8 	add	x8, x22, w0, sxtw
     6f8:	9100e108 	add	x8, x8, #0x38
     6fc:	14000004 	b	70c <_ZL15stbi__info_mainP13stbi__contextPiS1_S1_+0x70c>
     700:	b90032df 	str	wzr, [x22,#48]
     704:	9100e6c8 	add	x8, x22, #0x39
     708:	3900e2df 	strb	wzr, [x22,#56]
     70c:	a90ba2d7 	stp	x23, x8, [x22,#184]
     710:	910006ea 	add	x10, x23, #0x1
     714:	f9005eca 	str	x10, [x22,#184]
     718:	394002e9 	ldrb	w9, [x23]
     71c:	aa0a03f7 	mov	x23, x10
     720:	eb0802ff 	cmp	x23, x8
     724:	53185d38 	lsl	w24, w9, #8
     728:	54000223 	b.cc	76c <_ZL15stbi__info_mainP13stbi__contextPiS1_S1_+0x76c>
     72c:	b94032c9 	ldr	w9, [x22,#48]
     730:	34000269 	cbz	w9, 77c <_ZL15stbi__info_mainP13stbi__contextPiS1_S1_+0x77c>
     734:	f9400ac8 	ldr	x8, [x22,#16]
     738:	f94016c0 	ldr	x0, [x22,#40]
     73c:	b94036c2 	ldr	w2, [x22,#52]
     740:	9100e2d7 	add	x23, x22, #0x38
     744:	aa1703e1 	mov	x1, x23
     748:	d63f0100 	blr	x8
     74c:	34000080 	cbz	w0, 75c <_ZL15stbi__info_mainP13stbi__contextPiS1_S1_+0x75c>
     750:	8b20c2c8 	add	x8, x22, w0, sxtw
     754:	9100e108 	add	x8, x8, #0x38
     758:	14000004 	b	768 <_ZL15stbi__info_mainP13stbi__contextPiS1_S1_+0x768>
     75c:	b90032df 	str	wzr, [x22,#48]
     760:	9100e6c8 	add	x8, x22, #0x39
     764:	3900e2df 	strb	wzr, [x22,#56]
     768:	a90ba2d7 	stp	x23, x8, [x22,#184]
     76c:	910006ea 	add	x10, x23, #0x1
     770:	f9005eca 	str	x10, [x22,#184]
     774:	394002e9 	ldrb	w9, [x23]
     778:	aa0a03f7 	mov	x23, x10
     77c:	2a090309 	orr	w9, w24, w9
     780:	b9000369 	str	w9, [x27]
     784:	f9400ac9 	ldr	x9, [x22,#16]
     788:	b40000e9 	cbz	x9, 7a4 <_ZL15stbi__info_mainP13stbi__contextPiS1_S1_+0x7a4>
     78c:	a94202c8 	ldp	x8, x0, [x22,#32]
     790:	d63f0100 	blr	x8
     794:	340000c0 	cbz	w0, 7ac <_ZL15stbi__info_mainP13stbi__contextPiS1_S1_+0x7ac>
     798:	b94032c8 	ldr	w8, [x22,#48]
     79c:	34001368 	cbz	w8, a08 <_ZL15stbi__info_mainP13stbi__contextPiS1_S1_+0xa08>
     7a0:	a94ba2d7 	ldp	x23, x8, [x22,#184]
     7a4:	eb0802ff 	cmp	x23, x8
     7a8:	54001302 	b.cs	a08 <_ZL15stbi__info_mainP13stbi__contextPiS1_S1_+0xa08>
     7ac:	b9400388 	ldr	w8, [x28]
     7b0:	340000c8 	cbz	w8, 7c8 <_ZL15stbi__info_mainP13stbi__contextPiS1_S1_+0x7c8>
     7b4:	b9400369 	ldr	w9, [x27]
     7b8:	320403ea 	orr	w10, wzr, #0x10000000
     7bc:	1ac80d48 	sdiv	w8, w10, w8
     7c0:	6b09011f 	cmp	w8, w9
     7c4:	5400122b 	b.lt	a08 <_ZL15stbi__info_mainP13stbi__contextPiS1_S1_+0xa08>
     7c8:	f9400ac8 	ldr	x8, [x22,#16]
     7cc:	b4000188 	cbz	x8, 7fc <_ZL15stbi__info_mainP13stbi__contextPiS1_S1_+0x7fc>
     7d0:	a94ba6c8 	ldp	x8, x9, [x22,#184]
     7d4:	4b08012a 	sub	w10, w9, w8
     7d8:	71001d5f 	cmp	w10, #0x7
     7dc:	5400012c 	b.gt	800 <_ZL15stbi__info_mainP13stbi__contextPiS1_S1_+0x800>
     7e0:	f9400ec8 	ldr	x8, [x22,#24]
     7e4:	f94016c0 	ldr	x0, [x22,#40]
     7e8:	f9005ec9 	str	x9, [x22,#184]
     7ec:	321d03e9 	orr	w9, wzr, #0x8
     7f0:	4b0a0121 	sub	w1, w9, w10
     7f4:	d63f0100 	blr	x8
     7f8:	14000004 	b	808 <_ZL15stbi__info_mainP13stbi__contextPiS1_S1_+0x808>
     7fc:	f9405ec8 	ldr	x8, [x22,#184]
     800:	91002108 	add	x8, x8, #0x8
     804:	f9005ec8 	str	x8, [x22,#184]
     808:	2a1f03fb 	mov	w27, wzr
     80c:	9100e2d7 	add	x23, x22, #0x38
     810:	9100e6c8 	add	x8, x22, #0x39
     814:	52800178 	mov	w24, #0xb                   	// #11
     818:	f90013e8 	str	x8, [sp,#32]
     81c:	d1000718 	sub	x24, x24, #0x1
     820:	b4000f98 	cbz	x24, a10 <_ZL15stbi__info_mainP13stbi__contextPiS1_S1_+0xa10>
     824:	a94ba2c9 	ldp	x9, x8, [x22,#184]
     828:	eb08013f 	cmp	x9, x8
     82c:	540002a3 	b.cc	880 <_ZL15stbi__info_mainP13stbi__contextPiS1_S1_+0x880>
     830:	b94032ca 	ldr	w10, [x22,#48]
     834:	3400014a 	cbz	w10, 85c <_ZL15stbi__info_mainP13stbi__contextPiS1_S1_+0x85c>
     838:	f9400ac8 	ldr	x8, [x22,#16]
     83c:	f94016c0 	ldr	x0, [x22,#40]
     840:	b94036c2 	ldr	w2, [x22,#52]
     844:	aa1703e1 	mov	x1, x23
     848:	d63f0100 	blr	x8
     84c:	34000100 	cbz	w0, 86c <_ZL15stbi__info_mainP13stbi__contextPiS1_S1_+0x86c>
     850:	8b20c2c8 	add	x8, x22, w0, sxtw
     854:	9100e108 	add	x8, x8, #0x38
     858:	14000008 	b	878 <_ZL15stbi__info_mainP13stbi__contextPiS1_S1_+0x878>
     85c:	b9002bff 	str	wzr, [sp,#40]
     860:	eb08013f 	cmp	x9, x8
     864:	540001c2 	b.cs	89c <_ZL15stbi__info_mainP13stbi__contextPiS1_S1_+0x89c>
     868:	14000021 	b	8ec <_ZL15stbi__info_mainP13stbi__contextPiS1_S1_+0x8ec>
     86c:	b90032df 	str	wzr, [x22,#48]
     870:	3900e2df 	strb	wzr, [x22,#56]
     874:	f94013e8 	ldr	x8, [sp,#32]
     878:	aa1703e9 	mov	x9, x23
     87c:	a90ba2d7 	stp	x23, x8, [x22,#184]
     880:	9100052a 	add	x10, x9, #0x1
     884:	f9005eca 	str	x10, [x22,#184]
     888:	39400129 	ldrb	w9, [x9]
     88c:	b9002be9 	str	w9, [sp,#40]
     890:	aa0a03e9 	mov	x9, x10
     894:	eb08013f 	cmp	x9, x8
     898:	540002a3 	b.cc	8ec <_ZL15stbi__info_mainP13stbi__contextPiS1_S1_+0x8ec>
     89c:	b94032ca 	ldr	w10, [x22,#48]
     8a0:	3400014a 	cbz	w10, 8c8 <_ZL15stbi__info_mainP13stbi__contextPiS1_S1_+0x8c8>
     8a4:	f9400ac8 	ldr	x8, [x22,#16]
     8a8:	f94016c0 	ldr	x0, [x22,#40]
     8ac:	b94036c2 	ldr	w2, [x22,#52]
     8b0:	aa1703e1 	mov	x1, x23
     8b4:	d63f0100 	blr	x8
     8b8:	34000100 	cbz	w0, 8d8 <_ZL15stbi__info_mainP13stbi__contextPiS1_S1_+0x8d8>
     8bc:	8b20c2c8 	add	x8, x22, w0, sxtw
     8c0:	9100e108 	add	x8, x8, #0x38
     8c4:	14000008 	b	8e4 <_ZL15stbi__info_mainP13stbi__contextPiS1_S1_+0x8e4>
     8c8:	2a1f03fc 	mov	w28, wzr
     8cc:	eb08013f 	cmp	x9, x8
     8d0:	540001a2 	b.cs	904 <_ZL15stbi__info_mainP13stbi__contextPiS1_S1_+0x904>
     8d4:	1400001c 	b	944 <_ZL15stbi__info_mainP13stbi__contextPiS1_S1_+0x944>
     8d8:	b90032df 	str	wzr, [x22,#48]
     8dc:	3900e2df 	strb	wzr, [x22,#56]
     8e0:	f94013e8 	ldr	x8, [sp,#32]
     8e4:	aa1703e9 	mov	x9, x23
     8e8:	a90ba2d7 	stp	x23, x8, [x22,#184]
     8ec:	9100052a 	add	x10, x9, #0x1
     8f0:	f9005eca 	str	x10, [x22,#184]
     8f4:	3940013c 	ldrb	w28, [x9]
     8f8:	aa0a03e9 	mov	x9, x10
     8fc:	eb08013f 	cmp	x9, x8
     900:	54000223 	b.cc	944 <_ZL15stbi__info_mainP13stbi__contextPiS1_S1_+0x944>
     904:	b94032ca 	ldr	w10, [x22,#48]
     908:	3400022a 	cbz	w10, 94c <_ZL15stbi__info_mainP13stbi__contextPiS1_S1_+0x94c>
     90c:	f9400ac8 	ldr	x8, [x22,#16]
     910:	f94016c0 	ldr	x0, [x22,#40]
     914:	b94036c2 	ldr	w2, [x22,#52]
     918:	aa1703e1 	mov	x1, x23
     91c:	d63f0100 	blr	x8
     920:	34000080 	cbz	w0, 930 <_ZL15stbi__info_mainP13stbi__contextPiS1_S1_+0x930>
     924:	8b20c2c8 	add	x8, x22, w0, sxtw
     928:	9100e108 	add	x8, x8, #0x38
     92c:	14000004 	b	93c <_ZL15stbi__info_mainP13stbi__contextPiS1_S1_+0x93c>
     930:	b90032df 	str	wzr, [x22,#48]
     934:	3900e2df 	strb	wzr, [x22,#56]
     938:	f94013e8 	ldr	x8, [sp,#32]
     93c:	aa1703e9 	mov	x9, x23
     940:	a90ba2d7 	stp	x23, x8, [x22,#184]
     944:	91000529 	add	x9, x9, #0x1
     948:	f9005ec9 	str	x9, [x22,#184]
     94c:	eb08013f 	cmp	x9, x8
     950:	540002a3 	b.cc	9a4 <_ZL15stbi__info_mainP13stbi__contextPiS1_S1_+0x9a4>
     954:	b94032ca 	ldr	w10, [x22,#48]
     958:	3400014a 	cbz	w10, 980 <_ZL15stbi__info_mainP13stbi__contextPiS1_S1_+0x980>
     95c:	f9400ac8 	ldr	x8, [x22,#16]
     960:	f94016c0 	ldr	x0, [x22,#40]
     964:	b94036c2 	ldr	w2, [x22,#52]
     968:	aa1703e1 	mov	x1, x23
     96c:	d63f0100 	blr	x8
     970:	34000100 	cbz	w0, 990 <_ZL15stbi__info_mainP13stbi__contextPiS1_S1_+0x990>
     974:	8b20c2c8 	add	x8, x22, w0, sxtw
     978:	9100e108 	add	x8, x8, #0x38
     97c:	14000008 	b	99c <_ZL15stbi__info_mainP13stbi__contextPiS1_S1_+0x99c>
     980:	2a1f03fa 	mov	w26, wzr
     984:	f9400aca 	ldr	x10, [x22,#16]
     988:	b50001aa 	cbnz	x10, 9bc <_ZL15stbi__info_mainP13stbi__contextPiS1_S1_+0x9bc>
     98c:	14000012 	b	9d4 <_ZL15stbi__info_mainP13stbi__contextPiS1_S1_+0x9d4>
     990:	b90032df 	str	wzr, [x22,#48]
     994:	3900e2df 	strb	wzr, [x22,#56]
     998:	f94013e8 	ldr	x8, [sp,#32]
     99c:	aa1703e9 	mov	x9, x23
     9a0:	a90ba2d7 	stp	x23, x8, [x22,#184]
     9a4:	9100052a 	add	x10, x9, #0x1
     9a8:	f9005eca 	str	x10, [x22,#184]
     9ac:	3940013a 	ldrb	w26, [x9]
     9b0:	aa0a03e9 	mov	x9, x10
     9b4:	f9400aca 	ldr	x10, [x22,#16]
     9b8:	b40000ea 	cbz	x10, 9d4 <_ZL15stbi__info_mainP13stbi__contextPiS1_S1_+0x9d4>
     9bc:	a94202c8 	ldp	x8, x0, [x22,#32]
     9c0:	d63f0100 	blr	x8
     9c4:	340000c0 	cbz	w0, 9dc <_ZL15stbi__info_mainP13stbi__contextPiS1_S1_+0x9dc>
     9c8:	b94032c8 	ldr	w8, [x22,#48]
     9cc:	340001e8 	cbz	w8, a08 <_ZL15stbi__info_mainP13stbi__contextPiS1_S1_+0xa08>
     9d0:	a94ba2c9 	ldp	x9, x8, [x22,#184]
     9d4:	eb08013f 	cmp	x9, x8
     9d8:	54000182 	b.cs	a08 <_ZL15stbi__info_mainP13stbi__contextPiS1_S1_+0xa08>
     9dc:	7100239f 	cmp	w28, #0x8
     9e0:	54000141 	b.ne	a08 <_ZL15stbi__info_mainP13stbi__contextPiS1_S1_+0xa08>
     9e4:	b9402be8 	ldr	w8, [sp,#40]
     9e8:	2a1a037b 	orr	w27, w27, w26
     9ec:	35fff188 	cbnz	w8, 81c <_ZL15stbi__info_mainP13stbi__contextPiS1_S1_+0x81c>
     9f0:	f9400fe9 	ldr	x9, [sp,#24]
     9f4:	53041368 	ubfx	w8, w27, #4, #1
     9f8:	11000d08 	add	w8, w8, #0x3
     9fc:	320003e0 	orr	w0, wzr, #0x1
     a00:	b9000128 	str	w8, [x9]
     a04:	14000266 	b	139c <_ZL15stbi__info_mainP13stbi__contextPiS1_S1_+0x139c>
     a08:	3ccc82c0 	ldur	q0, [x22,#200]
     a0c:	3c8b82c0 	stur	q0, [x22,#184]
     a10:	aa1603e0 	mov	x0, x22
     a14:	aa1503e1 	mov	x1, x21
     a18:	aa1403e2 	mov	x2, x20
     a1c:	aa1303e3 	mov	x3, x19
     a20:	94000000 	bl	0 <_ZL15stbi__info_mainP13stbi__contextPiS1_S1_>
     a24:	34000060 	cbz	w0, a30 <_ZL15stbi__info_mainP13stbi__contextPiS1_S1_+0xa30>
     a28:	320003e0 	orr	w0, wzr, #0x1
     a2c:	1400025c 	b	139c <_ZL15stbi__info_mainP13stbi__contextPiS1_S1_+0x139c>
     a30:	f10002bf 	cmp	x21, #0x0
     a34:	9100f3e8 	add	x8, sp, #0x3c
     a38:	9a950117 	csel	x23, x8, x21, eq
     a3c:	f100029f 	cmp	x20, #0x0
     a40:	9a94011a 	csel	x26, x8, x20, eq
     a44:	f100027f 	cmp	x19, #0x0
     a48:	aa1603e0 	mov	x0, x22
     a4c:	9a930118 	csel	x24, x8, x19, eq
     a50:	94000000 	bl	0 <_ZL15stbi__info_mainP13stbi__contextPiS1_S1_>
     a54:	34001cc0 	cbz	w0, dec <_ZL15stbi__info_mainP13stbi__contextPiS1_S1_+0xdec>
     a58:	a901ebf7 	stp	x23, x26, [sp,#24]
     a5c:	f9000bf8 	str	x24, [sp,#16]
     a60:	2a1f03fb 	mov	w27, wzr
     a64:	9100e2d7 	add	x23, x22, #0x38
     a68:	9100e6c8 	add	x8, x22, #0x39
     a6c:	910123f8 	add	x24, sp, #0x48
     a70:	f90017e8 	str	x8, [sp,#40]
     a74:	1400000b 	b	aa0 <_ZL15stbi__info_mainP13stbi__contextPiS1_S1_+0xaa0>
     a78:	320027fa 	orr	w26, wzr, #0x3ff
     a7c:	383a6b1f 	strb	wzr, [x24,x26]
     a80:	394123e8 	ldrb	w8, [sp,#72]
     a84:	34000c08 	cbz	w8, c04 <_ZL15stbi__info_mainP13stbi__contextPiS1_S1_+0xc04>
     a88:	90000001 	adrp	x1, 0 <_ZL15stbi__info_mainP13stbi__contextPiS1_S1_>
     a8c:	910123e0 	add	x0, sp, #0x48
     a90:	91000021 	add	x1, x1, #0x0
     a94:	94000000 	bl	0 <strcmp>
     a98:	7100001f 	cmp	w0, #0x0
     a9c:	1a9f177b 	csinc	w27, w27, wzr, ne
     aa0:	aa1f03fa 	mov	x26, xzr
     aa4:	a94ba2c9 	ldp	x9, x8, [x22,#184]
     aa8:	eb08013f 	cmp	x9, x8
     aac:	540002a3 	b.cc	b00 <_ZL15stbi__info_mainP13stbi__contextPiS1_S1_+0xb00>
     ab0:	b94032ca 	ldr	w10, [x22,#48]
     ab4:	3400014a 	cbz	w10, adc <_ZL15stbi__info_mainP13stbi__contextPiS1_S1_+0xadc>
     ab8:	f9400ac8 	ldr	x8, [x22,#16]
     abc:	f94016c0 	ldr	x0, [x22,#40]
     ac0:	b94036c2 	ldr	w2, [x22,#52]
     ac4:	aa1703e1 	mov	x1, x23
     ac8:	d63f0100 	blr	x8
     acc:	34000100 	cbz	w0, aec <_ZL15stbi__info_mainP13stbi__contextPiS1_S1_+0xaec>
     ad0:	8b20c2c8 	add	x8, x22, w0, sxtw
     ad4:	9100e108 	add	x8, x8, #0x38
     ad8:	14000008 	b	af8 <_ZL15stbi__info_mainP13stbi__contextPiS1_S1_+0xaf8>
     adc:	2a1f03fc 	mov	w28, wzr
     ae0:	f9400aca 	ldr	x10, [x22,#16]
     ae4:	b50001aa 	cbnz	x10, b18 <_ZL15stbi__info_mainP13stbi__contextPiS1_S1_+0xb18>
     ae8:	14000012 	b	b30 <_ZL15stbi__info_mainP13stbi__contextPiS1_S1_+0xb30>
     aec:	b90032df 	str	wzr, [x22,#48]
     af0:	3900e2df 	strb	wzr, [x22,#56]
     af4:	f94017e8 	ldr	x8, [sp,#40]
     af8:	aa1703e9 	mov	x9, x23
     afc:	a90ba2d7 	stp	x23, x8, [x22,#184]
     b00:	9100052a 	add	x10, x9, #0x1
     b04:	f9005eca 	str	x10, [x22,#184]
     b08:	3940013c 	ldrb	w28, [x9]
     b0c:	aa0a03e9 	mov	x9, x10
     b10:	f9400aca 	ldr	x10, [x22,#16]
     b14:	b40000ea 	cbz	x10, b30 <_ZL15stbi__info_mainP13stbi__contextPiS1_S1_+0xb30>
     b18:	a94202c8 	ldp	x8, x0, [x22,#32]
     b1c:	d63f0100 	blr	x8
     b20:	340001e0 	cbz	w0, b5c <_ZL15stbi__info_mainP13stbi__contextPiS1_S1_+0xb5c>
     b24:	b94032c8 	ldr	w8, [x22,#48]
     b28:	34fffaa8 	cbz	w8, a7c <_ZL15stbi__info_mainP13stbi__contextPiS1_S1_+0xa7c>
     b2c:	a94ba2c9 	ldp	x9, x8, [x22,#184]
     b30:	eb08013f 	cmp	x9, x8
     b34:	1a9f37e8 	cset	w8, cs
     b38:	71002b9f 	cmp	w28, #0xa
     b3c:	54fffa00 	b.eq	a7c <_ZL15stbi__info_mainP13stbi__contextPiS1_S1_+0xa7c>
     b40:	35fff9e8 	cbnz	w8, a7c <_ZL15stbi__info_mainP13stbi__contextPiS1_S1_+0xa7c>
     b44:	91000748 	add	x8, x26, #0x1
     b48:	f10ffd1f 	cmp	x8, #0x3ff
     b4c:	383a6b1c 	strb	w28, [x24,x26]
     b50:	aa0803fa 	mov	x26, x8
     b54:	54fffa81 	b.ne	aa4 <_ZL15stbi__info_mainP13stbi__contextPiS1_S1_+0xaa4>
     b58:	14000005 	b	b6c <_ZL15stbi__info_mainP13stbi__contextPiS1_S1_+0xb6c>
     b5c:	2a1f03e8 	mov	w8, wzr
     b60:	71002b9f 	cmp	w28, #0xa
     b64:	54fffee1 	b.ne	b40 <_ZL15stbi__info_mainP13stbi__contextPiS1_S1_+0xb40>
     b68:	17ffffc5 	b	a7c <_ZL15stbi__info_mainP13stbi__contextPiS1_S1_+0xa7c>
     b6c:	f9400ac8 	ldr	x8, [x22,#16]
     b70:	b40000c8 	cbz	x8, b88 <_ZL15stbi__info_mainP13stbi__contextPiS1_S1_+0xb88>
     b74:	a94202c8 	ldp	x8, x0, [x22,#32]
     b78:	d63f0100 	blr	x8
     b7c:	34000260 	cbz	w0, bc8 <_ZL15stbi__info_mainP13stbi__contextPiS1_S1_+0xbc8>
     b80:	b94032c8 	ldr	w8, [x22,#48]
     b84:	34fff7a8 	cbz	w8, a78 <_ZL15stbi__info_mainP13stbi__contextPiS1_S1_+0xa78>
     b88:	a94ba6c8 	ldp	x8, x9, [x22,#184]
     b8c:	eb09011f 	cmp	x8, x9
     b90:	54fff742 	b.cs	a78 <_ZL15stbi__info_mainP13stbi__contextPiS1_S1_+0xa78>
     b94:	eb09011f 	cmp	x8, x9
     b98:	540002a3 	b.cc	bec <_ZL15stbi__info_mainP13stbi__contextPiS1_S1_+0xbec>
     b9c:	b94032c8 	ldr	w8, [x22,#48]
     ba0:	34fffe68 	cbz	w8, b6c <_ZL15stbi__info_mainP13stbi__contextPiS1_S1_+0xb6c>
     ba4:	f9400ac8 	ldr	x8, [x22,#16]
     ba8:	f94016c0 	ldr	x0, [x22,#40]
     bac:	b94036c2 	ldr	w2, [x22,#52]
     bb0:	aa1703e1 	mov	x1, x23
     bb4:	d63f0100 	blr	x8
     bb8:	34000100 	cbz	w0, bd8 <_ZL15stbi__info_mainP13stbi__contextPiS1_S1_+0xbd8>
     bbc:	8b20c2c8 	add	x8, x22, w0, sxtw
     bc0:	9100e108 	add	x8, x8, #0x38
     bc4:	14000008 	b	be4 <_ZL15stbi__info_mainP13stbi__contextPiS1_S1_+0xbe4>
     bc8:	a94ba6c8 	ldp	x8, x9, [x22,#184]
     bcc:	eb09011f 	cmp	x8, x9
     bd0:	54fffe62 	b.cs	b9c <_ZL15stbi__info_mainP13stbi__contextPiS1_S1_+0xb9c>
     bd4:	14000006 	b	bec <_ZL15stbi__info_mainP13stbi__contextPiS1_S1_+0xbec>
     bd8:	b90032df 	str	wzr, [x22,#48]
     bdc:	3900e2df 	strb	wzr, [x22,#56]
     be0:	f94017e8 	ldr	x8, [sp,#40]
     be4:	a90ba2d7 	stp	x23, x8, [x22,#184]
     be8:	aa1703e8 	mov	x8, x23
     bec:	91000509 	add	x9, x8, #0x1
     bf0:	f9005ec9 	str	x9, [x22,#184]
     bf4:	39400108 	ldrb	w8, [x8]
     bf8:	7100291f 	cmp	w8, #0xa
     bfc:	54fffb81 	b.ne	b6c <_ZL15stbi__info_mainP13stbi__contextPiS1_S1_+0xb6c>
     c00:	17ffff9e 	b	a78 <_ZL15stbi__info_mainP13stbi__contextPiS1_S1_+0xa78>
     c04:	910123fa 	add	x26, sp, #0x48
     c08:	f90023fa 	str	x26, [sp,#64]
     c0c:	34000f1b 	cbz	w27, dec <_ZL15stbi__info_mainP13stbi__contextPiS1_S1_+0xdec>
     c10:	aa1f03f8 	mov	x24, xzr
     c14:	a94ba2c9 	ldp	x9, x8, [x22,#184]
     c18:	eb08013f 	cmp	x9, x8
     c1c:	540002a3 	b.cc	c70 <_ZL15stbi__info_mainP13stbi__contextPiS1_S1_+0xc70>
     c20:	b94032ca 	ldr	w10, [x22,#48]
     c24:	3400014a 	cbz	w10, c4c <_ZL15stbi__info_mainP13stbi__contextPiS1_S1_+0xc4c>
     c28:	f9400ac8 	ldr	x8, [x22,#16]
     c2c:	f94016c0 	ldr	x0, [x22,#40]
     c30:	b94036c2 	ldr	w2, [x22,#52]
     c34:	aa1703e1 	mov	x1, x23
     c38:	d63f0100 	blr	x8
     c3c:	34000100 	cbz	w0, c5c <_ZL15stbi__info_mainP13stbi__contextPiS1_S1_+0xc5c>
     c40:	8b20c2c8 	add	x8, x22, w0, sxtw
     c44:	9100e108 	add	x8, x8, #0x38
     c48:	14000008 	b	c68 <_ZL15stbi__info_mainP13stbi__contextPiS1_S1_+0xc68>
     c4c:	2a1f03fb 	mov	w27, wzr
     c50:	f9400aca 	ldr	x10, [x22,#16]
     c54:	b50001aa 	cbnz	x10, c88 <_ZL15stbi__info_mainP13stbi__contextPiS1_S1_+0xc88>
     c58:	14000012 	b	ca0 <_ZL15stbi__info_mainP13stbi__contextPiS1_S1_+0xca0>
     c5c:	b90032df 	str	wzr, [x22,#48]
     c60:	3900e2df 	strb	wzr, [x22,#56]
     c64:	f94017e8 	ldr	x8, [sp,#40]
     c68:	aa1703e9 	mov	x9, x23
     c6c:	a90ba2d7 	stp	x23, x8, [x22,#184]
     c70:	9100052a 	add	x10, x9, #0x1
     c74:	f9005eca 	str	x10, [x22,#184]
     c78:	3940013b 	ldrb	w27, [x9]
     c7c:	aa0a03e9 	mov	x9, x10
     c80:	f9400aca 	ldr	x10, [x22,#16]
     c84:	b40000ea 	cbz	x10, ca0 <_ZL15stbi__info_mainP13stbi__contextPiS1_S1_+0xca0>
     c88:	a94202c8 	ldp	x8, x0, [x22,#32]
     c8c:	d63f0100 	blr	x8
     c90:	34000120 	cbz	w0, cb4 <_ZL15stbi__info_mainP13stbi__contextPiS1_S1_+0xcb4>
     c94:	b94032c8 	ldr	w8, [x22,#48]
     c98:	340006a8 	cbz	w8, d6c <_ZL15stbi__info_mainP13stbi__contextPiS1_S1_+0xd6c>
     c9c:	a94ba2c9 	ldp	x9, x8, [x22,#184]
     ca0:	eb08013f 	cmp	x9, x8
     ca4:	1a9f37e8 	cset	w8, cs
     ca8:	71002b7f 	cmp	w27, #0xa
     cac:	540000a1 	b.ne	cc0 <_ZL15stbi__info_mainP13stbi__contextPiS1_S1_+0xcc0>
     cb0:	1400002f 	b	d6c <_ZL15stbi__info_mainP13stbi__contextPiS1_S1_+0xd6c>
     cb4:	2a1f03e8 	mov	w8, wzr
     cb8:	71002b7f 	cmp	w27, #0xa
     cbc:	54000580 	b.eq	d6c <_ZL15stbi__info_mainP13stbi__contextPiS1_S1_+0xd6c>
     cc0:	35000568 	cbnz	w8, d6c <_ZL15stbi__info_mainP13stbi__contextPiS1_S1_+0xd6c>
     cc4:	91000708 	add	x8, x24, #0x1
     cc8:	f10ffd1f 	cmp	x8, #0x3ff
     ccc:	38386b5b 	strb	w27, [x26,x24]
     cd0:	aa0803f8 	mov	x24, x8
     cd4:	54fffa01 	b.ne	c14 <_ZL15stbi__info_mainP13stbi__contextPiS1_S1_+0xc14>
     cd8:	9100c3fa 	add	x26, sp, #0x30
     cdc:	f9400ac8 	ldr	x8, [x22,#16]
     ce0:	b40000c8 	cbz	x8, cf8 <_ZL15stbi__info_mainP13stbi__contextPiS1_S1_+0xcf8>
     ce4:	a94202c8 	ldp	x8, x0, [x22,#32]
     ce8:	d63f0100 	blr	x8
     cec:	340000e0 	cbz	w0, d08 <_ZL15stbi__info_mainP13stbi__contextPiS1_S1_+0xd08>
     cf0:	b94032c8 	ldr	w8, [x22,#48]
     cf4:	340003e8 	cbz	w8, d70 <_ZL15stbi__info_mainP13stbi__contextPiS1_S1_+0xd70>
     cf8:	a94ba6c8 	ldp	x8, x9, [x22,#184]
     cfc:	eb09011f 	cmp	x8, x9
     d00:	54000063 	b.cc	d0c <_ZL15stbi__info_mainP13stbi__contextPiS1_S1_+0xd0c>
     d04:	1400001b 	b	d70 <_ZL15stbi__info_mainP13stbi__contextPiS1_S1_+0xd70>
     d08:	a94ba6c8 	ldp	x8, x9, [x22,#184]
     d0c:	eb09011f 	cmp	x8, x9
     d10:	54000223 	b.cc	d54 <_ZL15stbi__info_mainP13stbi__contextPiS1_S1_+0xd54>
     d14:	b94032c8 	ldr	w8, [x22,#48]
     d18:	34fffe28 	cbz	w8, cdc <_ZL15stbi__info_mainP13stbi__contextPiS1_S1_+0xcdc>
     d1c:	f9400ac8 	ldr	x8, [x22,#16]
     d20:	f94016c0 	ldr	x0, [x22,#40]
     d24:	b94036c2 	ldr	w2, [x22,#52]
     d28:	aa1703e1 	mov	x1, x23
     d2c:	d63f0100 	blr	x8
     d30:	34000080 	cbz	w0, d40 <_ZL15stbi__info_mainP13stbi__contextPiS1_S1_+0xd40>
     d34:	8b20c2c8 	add	x8, x22, w0, sxtw
     d38:	9100e108 	add	x8, x8, #0x38
     d3c:	14000004 	b	d4c <_ZL15stbi__info_mainP13stbi__contextPiS1_S1_+0xd4c>
     d40:	b90032df 	str	wzr, [x22,#48]
     d44:	3900e2df 	strb	wzr, [x22,#56]
     d48:	f94017e8 	ldr	x8, [sp,#40]
     d4c:	a90ba2d7 	stp	x23, x8, [x22,#184]
     d50:	aa1703e8 	mov	x8, x23
     d54:	91000509 	add	x9, x8, #0x1
     d58:	f9005ec9 	str	x9, [x22,#184]
     d5c:	39400108 	ldrb	w8, [x8]
     d60:	7100291f 	cmp	w8, #0xa
     d64:	54fffbc1 	b.ne	cdc <_ZL15stbi__info_mainP13stbi__contextPiS1_S1_+0xcdc>
     d68:	14000002 	b	d70 <_ZL15stbi__info_mainP13stbi__contextPiS1_S1_+0xd70>
     d6c:	9100c3fa 	add	x26, sp, #0x30
     d70:	90000001 	adrp	x1, 0 <_ZL15stbi__info_mainP13stbi__contextPiS1_S1_>
     d74:	910123f7 	add	x23, sp, #0x48
     d78:	91000021 	add	x1, x1, #0x0
     d7c:	910123e0 	add	x0, sp, #0x48
     d80:	320007e2 	orr	w2, wzr, #0x3
     d84:	38386aff 	strb	wzr, [x23,x24]
     d88:	f90023f7 	str	x23, [sp,#64]
     d8c:	94000000 	bl	0 <strncmp>
     d90:	350002e0 	cbnz	w0, dec <_ZL15stbi__info_mainP13stbi__contextPiS1_S1_+0xdec>
     d94:	b24006e0 	orr	x0, x23, #0x3
     d98:	910103e1 	add	x1, sp, #0x40
     d9c:	52800142 	mov	w2, #0xa                   	// #10
     da0:	f90023e0 	str	x0, [sp,#64]
     da4:	94000000 	bl	0 <strtol>
     da8:	f94013e8 	ldr	x8, [sp,#32]
     dac:	b9000100 	str	w0, [x8]
     db0:	f94023f7 	ldr	x23, [sp,#64]
     db4:	394002e8 	ldrb	w8, [x23]
     db8:	7100811f 	cmp	w8, #0x20
     dbc:	540000a1 	b.ne	dd0 <_ZL15stbi__info_mainP13stbi__contextPiS1_S1_+0xdd0>
     dc0:	38401ee8 	ldrb	w8, [x23,#1]!
     dc4:	7100811f 	cmp	w8, #0x20
     dc8:	54ffffc0 	b.eq	dc0 <_ZL15stbi__info_mainP13stbi__contextPiS1_S1_+0xdc0>
     dcc:	f90023f7 	str	x23, [sp,#64]
     dd0:	90000001 	adrp	x1, 0 <_ZL15stbi__info_mainP13stbi__contextPiS1_S1_>
     dd4:	91000021 	add	x1, x1, #0x0
     dd8:	320007e2 	orr	w2, wzr, #0x3
     ddc:	aa1703e0 	mov	x0, x23
     de0:	320007f8 	orr	w24, wzr, #0x3
     de4:	94000000 	bl	0 <strncmp>
     de8:	340010e0 	cbz	w0, 1004 <_ZL15stbi__info_mainP13stbi__contextPiS1_S1_+0x1004>
     dec:	a94ca2d7 	ldp	x23, x8, [x22,#200]
     df0:	eb0802ff 	cmp	x23, x8
     df4:	a90ba2d7 	stp	x23, x8, [x22,#184]
     df8:	54000223 	b.cc	e3c <_ZL15stbi__info_mainP13stbi__contextPiS1_S1_+0xe3c>
     dfc:	b94032c9 	ldr	w9, [x22,#48]
     e00:	34000229 	cbz	w9, e44 <_ZL15stbi__info_mainP13stbi__contextPiS1_S1_+0xe44>
     e04:	f9400ac8 	ldr	x8, [x22,#16]
     e08:	f94016c0 	ldr	x0, [x22,#40]
     e0c:	b94036c2 	ldr	w2, [x22,#52]
     e10:	9100e2d7 	add	x23, x22, #0x38
     e14:	aa1703e1 	mov	x1, x23
     e18:	d63f0100 	blr	x8
     e1c:	34000080 	cbz	w0, e2c <_ZL15stbi__info_mainP13stbi__contextPiS1_S1_+0xe2c>
     e20:	8b20c2c8 	add	x8, x22, w0, sxtw
     e24:	9100e108 	add	x8, x8, #0x38
     e28:	14000004 	b	e38 <_ZL15stbi__info_mainP13stbi__contextPiS1_S1_+0xe38>
     e2c:	b90032df 	str	wzr, [x22,#48]
     e30:	9100e6c8 	add	x8, x22, #0x39
     e34:	3900e2df 	strb	wzr, [x22,#56]
     e38:	a90ba2d7 	stp	x23, x8, [x22,#184]
     e3c:	910006f7 	add	x23, x23, #0x1
     e40:	f9005ed7 	str	x23, [x22,#184]
     e44:	eb0802ff 	cmp	x23, x8
     e48:	540002a3 	b.cc	e9c <_ZL15stbi__info_mainP13stbi__contextPiS1_S1_+0xe9c>
     e4c:	b94032c9 	ldr	w9, [x22,#48]
     e50:	34000169 	cbz	w9, e7c <_ZL15stbi__info_mainP13stbi__contextPiS1_S1_+0xe7c>
     e54:	f9400ac8 	ldr	x8, [x22,#16]
     e58:	f94016c0 	ldr	x0, [x22,#40]
     e5c:	b94036c2 	ldr	w2, [x22,#52]
     e60:	9100e2d7 	add	x23, x22, #0x38
     e64:	aa1703e1 	mov	x1, x23
     e68:	d63f0100 	blr	x8
     e6c:	34000100 	cbz	w0, e8c <_ZL15stbi__info_mainP13stbi__contextPiS1_S1_+0xe8c>
     e70:	8b20c2c8 	add	x8, x22, w0, sxtw
     e74:	9100e108 	add	x8, x8, #0x38
     e78:	14000008 	b	e98 <_ZL15stbi__info_mainP13stbi__contextPiS1_S1_+0xe98>
     e7c:	2a1f03fa 	mov	w26, wzr
     e80:	eb0802ff 	cmp	x23, x8
     e84:	540001c2 	b.cs	ebc <_ZL15stbi__info_mainP13stbi__contextPiS1_S1_+0xebc>
     e88:	14000037 	b	f64 <_ZL15stbi__info_mainP13stbi__contextPiS1_S1_+0xf64>
     e8c:	b90032df 	str	wzr, [x22,#48]
     e90:	9100e6c8 	add	x8, x22, #0x39
     e94:	3900e2df 	strb	wzr, [x22,#56]
     e98:	a90ba2d7 	stp	x23, x8, [x22,#184]
     e9c:	910006e9 	add	x9, x23, #0x1
     ea0:	f9005ec9 	str	x9, [x22,#184]
     ea4:	394002fa 	ldrb	w26, [x23]
     ea8:	7100075f 	cmp	w26, #0x1
     eac:	54002688 	b.hi	137c <_ZL15stbi__info_mainP13stbi__contextPiS1_S1_+0x137c>
     eb0:	aa0903f7 	mov	x23, x9
     eb4:	eb0802ff 	cmp	x23, x8
     eb8:	54000563 	b.cc	f64 <_ZL15stbi__info_mainP13stbi__contextPiS1_S1_+0xf64>
     ebc:	b94032c9 	ldr	w9, [x22,#48]
     ec0:	34000169 	cbz	w9, eec <_ZL15stbi__info_mainP13stbi__contextPiS1_S1_+0xeec>
     ec4:	f9400ac8 	ldr	x8, [x22,#16]
     ec8:	f94016c0 	ldr	x0, [x22,#40]
     ecc:	b94036c2 	ldr	w2, [x22,#52]
     ed0:	9100e2d7 	add	x23, x22, #0x38
     ed4:	aa1703e1 	mov	x1, x23
     ed8:	d63f0100 	blr	x8
     edc:	340003c0 	cbz	w0, f54 <_ZL15stbi__info_mainP13stbi__contextPiS1_S1_+0xf54>
     ee0:	8b20c2c8 	add	x8, x22, w0, sxtw
     ee4:	9100e108 	add	x8, x8, #0x38
     ee8:	1400001e 	b	f60 <_ZL15stbi__info_mainP13stbi__contextPiS1_S1_+0xf60>
     eec:	2a1f03f8 	mov	w24, wzr
     ef0:	7100075f 	cmp	w26, #0x1
     ef4:	54000440 	b.eq	f7c <_ZL15stbi__info_mainP13stbi__contextPiS1_S1_+0xf7c>
     ef8:	71002f1f 	cmp	w24, #0xb
     efc:	54002408 	b.hi	137c <_ZL15stbi__info_mainP13stbi__contextPiS1_S1_+0x137c>
     f00:	320003e9 	orr	w9, wzr, #0x1
     f04:	1ad82129 	lsl	w9, w9, w24
     f08:	5281818a 	mov	w10, #0xc0c                 	// #3084
     f0c:	0a0a0129 	and	w9, w9, w10
     f10:	34002369 	cbz	w9, 137c <_ZL15stbi__info_mainP13stbi__contextPiS1_S1_+0x137c>
     f14:	f9400ac9 	ldr	x9, [x22,#16]
     f18:	b4000189 	cbz	x9, f48 <_ZL15stbi__info_mainP13stbi__contextPiS1_S1_+0xf48>
     f1c:	4b170109 	sub	w9, w8, w23
     f20:	7100213f 	cmp	w9, #0x8
     f24:	5400012c 	b.gt	f48 <_ZL15stbi__info_mainP13stbi__contextPiS1_S1_+0xf48>
     f28:	f9400eca 	ldr	x10, [x22,#24]
     f2c:	f94016c0 	ldr	x0, [x22,#40]
     f30:	f9005ec8 	str	x8, [x22,#184]
     f34:	52800128 	mov	w8, #0x9                   	// #9
     f38:	4b090101 	sub	w1, w8, w9
     f3c:	d63f0140 	blr	x10
     f40:	f90017ff 	str	xzr, [sp,#40]
     f44:	1400005b 	b	10b0 <_ZL15stbi__info_mainP13stbi__contextPiS1_S1_+0x10b0>
     f48:	910026e8 	add	x8, x23, #0x9
     f4c:	f90017ff 	str	xzr, [sp,#40]
     f50:	14000057 	b	10ac <_ZL15stbi__info_mainP13stbi__contextPiS1_S1_+0x10ac>
     f54:	b90032df 	str	wzr, [x22,#48]
     f58:	9100e6c8 	add	x8, x22, #0x39
     f5c:	3900e2df 	strb	wzr, [x22,#56]
     f60:	a90ba2d7 	stp	x23, x8, [x22,#184]
     f64:	910006e9 	add	x9, x23, #0x1
     f68:	f9005ec9 	str	x9, [x22,#184]
     f6c:	394002f8 	ldrb	w24, [x23]
     f70:	aa0903f7 	mov	x23, x9
     f74:	7100075f 	cmp	w26, #0x1
     f78:	54fffc01 	b.ne	ef8 <_ZL15stbi__info_mainP13stbi__contextPiS1_S1_+0xef8>
     f7c:	321d0309 	orr	w9, w24, #0x8
     f80:	7100253f 	cmp	w9, #0x9
     f84:	54001fc1 	b.ne	137c <_ZL15stbi__info_mainP13stbi__contextPiS1_S1_+0x137c>
     f88:	f9400ac9 	ldr	x9, [x22,#16]
     f8c:	b40001c9 	cbz	x9, fc4 <_ZL15stbi__info_mainP13stbi__contextPiS1_S1_+0xfc4>
     f90:	4b170109 	sub	w9, w8, w23
     f94:	71000d3f 	cmp	w9, #0x3
     f98:	5400016c 	b.gt	fc4 <_ZL15stbi__info_mainP13stbi__contextPiS1_S1_+0xfc4>
     f9c:	f9400eca 	ldr	x10, [x22,#24]
     fa0:	f94016c0 	ldr	x0, [x22,#40]
     fa4:	f9005ec8 	str	x8, [x22,#184]
     fa8:	321e03e8 	orr	w8, wzr, #0x4
     fac:	4b090101 	sub	w1, w8, w9
     fb0:	d63f0140 	blr	x10
     fb4:	a94ba2d7 	ldp	x23, x8, [x22,#184]
     fb8:	eb0802ff 	cmp	x23, x8
     fbc:	540000c2 	b.cs	fd4 <_ZL15stbi__info_mainP13stbi__contextPiS1_S1_+0xfd4>
     fc0:	14000020 	b	1040 <_ZL15stbi__info_mainP13stbi__contextPiS1_S1_+0x1040>
     fc4:	910012f7 	add	x23, x23, #0x4
     fc8:	f9005ed7 	str	x23, [x22,#184]
     fcc:	eb0802ff 	cmp	x23, x8
     fd0:	54000383 	b.cc	1040 <_ZL15stbi__info_mainP13stbi__contextPiS1_S1_+0x1040>
     fd4:	b94032c8 	ldr	w8, [x22,#48]
     fd8:	34001d28 	cbz	w8, 137c <_ZL15stbi__info_mainP13stbi__contextPiS1_S1_+0x137c>
     fdc:	f9400ac8 	ldr	x8, [x22,#16]
     fe0:	f94016c0 	ldr	x0, [x22,#40]
     fe4:	b94036c2 	ldr	w2, [x22,#52]
     fe8:	9100e2d7 	add	x23, x22, #0x38
     fec:	aa1703e1 	mov	x1, x23
     ff0:	d63f0100 	blr	x8
     ff4:	340001e0 	cbz	w0, 1030 <_ZL15stbi__info_mainP13stbi__contextPiS1_S1_+0x1030>
     ff8:	8b20c2c8 	add	x8, x22, w0, sxtw
     ffc:	9100e108 	add	x8, x8, #0x38
    1000:	1400000f 	b	103c <_ZL15stbi__info_mainP13stbi__contextPiS1_S1_+0x103c>
    1004:	91000ee0 	add	x0, x23, #0x3
    1008:	52800142 	mov	w2, #0xa                   	// #10
    100c:	aa1f03e1 	mov	x1, xzr
    1010:	f90023e0 	str	x0, [sp,#64]
    1014:	94000000 	bl	0 <strtol>
    1018:	f9400fe8 	ldr	x8, [sp,#24]
    101c:	b9000100 	str	w0, [x8]
    1020:	f9400be8 	ldr	x8, [sp,#16]
    1024:	320003e0 	orr	w0, wzr, #0x1
    1028:	b9000118 	str	w24, [x8]
    102c:	17fffc1e 	b	a4 <_ZL15stbi__info_mainP13stbi__contextPiS1_S1_+0xa4>
    1030:	b90032df 	str	wzr, [x22,#48]
    1034:	9100e6c8 	add	x8, x22, #0x39
    1038:	3900e2df 	strb	wzr, [x22,#56]
    103c:	a90ba2d7 	stp	x23, x8, [x22,#184]
    1040:	910006e9 	add	x9, x23, #0x1
    1044:	f9005ec9 	str	x9, [x22,#184]
    1048:	394002ea 	ldrb	w10, [x23]
    104c:	7100815f 	cmp	w10, #0x20
    1050:	f90017ea 	str	x10, [sp,#40]
    1054:	54001948 	b.hi	137c <_ZL15stbi__info_mainP13stbi__contextPiS1_S1_+0x137c>
    1058:	f94017eb 	ldr	x11, [sp,#40]
    105c:	320003ea 	orr	w10, wzr, #0x1
    1060:	9acb214a 	lsl	x10, x10, x11
    1064:	d290200b 	mov	x11, #0x8100                	// #33024
    1068:	f2a0202b 	movk	x11, #0x101, lsl #16
    106c:	f2c0002b 	movk	x11, #0x1, lsl #32
    1070:	8a0b014a 	and	x10, x10, x11
    1074:	b400184a 	cbz	x10, 137c <_ZL15stbi__info_mainP13stbi__contextPiS1_S1_+0x137c>
    1078:	f9400aca 	ldr	x10, [x22,#16]
    107c:	b400016a 	cbz	x10, 10a8 <_ZL15stbi__info_mainP13stbi__contextPiS1_S1_+0x10a8>
    1080:	4b090109 	sub	w9, w8, w9
    1084:	71000d3f 	cmp	w9, #0x3
    1088:	5400010c 	b.gt	10a8 <_ZL15stbi__info_mainP13stbi__contextPiS1_S1_+0x10a8>
    108c:	f9400eca 	ldr	x10, [x22,#24]
    1090:	f94016c0 	ldr	x0, [x22,#40]
    1094:	f9005ec8 	str	x8, [x22,#184]
    1098:	321e03e8 	orr	w8, wzr, #0x4
    109c:	4b090101 	sub	w1, w8, w9
    10a0:	d63f0140 	blr	x10
    10a4:	14000003 	b	10b0 <_ZL15stbi__info_mainP13stbi__contextPiS1_S1_+0x10b0>
    10a8:	910016e8 	add	x8, x23, #0x5
    10ac:	f9005ec8 	str	x8, [x22,#184]
    10b0:	a94ba2d7 	ldp	x23, x8, [x22,#184]
    10b4:	eb0802ff 	cmp	x23, x8
    10b8:	540002a3 	b.cc	110c <_ZL15stbi__info_mainP13stbi__contextPiS1_S1_+0x110c>
    10bc:	b94032c9 	ldr	w9, [x22,#48]
    10c0:	34000169 	cbz	w9, 10ec <_ZL15stbi__info_mainP13stbi__contextPiS1_S1_+0x10ec>
    10c4:	f9400ac8 	ldr	x8, [x22,#16]
    10c8:	f94016c0 	ldr	x0, [x22,#40]
    10cc:	b94036c2 	ldr	w2, [x22,#52]
    10d0:	9100e2d7 	add	x23, x22, #0x38
    10d4:	aa1703e1 	mov	x1, x23
    10d8:	d63f0100 	blr	x8
    10dc:	34000100 	cbz	w0, 10fc <_ZL15stbi__info_mainP13stbi__contextPiS1_S1_+0x10fc>
    10e0:	8b20c2c8 	add	x8, x22, w0, sxtw
    10e4:	9100e108 	add	x8, x8, #0x38
    10e8:	14000008 	b	1108 <_ZL15stbi__info_mainP13stbi__contextPiS1_S1_+0x1108>
    10ec:	2a1f03fc 	mov	w28, wzr
    10f0:	eb0802ff 	cmp	x23, x8
    10f4:	54000182 	b.cs	1124 <_ZL15stbi__info_mainP13stbi__contextPiS1_S1_+0x1124>
    10f8:	1400001b 	b	1164 <_ZL15stbi__info_mainP13stbi__contextPiS1_S1_+0x1164>
    10fc:	b90032df 	str	wzr, [x22,#48]
    1100:	9100e6c8 	add	x8, x22, #0x39
    1104:	3900e2df 	strb	wzr, [x22,#56]
    1108:	a90ba2d7 	stp	x23, x8, [x22,#184]
    110c:	910006e9 	add	x9, x23, #0x1
    1110:	f9005ec9 	str	x9, [x22,#184]
    1114:	394002fc 	ldrb	w28, [x23]
    1118:	aa0903f7 	mov	x23, x9
    111c:	eb0802ff 	cmp	x23, x8
    1120:	54000223 	b.cc	1164 <_ZL15stbi__info_mainP13stbi__contextPiS1_S1_+0x1164>
    1124:	b94032c9 	ldr	w9, [x22,#48]
    1128:	34000269 	cbz	w9, 1174 <_ZL15stbi__info_mainP13stbi__contextPiS1_S1_+0x1174>
    112c:	f9400ac8 	ldr	x8, [x22,#16]
    1130:	f94016c0 	ldr	x0, [x22,#40]
    1134:	b94036c2 	ldr	w2, [x22,#52]
    1138:	9100e2d7 	add	x23, x22, #0x38
    113c:	aa1703e1 	mov	x1, x23
    1140:	d63f0100 	blr	x8
    1144:	34000080 	cbz	w0, 1154 <_ZL15stbi__info_mainP13stbi__contextPiS1_S1_+0x1154>
    1148:	8b20c2c8 	add	x8, x22, w0, sxtw
    114c:	9100e108 	add	x8, x8, #0x38
    1150:	14000004 	b	1160 <_ZL15stbi__info_mainP13stbi__contextPiS1_S1_+0x1160>
    1154:	b90032df 	str	wzr, [x22,#48]
    1158:	9100e6c8 	add	x8, x22, #0x39
    115c:	3900e2df 	strb	wzr, [x22,#56]
    1160:	a90ba2d7 	stp	x23, x8, [x22,#184]
    1164:	910006ea 	add	x10, x23, #0x1
    1168:	f9005eca 	str	x10, [x22,#184]
    116c:	394002e9 	ldrb	w9, [x23]
    1170:	aa0a03f7 	mov	x23, x10
    1174:	33181d3c 	bfi	w28, w9, #8, #8
    1178:	3400103c 	cbz	w28, 137c <_ZL15stbi__info_mainP13stbi__contextPiS1_S1_+0x137c>
    117c:	eb0802ff 	cmp	x23, x8
    1180:	540002a3 	b.cc	11d4 <_ZL15stbi__info_mainP13stbi__contextPiS1_S1_+0x11d4>
    1184:	b94032c9 	ldr	w9, [x22,#48]
    1188:	34000169 	cbz	w9, 11b4 <_ZL15stbi__info_mainP13stbi__contextPiS1_S1_+0x11b4>
    118c:	f9400ac8 	ldr	x8, [x22,#16]
    1190:	f94016c0 	ldr	x0, [x22,#40]
    1194:	b94036c2 	ldr	w2, [x22,#52]
    1198:	9100e2d7 	add	x23, x22, #0x38
    119c:	aa1703e1 	mov	x1, x23
    11a0:	d63f0100 	blr	x8
    11a4:	34000100 	cbz	w0, 11c4 <_ZL15stbi__info_mainP13stbi__contextPiS1_S1_+0x11c4>
    11a8:	8b20c2c8 	add	x8, x22, w0, sxtw
    11ac:	9100e108 	add	x8, x8, #0x38
    11b0:	14000008 	b	11d0 <_ZL15stbi__info_mainP13stbi__contextPiS1_S1_+0x11d0>
    11b4:	2a1f03fb 	mov	w27, wzr
    11b8:	eb0802ff 	cmp	x23, x8
    11bc:	54000182 	b.cs	11ec <_ZL15stbi__info_mainP13stbi__contextPiS1_S1_+0x11ec>
    11c0:	1400001b 	b	122c <_ZL15stbi__info_mainP13stbi__contextPiS1_S1_+0x122c>
    11c4:	b90032df 	str	wzr, [x22,#48]
    11c8:	9100e6c8 	add	x8, x22, #0x39
    11cc:	3900e2df 	strb	wzr, [x22,#56]
    11d0:	a90ba2d7 	stp	x23, x8, [x22,#184]
    11d4:	910006e9 	add	x9, x23, #0x1
    11d8:	f9005ec9 	str	x9, [x22,#184]
    11dc:	394002fb 	ldrb	w27, [x23]
    11e0:	aa0903f7 	mov	x23, x9
    11e4:	eb0802ff 	cmp	x23, x8
    11e8:	54000223 	b.cc	122c <_ZL15stbi__info_mainP13stbi__contextPiS1_S1_+0x122c>
    11ec:	b94032c9 	ldr	w9, [x22,#48]
    11f0:	34000269 	cbz	w9, 123c <_ZL15stbi__info_mainP13stbi__contextPiS1_S1_+0x123c>
    11f4:	f9400ac8 	ldr	x8, [x22,#16]
    11f8:	f94016c0 	ldr	x0, [x22,#40]
    11fc:	b94036c2 	ldr	w2, [x22,#52]
    1200:	9100e2d7 	add	x23, x22, #0x38
    1204:	aa1703e1 	mov	x1, x23
    1208:	d63f0100 	blr	x8
    120c:	34000080 	cbz	w0, 121c <_ZL15stbi__info_mainP13stbi__contextPiS1_S1_+0x121c>
    1210:	8b20c2c8 	add	x8, x22, w0, sxtw
    1214:	9100e108 	add	x8, x8, #0x38
    1218:	14000004 	b	1228 <_ZL15stbi__info_mainP13stbi__contextPiS1_S1_+0x1228>
    121c:	b90032df 	str	wzr, [x22,#48]
    1220:	9100e6c8 	add	x8, x22, #0x39
    1224:	3900e2df 	strb	wzr, [x22,#56]
    1228:	a90ba2d7 	stp	x23, x8, [x22,#184]
    122c:	910006ea 	add	x10, x23, #0x1
    1230:	f9005eca 	str	x10, [x22,#184]
    1234:	394002e9 	ldrb	w9, [x23]
    1238:	aa0a03f7 	mov	x23, x10
    123c:	33181d3b 	bfi	w27, w9, #8, #8
    1240:	340009fb 	cbz	w27, 137c <_ZL15stbi__info_mainP13stbi__contextPiS1_S1_+0x137c>
    1244:	eb0802ff 	cmp	x23, x8
    1248:	540002a3 	b.cc	129c <_ZL15stbi__info_mainP13stbi__contextPiS1_S1_+0x129c>
    124c:	b94032c9 	ldr	w9, [x22,#48]
    1250:	34000169 	cbz	w9, 127c <_ZL15stbi__info_mainP13stbi__contextPiS1_S1_+0x127c>
    1254:	f9400ac8 	ldr	x8, [x22,#16]
    1258:	f94016c0 	ldr	x0, [x22,#40]
    125c:	b94036c2 	ldr	w2, [x22,#52]
    1260:	9100e2d7 	add	x23, x22, #0x38
    1264:	aa1703e1 	mov	x1, x23
    1268:	d63f0100 	blr	x8
    126c:	34000100 	cbz	w0, 128c <_ZL15stbi__info_mainP13stbi__contextPiS1_S1_+0x128c>
    1270:	8b20c2c8 	add	x8, x22, w0, sxtw
    1274:	9100e108 	add	x8, x8, #0x38
    1278:	14000008 	b	1298 <_ZL15stbi__info_mainP13stbi__contextPiS1_S1_+0x1298>
    127c:	2a1f03fa 	mov	w26, wzr
    1280:	eb0802ff 	cmp	x23, x8
    1284:	54000182 	b.cs	12b4 <_ZL15stbi__info_mainP13stbi__contextPiS1_S1_+0x12b4>
    1288:	1400001b 	b	12f4 <_ZL15stbi__info_mainP13stbi__contextPiS1_S1_+0x12f4>
    128c:	b90032df 	str	wzr, [x22,#48]
    1290:	9100e6c8 	add	x8, x22, #0x39
    1294:	3900e2df 	strb	wzr, [x22,#56]
    1298:	a90ba2d7 	stp	x23, x8, [x22,#184]
    129c:	910006e9 	add	x9, x23, #0x1
    12a0:	f9005ec9 	str	x9, [x22,#184]
    12a4:	394002fa 	ldrb	w26, [x23]
    12a8:	aa0903f7 	mov	x23, x9
    12ac:	eb0802ff 	cmp	x23, x8
    12b0:	54000223 	b.cc	12f4 <_ZL15stbi__info_mainP13stbi__contextPiS1_S1_+0x12f4>
    12b4:	b94032c8 	ldr	w8, [x22,#48]
    12b8:	34000228 	cbz	w8, 12fc <_ZL15stbi__info_mainP13stbi__contextPiS1_S1_+0x12fc>
    12bc:	f9400ac8 	ldr	x8, [x22,#16]
    12c0:	f94016c0 	ldr	x0, [x22,#40]
    12c4:	b94036c2 	ldr	w2, [x22,#52]
    12c8:	9100e2d7 	add	x23, x22, #0x38
    12cc:	aa1703e1 	mov	x1, x23
    12d0:	d63f0100 	blr	x8
    12d4:	34000080 	cbz	w0, 12e4 <_ZL15stbi__info_mainP13stbi__contextPiS1_S1_+0x12e4>
    12d8:	8b20c2c8 	add	x8, x22, w0, sxtw
    12dc:	9100e108 	add	x8, x8, #0x38
    12e0:	14000004 	b	12f0 <_ZL15stbi__info_mainP13stbi__contextPiS1_S1_+0x12f0>
    12e4:	b90032df 	str	wzr, [x22,#48]
    12e8:	9100e6c8 	add	x8, x22, #0x39
    12ec:	3900e2df 	strb	wzr, [x22,#56]
    12f0:	a90ba2d7 	stp	x23, x8, [x22,#184]
    12f4:	910006e8 	add	x8, x23, #0x1
    12f8:	f9005ec8 	str	x8, [x22,#184]
    12fc:	f94017e8 	ldr	x8, [sp,#40]
    1300:	34000268 	cbz	w8, 134c <_ZL15stbi__info_mainP13stbi__contextPiS1_S1_+0x134c>
    1304:	7100435f 	cmp	w26, #0x10
    1308:	54000060 	b.eq	1314 <_ZL15stbi__info_mainP13stbi__contextPiS1_S1_+0x1314>
    130c:	7100235f 	cmp	w26, #0x8
    1310:	54000361 	b.ne	137c <_ZL15stbi__info_mainP13stbi__contextPiS1_S1_+0x137c>
    1314:	f94017e8 	ldr	x8, [sp,#40]
    1318:	51002108 	sub	w8, w8, #0x8
    131c:	7100611f 	cmp	w8, #0x18
    1320:	540002e8 	b.hi	137c <_ZL15stbi__info_mainP13stbi__contextPiS1_S1_+0x137c>
    1324:	90000009 	adrp	x9, 0 <_ZL15stbi__info_mainP13stbi__contextPiS1_S1_>
    1328:	91000129 	add	x9, x9, #0x0
    132c:	b8a87928 	ldrsw	x8, [x9,x8,lsl #2]
    1330:	8b090109 	add	x9, x8, x9
    1334:	320003e8 	orr	w8, wzr, #0x1
    1338:	d61f0120 	br	x9
    133c:	f94017e8 	ldr	x8, [sp,#40]
    1340:	53037d08 	lsr	w8, w8, #3
    1344:	b5000415 	cbnz	x21, 13c4 <_ZL15stbi__info_mainP13stbi__contextPiS1_S1_+0x13c4>
    1348:	14000020 	b	13c8 <_ZL15stbi__info_mainP13stbi__contextPiS1_S1_+0x13c8>
    134c:	51002348 	sub	w8, w26, #0x8
    1350:	7100611f 	cmp	w8, #0x18
    1354:	54000148 	b.hi	137c <_ZL15stbi__info_mainP13stbi__contextPiS1_S1_+0x137c>
    1358:	90000009 	adrp	x9, 0 <_ZL15stbi__info_mainP13stbi__contextPiS1_S1_>
    135c:	91000129 	add	x9, x9, #0x0
    1360:	b8a87928 	ldrsw	x8, [x9,x8,lsl #2]
    1364:	8b090109 	add	x9, x8, x9
    1368:	320003e8 	orr	w8, wzr, #0x1
    136c:	d61f0120 	br	x9
    1370:	53037f48 	lsr	w8, w26, #3
    1374:	b5000295 	cbnz	x21, 13c4 <_ZL15stbi__info_mainP13stbi__contextPiS1_S1_+0x13c4>
    1378:	14000014 	b	13c8 <_ZL15stbi__info_mainP13stbi__contextPiS1_S1_+0x13c8>
    137c:	3ccc82c0 	ldur	q0, [x22,#200]
    1380:	90000008 	adrp	x8, 0 <_ZL15stbi__info_mainP13stbi__contextPiS1_S1_>
    1384:	90000009 	adrp	x9, 0 <_ZL15stbi__info_mainP13stbi__contextPiS1_S1_>
    1388:	2a1f03e0 	mov	w0, wzr
    138c:	91000108 	add	x8, x8, #0x0
    1390:	91000129 	add	x9, x9, #0x0
    1394:	3c8b82c0 	stur	q0, [x22,#184]
    1398:	f9000909 	str	x9, [x8,#16]
    139c:	9100c3fa 	add	x26, sp, #0x30
    13a0:	17fffb41 	b	a4 <_ZL15stbi__info_mainP13stbi__contextPiS1_S1_+0xa4>
    13a4:	320007e8 	orr	w8, wzr, #0x3
    13a8:	b50000f5 	cbnz	x21, 13c4 <_ZL15stbi__info_mainP13stbi__contextPiS1_S1_+0x13c4>
    13ac:	14000007 	b	13c8 <_ZL15stbi__info_mainP13stbi__contextPiS1_S1_+0x13c8>
    13b0:	321d0308 	orr	w8, w24, #0x8
    13b4:	71002d1f 	cmp	w8, #0xb
    13b8:	321f03e8 	orr	w8, wzr, #0x2
    13bc:	1a880508 	cinc	w8, w8, ne
    13c0:	b4000055 	cbz	x21, 13c8 <_ZL15stbi__info_mainP13stbi__contextPiS1_S1_+0x13c8>
    13c4:	b90002bc 	str	w28, [x21]
    13c8:	b4000054 	cbz	x20, 13d0 <_ZL15stbi__info_mainP13stbi__contextPiS1_S1_+0x13d0>
    13cc:	b900029b 	str	w27, [x20]
    13d0:	b4ffb2d3 	cbz	x19, a28 <_ZL15stbi__info_mainP13stbi__contextPiS1_S1_+0xa28>
    13d4:	b9000268 	str	w8, [x19]
    13d8:	320003e0 	orr	w0, wzr, #0x1
    13dc:	17fffff0 	b	139c <_ZL15stbi__info_mainP13stbi__contextPiS1_S1_+0x139c>
    13e0:	94000000 	bl	0 <__stack_chk_fail>

Disassembly of section .text.stbi_is_16_bit:

0000000000000000 <stbi_is_16_bit>:
   0:	d10483ff 	sub	sp, sp, #0x120
   4:	a90e5ffc 	stp	x28, x23, [sp,#224]
   8:	a90f57f6 	stp	x22, x21, [sp,#240]
   c:	a9104ff4 	stp	x20, x19, [sp,#256]
  10:	a9117bfd 	stp	x29, x30, [sp,#272]
  14:	910443fd 	add	x29, sp, #0x110
  18:	d53bd056 	mrs	x22, tpidr_el0
  1c:	f94016c8 	ldr	x8, [x22,#40]
  20:	90000001 	adrp	x1, 0 <stbi_is_16_bit>
  24:	91000021 	add	x1, x1, #0x0
  28:	f81c83a8 	stur	x8, [x29,#-56]
  2c:	94000000 	bl	0 <fopen>
  30:	aa0003f3 	mov	x19, x0
  34:	b4000333 	cbz	x19, 98 <stbi_is_16_bit+0x98>
  38:	aa1303e0 	mov	x0, x19
  3c:	94000000 	bl	0 <ftell>
  40:	90000008 	adrp	x8, 0 <stbi_is_16_bit>
  44:	91000108 	add	x8, x8, #0x0
  48:	3dc00100 	ldr	q0, [x8]
  4c:	f9400908 	ldr	x8, [x8,#16]
  50:	910003f7 	mov	x23, sp
  54:	b21903e9 	mov	x9, #0x8000000080          	// #549755814016
  58:	3d8007e0 	str	q0, [sp,#16]
  5c:	a9024fe8 	stp	x8, x19, [sp,#32]
  60:	f9400be8 	ldr	x8, [sp,#16]
  64:	9100e2f5 	add	x21, x23, #0x38
  68:	f2800029 	movk	x9, #0x1
  6c:	aa0003f4 	mov	x20, x0
  70:	321903e2 	orr	w2, wzr, #0x80
  74:	aa1303e0 	mov	x0, x19
  78:	aa1503e1 	mov	x1, x21
  7c:	f9001be9 	str	x9, [sp,#48]
  80:	f90067f5 	str	x21, [sp,#200]
  84:	d63f0100 	blr	x8
  88:	34000160 	cbz	w0, b4 <stbi_is_16_bit+0xb4>
  8c:	8b20c2e8 	add	x8, x23, w0, sxtw
  90:	9100e108 	add	x8, x8, #0x38
  94:	1400000b 	b	c0 <stbi_is_16_bit+0xc0>
  98:	90000008 	adrp	x8, 0 <stbi_is_16_bit>
  9c:	90000009 	adrp	x9, 0 <stbi_is_16_bit>
  a0:	91000108 	add	x8, x8, #0x0
  a4:	91000129 	add	x9, x9, #0x0
  a8:	2a1f03f5 	mov	w21, wzr
  ac:	f9000909 	str	x9, [x8,#16]
  b0:	1400000f 	b	ec <stbi_is_16_bit+0xec>
  b4:	b90033ff 	str	wzr, [sp,#48]
  b8:	9100e6e8 	add	x8, x23, #0x39
  bc:	3900e3ff 	strb	wzr, [sp,#56]
  c0:	910003e0 	mov	x0, sp
  c4:	a90ba3f5 	stp	x21, x8, [sp,#184]
  c8:	f9006be8 	str	x8, [sp,#208]
  cc:	94000000 	bl	0 <stbi_is_16_bit>
  d0:	2a0003f5 	mov	w21, w0
  d4:	aa1303e0 	mov	x0, x19
  d8:	aa1403e1 	mov	x1, x20
  dc:	2a1f03e2 	mov	w2, wzr
  e0:	94000000 	bl	0 <fseek>
  e4:	aa1303e0 	mov	x0, x19
  e8:	94000000 	bl	0 <fclose>
  ec:	f94016c8 	ldr	x8, [x22,#40]
  f0:	f85c83a9 	ldur	x9, [x29,#-56]
  f4:	eb09011f 	cmp	x8, x9
  f8:	54000101 	b.ne	118 <stbi_is_16_bit+0x118>
  fc:	2a1503e0 	mov	w0, w21
 100:	a9517bfd 	ldp	x29, x30, [sp,#272]
 104:	a9504ff4 	ldp	x20, x19, [sp,#256]
 108:	a94f57f6 	ldp	x22, x21, [sp,#240]
 10c:	a94e5ffc 	ldp	x28, x23, [sp,#224]
 110:	910483ff 	add	sp, sp, #0x120
 114:	d65f03c0 	ret
 118:	94000000 	bl	0 <__stack_chk_fail>

Disassembly of section .text.stbi_is_16_bit_from_file:

0000000000000000 <stbi_is_16_bit_from_file>:
   0:	d10483ff 	sub	sp, sp, #0x120
   4:	a90e5ffc 	stp	x28, x23, [sp,#224]
   8:	a90f57f6 	stp	x22, x21, [sp,#240]
   c:	a9104ff4 	stp	x20, x19, [sp,#256]
  10:	a9117bfd 	stp	x29, x30, [sp,#272]
  14:	910443fd 	add	x29, sp, #0x110
  18:	d53bd056 	mrs	x22, tpidr_el0
  1c:	f94016c8 	ldr	x8, [x22,#40]
  20:	aa0003f3 	mov	x19, x0
  24:	f81c83a8 	stur	x8, [x29,#-56]
  28:	94000000 	bl	0 <ftell>
  2c:	90000008 	adrp	x8, 0 <stbi_is_16_bit_from_file>
  30:	91000108 	add	x8, x8, #0x0
  34:	3dc00100 	ldr	q0, [x8]
  38:	f9400908 	ldr	x8, [x8,#16]
  3c:	910003f7 	mov	x23, sp
  40:	b21903e9 	mov	x9, #0x8000000080          	// #549755814016
  44:	3d8007e0 	str	q0, [sp,#16]
  48:	a9024fe8 	stp	x8, x19, [sp,#32]
  4c:	f9400be8 	ldr	x8, [sp,#16]
  50:	9100e2f5 	add	x21, x23, #0x38
  54:	f2800029 	movk	x9, #0x1
  58:	aa0003f4 	mov	x20, x0
  5c:	321903e2 	orr	w2, wzr, #0x80
  60:	aa1303e0 	mov	x0, x19
  64:	aa1503e1 	mov	x1, x21
  68:	f9001be9 	str	x9, [sp,#48]
  6c:	f90067f5 	str	x21, [sp,#200]
  70:	d63f0100 	blr	x8
  74:	34000080 	cbz	w0, 84 <stbi_is_16_bit_from_file+0x84>
  78:	8b20c2e8 	add	x8, x23, w0, sxtw
  7c:	9100e108 	add	x8, x8, #0x38
  80:	14000004 	b	90 <stbi_is_16_bit_from_file+0x90>
  84:	b90033ff 	str	wzr, [sp,#48]
  88:	9100e6e8 	add	x8, x23, #0x39
  8c:	3900e3ff 	strb	wzr, [sp,#56]
  90:	910003e0 	mov	x0, sp
  94:	a90ba3f5 	stp	x21, x8, [sp,#184]
  98:	f9006be8 	str	x8, [sp,#208]
  9c:	94000000 	bl	0 <stbi_is_16_bit_from_file>
  a0:	2a0003f5 	mov	w21, w0
  a4:	aa1303e0 	mov	x0, x19
  a8:	aa1403e1 	mov	x1, x20
  ac:	2a1f03e2 	mov	w2, wzr
  b0:	94000000 	bl	0 <fseek>
  b4:	f94016c8 	ldr	x8, [x22,#40]
  b8:	f85c83a9 	ldur	x9, [x29,#-56]
  bc:	eb09011f 	cmp	x8, x9
  c0:	54000101 	b.ne	e0 <stbi_is_16_bit_from_file+0xe0>
  c4:	2a1503e0 	mov	w0, w21
  c8:	a9517bfd 	ldp	x29, x30, [sp,#272]
  cc:	a9504ff4 	ldp	x20, x19, [sp,#256]
  d0:	a94f57f6 	ldp	x22, x21, [sp,#240]
  d4:	a94e5ffc 	ldp	x28, x23, [sp,#224]
  d8:	910483ff 	add	sp, sp, #0x120
  dc:	d65f03c0 	ret
  e0:	94000000 	bl	0 <__stack_chk_fail>

Disassembly of section .text._ZL16stbi__is_16_mainP13stbi__context:

0000000000000000 <_ZL16stbi__is_16_mainP13stbi__context>:
   0:	d101c3ff 	sub	sp, sp, #0x70
   4:	f9001bf7 	str	x23, [sp,#48]
   8:	a90457f6 	stp	x22, x21, [sp,#64]
   c:	a9054ff4 	stp	x20, x19, [sp,#80]
  10:	a9067bfd 	stp	x29, x30, [sp,#96]
  14:	910183fd 	add	x29, sp, #0x60
  18:	d53bd055 	mrs	x21, tpidr_el0
  1c:	f94016a8 	ldr	x8, [x21,#40]
  20:	aa0003f3 	mov	x19, x0
  24:	910003e0 	mov	x0, sp
  28:	321f03e1 	orr	w1, wzr, #0x2
  2c:	2a1f03e2 	mov	w2, wzr
  30:	f90017e8 	str	x8, [sp,#40]
  34:	f90003f3 	str	x19, [sp]
  38:	94000000 	bl	0 <_ZL16stbi__is_16_mainP13stbi__context>
  3c:	340000c0 	cbz	w0, 54 <_ZL16stbi__is_16_mainP13stbi__context+0x54>
  40:	b94023e8 	ldr	w8, [sp,#32]
  44:	7100411f 	cmp	w8, #0x10
  48:	54000061 	b.ne	54 <_ZL16stbi__is_16_mainP13stbi__context+0x54>
  4c:	320003e0 	orr	w0, wzr, #0x1
  50:	140000b9 	b	334 <_ZL16stbi__is_16_mainP13stbi__context+0x334>
  54:	f94003e8 	ldr	x8, [sp]
  58:	aa1303e0 	mov	x0, x19
  5c:	3ccc8100 	ldur	q0, [x8,#200]
  60:	3c8b8100 	stur	q0, [x8,#184]
  64:	94000000 	bl	0 <_ZL16stbi__is_16_mainP13stbi__context>
  68:	528a0a68 	mov	w8, #0x5053                	// #20563
  6c:	72a70848 	movk	w8, #0x3842, lsl #16
  70:	6b08001f 	cmp	w0, w8
  74:	54000241 	b.ne	bc <_ZL16stbi__is_16_mainP13stbi__context+0xbc>
  78:	aa1303f6 	mov	x22, x19
  7c:	f84c0ec8 	ldr	x8, [x22,#192]!
  80:	f85f82d4 	ldur	x20, [x22,#-8]
  84:	eb08029f 	cmp	x20, x8
  88:	54000283 	b.cc	d8 <_ZL16stbi__is_16_mainP13stbi__context+0xd8>
  8c:	b9403269 	ldr	w9, [x19,#48]
  90:	340002c9 	cbz	w9, e8 <_ZL16stbi__is_16_mainP13stbi__context+0xe8>
  94:	f9400a68 	ldr	x8, [x19,#16]
  98:	f9401660 	ldr	x0, [x19,#40]
  9c:	b9403662 	ldr	w2, [x19,#52]
  a0:	9100e274 	add	x20, x19, #0x38
  a4:	aa1403e1 	mov	x1, x20
  a8:	d63f0100 	blr	x8
  ac:	340000e0 	cbz	w0, c8 <_ZL16stbi__is_16_mainP13stbi__context+0xc8>
  b0:	8b20c268 	add	x8, x19, w0, sxtw
  b4:	9100e108 	add	x8, x8, #0x38
  b8:	14000007 	b	d4 <_ZL16stbi__is_16_mainP13stbi__context+0xd4>
  bc:	f9406668 	ldr	x8, [x19,#200]
  c0:	91030276 	add	x22, x19, #0xc0
  c4:	14000098 	b	324 <_ZL16stbi__is_16_mainP13stbi__context+0x324>
  c8:	b900327f 	str	wzr, [x19,#48]
  cc:	9100e668 	add	x8, x19, #0x39
  d0:	3900e27f 	strb	wzr, [x19,#56]
  d4:	a90ba274 	stp	x20, x8, [x19,#184]
  d8:	9100068a 	add	x10, x20, #0x1
  dc:	f9005e6a 	str	x10, [x19,#184]
  e0:	39400289 	ldrb	w9, [x20]
  e4:	aa0a03f4 	mov	x20, x10
  e8:	eb08029f 	cmp	x20, x8
  ec:	53185d37 	lsl	w23, w9, #8
  f0:	54000223 	b.cc	134 <_ZL16stbi__is_16_mainP13stbi__context+0x134>
  f4:	b9403269 	ldr	w9, [x19,#48]
  f8:	34000269 	cbz	w9, 144 <_ZL16stbi__is_16_mainP13stbi__context+0x144>
  fc:	f9400a68 	ldr	x8, [x19,#16]
 100:	f9401660 	ldr	x0, [x19,#40]
 104:	b9403662 	ldr	w2, [x19,#52]
 108:	9100e274 	add	x20, x19, #0x38
 10c:	aa1403e1 	mov	x1, x20
 110:	d63f0100 	blr	x8
 114:	34000080 	cbz	w0, 124 <_ZL16stbi__is_16_mainP13stbi__context+0x124>
 118:	8b20c268 	add	x8, x19, w0, sxtw
 11c:	9100e108 	add	x8, x8, #0x38
 120:	14000004 	b	130 <_ZL16stbi__is_16_mainP13stbi__context+0x130>
 124:	b900327f 	str	wzr, [x19,#48]
 128:	9100e668 	add	x8, x19, #0x39
 12c:	3900e27f 	strb	wzr, [x19,#56]
 130:	a90ba274 	stp	x20, x8, [x19,#184]
 134:	9100068a 	add	x10, x20, #0x1
 138:	f9005e6a 	str	x10, [x19,#184]
 13c:	39400289 	ldrb	w9, [x20]
 140:	aa0a03f4 	mov	x20, x10
 144:	2a0902e9 	orr	w9, w23, w9
 148:	7100053f 	cmp	w9, #0x1
 14c:	54000ea1 	b.ne	320 <_ZL16stbi__is_16_mainP13stbi__context+0x320>
 150:	f9400a69 	ldr	x9, [x19,#16]
 154:	b40001c9 	cbz	x9, 18c <_ZL16stbi__is_16_mainP13stbi__context+0x18c>
 158:	4b140109 	sub	w9, w8, w20
 15c:	7100153f 	cmp	w9, #0x5
 160:	5400016c 	b.gt	18c <_ZL16stbi__is_16_mainP13stbi__context+0x18c>
 164:	f9400e6a 	ldr	x10, [x19,#24]
 168:	f9401660 	ldr	x0, [x19,#40]
 16c:	f9005e68 	str	x8, [x19,#184]
 170:	321f07e8 	orr	w8, wzr, #0x6
 174:	4b090101 	sub	w1, w8, w9
 178:	d63f0140 	blr	x10
 17c:	a94ba274 	ldp	x20, x8, [x19,#184]
 180:	eb08029f 	cmp	x20, x8
 184:	540000c2 	b.cs	19c <_ZL16stbi__is_16_mainP13stbi__context+0x19c>
 188:	14000015 	b	1dc <_ZL16stbi__is_16_mainP13stbi__context+0x1dc>
 18c:	91001a94 	add	x20, x20, #0x6
 190:	f9005e74 	str	x20, [x19,#184]
 194:	eb08029f 	cmp	x20, x8
 198:	54000223 	b.cc	1dc <_ZL16stbi__is_16_mainP13stbi__context+0x1dc>
 19c:	b9403269 	ldr	w9, [x19,#48]
 1a0:	34000269 	cbz	w9, 1ec <_ZL16stbi__is_16_mainP13stbi__context+0x1ec>
 1a4:	f9400a68 	ldr	x8, [x19,#16]
 1a8:	f9401660 	ldr	x0, [x19,#40]
 1ac:	b9403662 	ldr	w2, [x19,#52]
 1b0:	9100e274 	add	x20, x19, #0x38
 1b4:	aa1403e1 	mov	x1, x20
 1b8:	d63f0100 	blr	x8
 1bc:	34000080 	cbz	w0, 1cc <_ZL16stbi__is_16_mainP13stbi__context+0x1cc>
 1c0:	8b20c268 	add	x8, x19, w0, sxtw
 1c4:	9100e108 	add	x8, x8, #0x38
 1c8:	14000004 	b	1d8 <_ZL16stbi__is_16_mainP13stbi__context+0x1d8>
 1cc:	b900327f 	str	wzr, [x19,#48]
 1d0:	9100e668 	add	x8, x19, #0x39
 1d4:	3900e27f 	strb	wzr, [x19,#56]
 1d8:	a90ba274 	stp	x20, x8, [x19,#184]
 1dc:	9100068a 	add	x10, x20, #0x1
 1e0:	f9005e6a 	str	x10, [x19,#184]
 1e4:	39400289 	ldrb	w9, [x20]
 1e8:	aa0a03f4 	mov	x20, x10
 1ec:	eb08029f 	cmp	x20, x8
 1f0:	53185d37 	lsl	w23, w9, #8
 1f4:	54000223 	b.cc	238 <_ZL16stbi__is_16_mainP13stbi__context+0x238>
 1f8:	b9403268 	ldr	w8, [x19,#48]
 1fc:	34000248 	cbz	w8, 244 <_ZL16stbi__is_16_mainP13stbi__context+0x244>
 200:	f9400a68 	ldr	x8, [x19,#16]
 204:	f9401660 	ldr	x0, [x19,#40]
 208:	b9403662 	ldr	w2, [x19,#52]
 20c:	9100e274 	add	x20, x19, #0x38
 210:	aa1403e1 	mov	x1, x20
 214:	d63f0100 	blr	x8
 218:	34000080 	cbz	w0, 228 <_ZL16stbi__is_16_mainP13stbi__context+0x228>
 21c:	8b20c268 	add	x8, x19, w0, sxtw
 220:	9100e108 	add	x8, x8, #0x38
 224:	14000004 	b	234 <_ZL16stbi__is_16_mainP13stbi__context+0x234>
 228:	b900327f 	str	wzr, [x19,#48]
 22c:	9100e668 	add	x8, x19, #0x39
 230:	3900e27f 	strb	wzr, [x19,#56]
 234:	a90ba274 	stp	x20, x8, [x19,#184]
 238:	91000688 	add	x8, x20, #0x1
 23c:	f9005e68 	str	x8, [x19,#184]
 240:	39400288 	ldrb	w8, [x20]
 244:	2a0802e8 	orr	w8, w23, w8
 248:	7100451f 	cmp	w8, #0x11
 24c:	540006a2 	b.cs	320 <_ZL16stbi__is_16_mainP13stbi__context+0x320>
 250:	aa1303e0 	mov	x0, x19
 254:	94000000 	bl	0 <_ZL16stbi__is_16_mainP13stbi__context>
 258:	aa1303e0 	mov	x0, x19
 25c:	94000000 	bl	0 <_ZL16stbi__is_16_mainP13stbi__context>
 260:	a94ba274 	ldp	x20, x8, [x19,#184]
 264:	eb08029f 	cmp	x20, x8
 268:	54000223 	b.cc	2ac <_ZL16stbi__is_16_mainP13stbi__context+0x2ac>
 26c:	b9403269 	ldr	w9, [x19,#48]
 270:	34000269 	cbz	w9, 2bc <_ZL16stbi__is_16_mainP13stbi__context+0x2bc>
 274:	f9400a68 	ldr	x8, [x19,#16]
 278:	f9401660 	ldr	x0, [x19,#40]
 27c:	b9403662 	ldr	w2, [x19,#52]
 280:	9100e274 	add	x20, x19, #0x38
 284:	aa1403e1 	mov	x1, x20
 288:	d63f0100 	blr	x8
 28c:	34000080 	cbz	w0, 29c <_ZL16stbi__is_16_mainP13stbi__context+0x29c>
 290:	8b20c268 	add	x8, x19, w0, sxtw
 294:	9100e108 	add	x8, x8, #0x38
 298:	14000004 	b	2a8 <_ZL16stbi__is_16_mainP13stbi__context+0x2a8>
 29c:	b900327f 	str	wzr, [x19,#48]
 2a0:	9100e668 	add	x8, x19, #0x39
 2a4:	3900e27f 	strb	wzr, [x19,#56]
 2a8:	a90ba274 	stp	x20, x8, [x19,#184]
 2ac:	9100068a 	add	x10, x20, #0x1
 2b0:	f9005e6a 	str	x10, [x19,#184]
 2b4:	39400289 	ldrb	w9, [x20]
 2b8:	aa0a03f4 	mov	x20, x10
 2bc:	eb08029f 	cmp	x20, x8
 2c0:	53185d37 	lsl	w23, w9, #8
 2c4:	54000223 	b.cc	308 <_ZL16stbi__is_16_mainP13stbi__context+0x308>
 2c8:	b9403268 	ldr	w8, [x19,#48]
 2cc:	34000248 	cbz	w8, 314 <_ZL16stbi__is_16_mainP13stbi__context+0x314>
 2d0:	f9400a68 	ldr	x8, [x19,#16]
 2d4:	f9401660 	ldr	x0, [x19,#40]
 2d8:	b9403662 	ldr	w2, [x19,#52]
 2dc:	9100e274 	add	x20, x19, #0x38
 2e0:	aa1403e1 	mov	x1, x20
 2e4:	d63f0100 	blr	x8
 2e8:	34000080 	cbz	w0, 2f8 <_ZL16stbi__is_16_mainP13stbi__context+0x2f8>
 2ec:	8b20c268 	add	x8, x19, w0, sxtw
 2f0:	9100e108 	add	x8, x8, #0x38
 2f4:	14000004 	b	304 <_ZL16stbi__is_16_mainP13stbi__context+0x304>
 2f8:	b900327f 	str	wzr, [x19,#48]
 2fc:	9100e668 	add	x8, x19, #0x39
 300:	3900e27f 	strb	wzr, [x19,#56]
 304:	a90ba274 	stp	x20, x8, [x19,#184]
 308:	91000688 	add	x8, x20, #0x1
 30c:	f9005e68 	str	x8, [x19,#184]
 310:	39400288 	ldrb	w8, [x20]
 314:	2a0802e8 	orr	w8, w23, w8
 318:	7100411f 	cmp	w8, #0x10
 31c:	54ffe980 	b.eq	4c <_ZL16stbi__is_16_mainP13stbi__context+0x4c>
 320:	f9406668 	ldr	x8, [x19,#200]
 324:	f9005e68 	str	x8, [x19,#184]
 328:	f9406a68 	ldr	x8, [x19,#208]
 32c:	2a1f03e0 	mov	w0, wzr
 330:	f90002c8 	str	x8, [x22]
 334:	f94016a8 	ldr	x8, [x21,#40]
 338:	f94017e9 	ldr	x9, [sp,#40]
 33c:	eb09011f 	cmp	x8, x9
 340:	540000e1 	b.ne	35c <_ZL16stbi__is_16_mainP13stbi__context+0x35c>
 344:	a9467bfd 	ldp	x29, x30, [sp,#96]
 348:	a9454ff4 	ldp	x20, x19, [sp,#80]
 34c:	a94457f6 	ldp	x22, x21, [sp,#64]
 350:	f9401bf7 	ldr	x23, [sp,#48]
 354:	9101c3ff 	add	sp, sp, #0x70
 358:	d65f03c0 	ret
 35c:	94000000 	bl	0 <__stack_chk_fail>

Disassembly of section .text.stbi_info_from_memory:

0000000000000000 <stbi_info_from_memory>:
   0:	d10403ff 	sub	sp, sp, #0x100
   4:	f90073f3 	str	x19, [sp,#224]
   8:	a90f7bfd 	stp	x29, x30, [sp,#240]
   c:	9103c3fd 	add	x29, sp, #0xf0
  10:	d53bd053 	mrs	x19, tpidr_el0
  14:	f9401668 	ldr	x8, [x19,#40]
  18:	8b21c009 	add	x9, x0, w1, sxtw
  1c:	aa0203e1 	mov	x1, x2
  20:	aa0303e2 	mov	x2, x3
  24:	f81e83a8 	stur	x8, [x29,#-24]
  28:	a90ca7e0 	stp	x0, x9, [sp,#200]
  2c:	a90ba7e0 	stp	x0, x9, [sp,#184]
  30:	910003e0 	mov	x0, sp
  34:	aa0403e3 	mov	x3, x4
  38:	f9000bff 	str	xzr, [sp,#16]
  3c:	b90033ff 	str	wzr, [sp,#48]
  40:	94000000 	bl	0 <stbi_info_from_memory>
  44:	f9401668 	ldr	x8, [x19,#40]
  48:	f85e83a9 	ldur	x9, [x29,#-24]
  4c:	eb09011f 	cmp	x8, x9
  50:	540000a1 	b.ne	64 <stbi_info_from_memory+0x64>
  54:	a94f7bfd 	ldp	x29, x30, [sp,#240]
  58:	f94073f3 	ldr	x19, [sp,#224]
  5c:	910403ff 	add	sp, sp, #0x100
  60:	d65f03c0 	ret
  64:	94000000 	bl	0 <__stack_chk_fail>

Disassembly of section .text.stbi_info_from_callbacks:

0000000000000000 <stbi_info_from_callbacks>:
   0:	d104c3ff 	sub	sp, sp, #0x130
   4:	f90073fc 	str	x28, [sp,#224]
   8:	a90f5ff8 	stp	x24, x23, [sp,#240]
   c:	a91057f6 	stp	x22, x21, [sp,#256]
  10:	a9114ff4 	stp	x20, x19, [sp,#272]
  14:	a9127bfd 	stp	x29, x30, [sp,#288]
  18:	910483fd 	add	x29, sp, #0x120
  1c:	d53bd057 	mrs	x23, tpidr_el0
  20:	f94016e8 	ldr	x8, [x23,#40]
  24:	910003f8 	mov	x24, sp
  28:	b21903e9 	mov	x9, #0x8000000080          	// #549755814016
  2c:	9100e316 	add	x22, x24, #0x38
  30:	f81b83a8 	stur	x8, [x29,#-72]
  34:	3dc00000 	ldr	q0, [x0]
  38:	f2800029 	movk	x9, #0x1
  3c:	aa0203f5 	mov	x21, x2
  40:	321903e2 	orr	w2, wzr, #0x80
  44:	3d8007e0 	str	q0, [sp,#16]
  48:	f9400808 	ldr	x8, [x0,#16]
  4c:	aa0103e0 	mov	x0, x1
  50:	aa0403f3 	mov	x19, x4
  54:	aa0303f4 	mov	x20, x3
  58:	a90207e8 	stp	x8, x1, [sp,#32]
  5c:	f9400be8 	ldr	x8, [sp,#16]
  60:	aa1603e1 	mov	x1, x22
  64:	f9001be9 	str	x9, [sp,#48]
  68:	f90067f6 	str	x22, [sp,#200]
  6c:	d63f0100 	blr	x8
  70:	34000080 	cbz	w0, 80 <stbi_info_from_callbacks+0x80>
  74:	8b20c308 	add	x8, x24, w0, sxtw
  78:	9100e108 	add	x8, x8, #0x38
  7c:	14000004 	b	8c <stbi_info_from_callbacks+0x8c>
  80:	b90033ff 	str	wzr, [sp,#48]
  84:	9100e708 	add	x8, x24, #0x39
  88:	3900e3ff 	strb	wzr, [sp,#56]
  8c:	910003e0 	mov	x0, sp
  90:	aa1503e1 	mov	x1, x21
  94:	aa1403e2 	mov	x2, x20
  98:	aa1303e3 	mov	x3, x19
  9c:	a90ba3f6 	stp	x22, x8, [sp,#184]
  a0:	f9006be8 	str	x8, [sp,#208]
  a4:	94000000 	bl	0 <stbi_info_from_callbacks>
  a8:	f94016e8 	ldr	x8, [x23,#40]
  ac:	f85b83a9 	ldur	x9, [x29,#-72]
  b0:	eb09011f 	cmp	x8, x9
  b4:	54000101 	b.ne	d4 <stbi_info_from_callbacks+0xd4>
  b8:	a9527bfd 	ldp	x29, x30, [sp,#288]
  bc:	a9514ff4 	ldp	x20, x19, [sp,#272]
  c0:	a95057f6 	ldp	x22, x21, [sp,#256]
  c4:	a94f5ff8 	ldp	x24, x23, [sp,#240]
  c8:	f94073fc 	ldr	x28, [sp,#224]
  cc:	9104c3ff 	add	sp, sp, #0x130
  d0:	d65f03c0 	ret
  d4:	94000000 	bl	0 <__stack_chk_fail>

Disassembly of section .text.stbi_is_16_bit_from_memory:

0000000000000000 <stbi_is_16_bit_from_memory>:
   0:	d10403ff 	sub	sp, sp, #0x100
   4:	f90073f3 	str	x19, [sp,#224]
   8:	a90f7bfd 	stp	x29, x30, [sp,#240]
   c:	9103c3fd 	add	x29, sp, #0xf0
  10:	d53bd053 	mrs	x19, tpidr_el0
  14:	f9401668 	ldr	x8, [x19,#40]
  18:	8b21c009 	add	x9, x0, w1, sxtw
  1c:	f81e83a8 	stur	x8, [x29,#-24]
  20:	a90ca7e0 	stp	x0, x9, [sp,#200]
  24:	a90ba7e0 	stp	x0, x9, [sp,#184]
  28:	910003e0 	mov	x0, sp
  2c:	f9000bff 	str	xzr, [sp,#16]
  30:	b90033ff 	str	wzr, [sp,#48]
  34:	94000000 	bl	0 <stbi_is_16_bit_from_memory>
  38:	f9401668 	ldr	x8, [x19,#40]
  3c:	f85e83a9 	ldur	x9, [x29,#-24]
  40:	eb09011f 	cmp	x8, x9
  44:	540000a1 	b.ne	58 <stbi_is_16_bit_from_memory+0x58>
  48:	a94f7bfd 	ldp	x29, x30, [sp,#240]
  4c:	f94073f3 	ldr	x19, [sp,#224]
  50:	910403ff 	add	sp, sp, #0x100
  54:	d65f03c0 	ret
  58:	94000000 	bl	0 <__stack_chk_fail>

Disassembly of section .text.stbi_is_16_bit_from_callbacks:

0000000000000000 <stbi_is_16_bit_from_callbacks>:
   0:	d10443ff 	sub	sp, sp, #0x110
   4:	a90e57fc 	stp	x28, x21, [sp,#224]
   8:	a90f4ff4 	stp	x20, x19, [sp,#240]
   c:	a9107bfd 	stp	x29, x30, [sp,#256]
  10:	910403fd 	add	x29, sp, #0x100
  14:	d53bd054 	mrs	x20, tpidr_el0
  18:	f9401688 	ldr	x8, [x20,#40]
  1c:	910003f5 	mov	x21, sp
  20:	b21903e9 	mov	x9, #0x8000000080          	// #549755814016
  24:	9100e2b3 	add	x19, x21, #0x38
  28:	f81d83a8 	stur	x8, [x29,#-40]
  2c:	3dc00000 	ldr	q0, [x0]
  30:	f2800029 	movk	x9, #0x1
  34:	321903e2 	orr	w2, wzr, #0x80
  38:	3d8007e0 	str	q0, [sp,#16]
  3c:	f9400808 	ldr	x8, [x0,#16]
  40:	aa0103e0 	mov	x0, x1
  44:	f9001be9 	str	x9, [sp,#48]
  48:	f90067f3 	str	x19, [sp,#200]
  4c:	a90207e8 	stp	x8, x1, [sp,#32]
  50:	f9400be8 	ldr	x8, [sp,#16]
  54:	aa1303e1 	mov	x1, x19
  58:	d63f0100 	blr	x8
  5c:	34000080 	cbz	w0, 6c <stbi_is_16_bit_from_callbacks+0x6c>
  60:	8b20c2a8 	add	x8, x21, w0, sxtw
  64:	9100e108 	add	x8, x8, #0x38
  68:	14000004 	b	78 <stbi_is_16_bit_from_callbacks+0x78>
  6c:	b90033ff 	str	wzr, [sp,#48]
  70:	9100e6a8 	add	x8, x21, #0x39
  74:	3900e3ff 	strb	wzr, [sp,#56]
  78:	910003e0 	mov	x0, sp
  7c:	a90ba3f3 	stp	x19, x8, [sp,#184]
  80:	f9006be8 	str	x8, [sp,#208]
  84:	94000000 	bl	0 <stbi_is_16_bit_from_callbacks>
  88:	f9401688 	ldr	x8, [x20,#40]
  8c:	f85d83a9 	ldur	x9, [x29,#-40]
  90:	eb09011f 	cmp	x8, x9
  94:	540000c1 	b.ne	ac <stbi_is_16_bit_from_callbacks+0xac>
  98:	a9507bfd 	ldp	x29, x30, [sp,#256]
  9c:	a94f4ff4 	ldp	x20, x19, [sp,#240]
  a0:	a94e57fc 	ldp	x28, x21, [sp,#224]
  a4:	910443ff 	add	sp, sp, #0x110
  a8:	d65f03c0 	ret
  ac:	94000000 	bl	0 <__stack_chk_fail>

Disassembly of section .text.stbi_flip_vertically_on_write:

0000000000000000 <stbi_flip_vertically_on_write>:
   0:	90000008 	adrp	x8, 4 <stbi_flip_vertically_on_write+0x4>
   4:	f9400108 	ldr	x8, [x8]
   8:	b9000100 	str	w0, [x8]
   c:	d65f03c0 	ret

Disassembly of section .text.stbi_write_bmp_to_func:

0000000000000000 <stbi_write_bmp_to_func>:
   0:	d10383ff 	sub	sp, sp, #0xe0
   4:	f90063f3 	str	x19, [sp,#192]
   8:	a90d7bfd 	stp	x29, x30, [sp,#208]
   c:	910343fd 	add	x29, sp, #0xd0
  10:	d53bd053 	mrs	x19, tpidr_el0
  14:	f940166b 	ldr	x11, [x19,#40]
  18:	0b02044c 	add	w12, w2, w2, lsl #1
  1c:	2a0303ea 	mov	w10, w3
  20:	321d07ed 	orr	w13, wzr, #0x18
  24:	f81e83ab 	stur	x11, [x29,#-24]
  28:	1200044b 	and	w11, w2, #0x3
  2c:	0b0c016c 	add	w12, w11, w12
  30:	1b0a7d8c 	mul	w12, w12, w10
  34:	1100d98c 	add	w12, w12, #0x36
  38:	b9006bed 	str	w13, [sp,#104]
  3c:	528006cd 	mov	w13, #0x36                  	// #54
  40:	aa0503e8 	mov	x8, x5
  44:	2a0403e9 	mov	w9, w4
  48:	b9002bec 	str	w12, [sp,#40]
  4c:	320003ec 	orr	w12, wzr, #0x1
  50:	b9000beb 	str	w11, [sp,#8]
  54:	5280050b 	mov	w11, #0x28                  	// #40
  58:	b90043ed 	str	w13, [sp,#64]
  5c:	9000000d 	adrp	x13, 0 <stbi_write_bmp_to_func>
  60:	a93d87a0 	stp	x0, x1, [x29,#-40]
  64:	b90063ec 	str	w12, [sp,#96]
  68:	528009ac 	mov	w12, #0x4d                  	// #77
  6c:	b9004beb 	str	w11, [sp,#72]
  70:	5280084b 	mov	w11, #0x42                  	// #66
  74:	910001ad 	add	x13, x13, #0x0
  78:	d100a3a0 	sub	x0, x29, #0x28
  7c:	320003e6 	orr	w6, wzr, #0x1
  80:	2a0203e3 	mov	w3, w2
  84:	2a0a03e4 	mov	w4, w10
  88:	2a0903e5 	mov	w5, w9
  8c:	aa0803e7 	mov	x7, x8
  90:	b9009bff 	str	wzr, [sp,#152]
  94:	b90093ff 	str	wzr, [sp,#144]
  98:	b9008bff 	str	wzr, [sp,#136]
  9c:	b90083ff 	str	wzr, [sp,#128]
  a0:	b9007bff 	str	wzr, [sp,#120]
  a4:	b90073ff 	str	wzr, [sp,#112]
  a8:	b9005bea 	str	w10, [sp,#88]
  ac:	b90053e2 	str	w2, [sp,#80]
  b0:	b9003bff 	str	wzr, [sp,#56]
  b4:	b90033ff 	str	wzr, [sp,#48]
  b8:	b90023ec 	str	w12, [sp,#32]
  bc:	b9001beb 	str	w11, [sp,#24]
  c0:	f9000bed 	str	x13, [sp,#16]
  c4:	b90003ff 	str	wzr, [sp]
  c8:	94000000 	bl	0 <stbi_write_bmp_to_func>
  cc:	f9401668 	ldr	x8, [x19,#40]
  d0:	f85e83a9 	ldur	x9, [x29,#-24]
  d4:	eb09011f 	cmp	x8, x9
  d8:	540000a1 	b.ne	ec <stbi_write_bmp_to_func+0xec>
  dc:	a94d7bfd 	ldp	x29, x30, [sp,#208]
  e0:	f94063f3 	ldr	x19, [sp,#192]
  e4:	910383ff 	add	sp, sp, #0xe0
  e8:	d65f03c0 	ret
  ec:	94000000 	bl	0 <__stack_chk_fail>

Disassembly of section .text.stbi_write_bmp:

0000000000000000 <stbi_write_bmp>:
   0:	d10443ff 	sub	sp, sp, #0x110
   4:	f90063fc 	str	x28, [sp,#192]
   8:	a90d5ff8 	stp	x24, x23, [sp,#208]
   c:	a90e57f6 	stp	x22, x21, [sp,#224]
  10:	a90f4ff4 	stp	x20, x19, [sp,#240]
  14:	a9107bfd 	stp	x29, x30, [sp,#256]
  18:	910403fd 	add	x29, sp, #0x100
  1c:	d53bd058 	mrs	x24, tpidr_el0
  20:	f9401708 	ldr	x8, [x24,#40]
  24:	2a0103f6 	mov	w22, w1
  28:	90000001 	adrp	x1, 0 <stbi_write_bmp>
  2c:	91000021 	add	x1, x1, #0x0
  30:	aa0403f3 	mov	x19, x4
  34:	2a0303f4 	mov	w20, w3
  38:	2a0203f5 	mov	w21, w2
  3c:	f81b83a8 	stur	x8, [x29,#-72]
  40:	94000000 	bl	0 <fopen>
  44:	90000008 	adrp	x8, 0 <stbi_write_bmp>
  48:	aa0003f7 	mov	x23, x0
  4c:	91000108 	add	x8, x8, #0x0
  50:	a93adfa8 	stp	x8, x23, [x29,#-88]
  54:	b40005b7 	cbz	x23, 108 <stbi_write_bmp+0x108>
  58:	321d07ea 	orr	w10, wzr, #0x18
  5c:	120006c8 	and	w8, w22, #0x3
  60:	0b1606c9 	add	w9, w22, w22, lsl #1
  64:	b9006bea 	str	w10, [sp,#104]
  68:	5280050a 	mov	w10, #0x28                  	// #40
  6c:	0b090109 	add	w9, w8, w9
  70:	b9000be8 	str	w8, [sp,#8]
  74:	320003e8 	orr	w8, wzr, #0x1
  78:	b9004bea 	str	w10, [sp,#72]
  7c:	528009aa 	mov	w10, #0x4d                  	// #77
  80:	1b157d29 	mul	w9, w9, w21
  84:	b90063e8 	str	w8, [sp,#96]
  88:	528006c8 	mov	w8, #0x36                  	// #54
  8c:	b90023ea 	str	w10, [sp,#32]
  90:	9000000a 	adrp	x10, 0 <stbi_write_bmp>
  94:	1100d929 	add	w9, w9, #0x36
  98:	b90043e8 	str	w8, [sp,#64]
  9c:	52800848 	mov	w8, #0x42                  	// #66
  a0:	9100014a 	add	x10, x10, #0x0
  a4:	d10163a0 	sub	x0, x29, #0x58
  a8:	320003e6 	orr	w6, wzr, #0x1
  ac:	2a1603e3 	mov	w3, w22
  b0:	2a1503e4 	mov	w4, w21
  b4:	2a1403e5 	mov	w5, w20
  b8:	aa1303e7 	mov	x7, x19
  bc:	b9009bff 	str	wzr, [sp,#152]
  c0:	b90093ff 	str	wzr, [sp,#144]
  c4:	b9008bff 	str	wzr, [sp,#136]
  c8:	b90083ff 	str	wzr, [sp,#128]
  cc:	b9007bff 	str	wzr, [sp,#120]
  d0:	b90073ff 	str	wzr, [sp,#112]
  d4:	b9005bf5 	str	w21, [sp,#88]
  d8:	b90053f6 	str	w22, [sp,#80]
  dc:	b9003bff 	str	wzr, [sp,#56]
  e0:	b90033ff 	str	wzr, [sp,#48]
  e4:	b90003ff 	str	wzr, [sp]
  e8:	b9001be8 	str	w8, [sp,#24]
  ec:	f9000bea 	str	x10, [sp,#16]
  f0:	b9002be9 	str	w9, [sp,#40]
  f4:	94000000 	bl	0 <stbi_write_bmp>
  f8:	2a0003f3 	mov	w19, w0
  fc:	aa1703e0 	mov	x0, x23
 100:	94000000 	bl	0 <fclose>
 104:	14000002 	b	10c <stbi_write_bmp+0x10c>
 108:	2a1f03f3 	mov	w19, wzr
 10c:	f9401708 	ldr	x8, [x24,#40]
 110:	f85b83a9 	ldur	x9, [x29,#-72]
 114:	eb09011f 	cmp	x8, x9
 118:	54000121 	b.ne	13c <stbi_write_bmp+0x13c>
 11c:	2a1303e0 	mov	w0, w19
 120:	a9507bfd 	ldp	x29, x30, [sp,#256]
 124:	a94f4ff4 	ldp	x20, x19, [sp,#240]
 128:	a94e57f6 	ldp	x22, x21, [sp,#224]
 12c:	a94d5ff8 	ldp	x24, x23, [sp,#208]
 130:	f94063fc 	ldr	x28, [sp,#192]
 134:	910443ff 	add	sp, sp, #0x110
 138:	d65f03c0 	ret
 13c:	94000000 	bl	0 <__stack_chk_fail>

Disassembly of section .text.stbi_write_tga_to_func:

0000000000000000 <stbi_write_tga_to_func>:
   0:	d10103ff 	sub	sp, sp, #0x40
   4:	f90013f3 	str	x19, [sp,#32]
   8:	a9037bfd 	stp	x29, x30, [sp,#48]
   c:	9100c3fd 	add	x29, sp, #0x30
  10:	d53bd053 	mrs	x19, tpidr_el0
  14:	f9401668 	ldr	x8, [x19,#40]
  18:	f9000fe8 	str	x8, [sp,#24]
  1c:	a90087e0 	stp	x0, x1, [sp,#8]
  20:	910023e0 	add	x0, sp, #0x8
  24:	2a0203e1 	mov	w1, w2
  28:	2a0303e2 	mov	w2, w3
  2c:	2a0403e3 	mov	w3, w4
  30:	aa0503e4 	mov	x4, x5
  34:	94000000 	bl	0 <stbi_write_tga_to_func>
  38:	f9401668 	ldr	x8, [x19,#40]
  3c:	f9400fe9 	ldr	x9, [sp,#24]
  40:	eb09011f 	cmp	x8, x9
  44:	540000a1 	b.ne	58 <stbi_write_tga_to_func+0x58>
  48:	a9437bfd 	ldp	x29, x30, [sp,#48]
  4c:	f94013f3 	ldr	x19, [sp,#32]
  50:	910103ff 	add	sp, sp, #0x40
  54:	d65f03c0 	ret
  58:	94000000 	bl	0 <__stack_chk_fail>

Disassembly of section .text._ZL19stbi_write_tga_coreP19stbi__write_contextiiiPv:

0000000000000000 <_ZL19stbi_write_tga_coreP19stbi__write_contextiiiPv>:
   0:	d105c3ff 	sub	sp, sp, #0x170
   4:	a9116ffc 	stp	x28, x27, [sp,#272]
   8:	a91267fa 	stp	x26, x25, [sp,#288]
   c:	a9135ff8 	stp	x24, x23, [sp,#304]
  10:	a91457f6 	stp	x22, x21, [sp,#320]
  14:	a9154ff4 	stp	x20, x19, [sp,#336]
  18:	a9167bfd 	stp	x29, x30, [sp,#352]
  1c:	910583fd 	add	x29, sp, #0x160
  20:	2a0303f4 	mov	w20, w3
  24:	71000a9f 	cmp	w20, #0x2
  28:	f9004be4 	str	x4, [sp,#144]
  2c:	d53bd053 	mrs	x19, tpidr_el0
  30:	1a9f17e9 	cset	w9, eq
  34:	7100129f 	cmp	w20, #0x4
  38:	f940166a 	ldr	x10, [x19,#40]
  3c:	1a9f17eb 	cset	w11, eq
  40:	2a0b0137 	orr	w23, w9, w11
  44:	4b170289 	sub	w9, w20, w23
  48:	2a0203f8 	mov	w24, w2
  4c:	2a0103fa 	mov	w26, w1
  50:	321f03e8 	orr	w8, wzr, #0x2
  54:	7100093f 	cmp	w9, #0x2
  58:	aa0003f6 	mov	x22, x0
  5c:	f81a83aa 	stur	x10, [x29,#-88]
  60:	2a1a030a 	orr	w10, w24, w26
  64:	1a88a508 	cinc	w8, w8, lt
  68:	37f8180a 	tbnz	w10, #31, 368 <_ZL19stbi_write_tga_coreP19stbi__write_contextiiiPv+0x368>
  6c:	9000000a 	adrp	x10, 4 <_ZL19stbi_write_tga_coreP19stbi__write_contextiiiPv+0x4>
  70:	f940014a 	ldr	x10, [x10]
  74:	b940014a 	ldr	w10, [x10]
  78:	340017ca 	cbz	w10, 370 <_ZL19stbi_write_tga_coreP19stbi__write_contextiiiPv+0x370>
  7c:	321d0104 	orr	w4, w8, #0x8
  80:	0b170128 	add	w8, w9, w23
  84:	531d7108 	lsl	w8, w8, #3
  88:	531d72e9 	lsl	w9, w23, #3
  8c:	aa1603e0 	mov	x0, x22
  90:	2a1f03e2 	mov	w2, wzr
  94:	2a1f03e3 	mov	w3, wzr
  98:	2a1f03e5 	mov	w5, wzr
  9c:	2a1f03e6 	mov	w6, wzr
  a0:	2a1f03e7 	mov	w7, wzr
  a4:	b9002be9 	str	w9, [sp,#40]
  a8:	b9001bf8 	str	w24, [sp,#24]
  ac:	b90013fa 	str	w26, [sp,#16]
  b0:	b9000bff 	str	wzr, [sp,#8]
  b4:	b90003ff 	str	wzr, [sp]
  b8:	b90023e8 	str	w8, [sp,#32]
  bc:	94000000 	bl	0 <_ZL19stbi_write_tga_coreP19stbi__write_contextiiiPv>
  c0:	90000008 	adrp	x8, 4 <_ZL19stbi_write_tga_coreP19stbi__write_contextiiiPv+0x4>
  c4:	f9400108 	ldr	x8, [x8]
  c8:	51000709 	sub	w9, w24, #0x1
  cc:	b9400108 	ldr	w8, [x8]
  d0:	7100011f 	cmp	w8, #0x0
  d4:	1a9f0129 	csel	w9, w9, wzr, eq
  d8:	5a9f130a 	csinv	w10, w24, wzr, ne
  dc:	6b0a013f 	cmp	w9, w10
  e0:	b900afea 	str	w10, [sp,#172]
  e4:	540013e0 	b.eq	360 <_ZL19stbi_write_tga_coreP19stbi__write_contextiiiPv+0x360>
  e8:	93407f4b 	sxtw	x11, w26
  ec:	f81983ab 	stur	x11, [x29,#-104]
  f0:	93407d2b 	sxtw	x11, w9
  f4:	7100011f 	cmp	w8, #0x0
  f8:	92800008 	mov	x8, #0xffffffffffffffff    	// #-1
  fc:	1b1a7e8a 	mul	w10, w20, w26
 100:	f81583ab 	stur	x11, [x29,#-168]
 104:	1b147d29 	mul	w9, w9, w20
 108:	da88050b 	cneg	x11, x8, ne
 10c:	51000755 	sub	w21, w26, #0x1
 110:	93407e98 	sxtw	x24, w20
 114:	1b1a7d28 	mul	w8, w9, w26
 118:	1b0b7d49 	mul	w9, w10, w11
 11c:	f90043f3 	str	x19, [sp,#128]
 120:	b9008fea 	str	w10, [sp,#140]
 124:	f90053eb 	str	x11, [sp,#160]
 128:	b9009fe9 	str	w9, [sp,#156]
 12c:	b816c3b5 	stur	w21, [x29,#-148]
 130:	f81603ba 	stur	x26, [x29,#-160]
 134:	7100075f 	cmp	w26, #0x1
 138:	93407d08 	sxtw	x8, w8
 13c:	f9005be8 	str	x8, [sp,#176]
 140:	54000fab 	b.lt	334 <_ZL19stbi_write_tga_coreP19stbi__write_contextiiiPv+0x334>
 144:	b9408fe9 	ldr	w9, [sp,#140]
 148:	f85583aa 	ldur	x10, [x29,#-168]
 14c:	2a1f03e8 	mov	w8, wzr
 150:	1b0a7d29 	mul	w9, w9, w10
 154:	f9404bea 	ldr	x10, [sp,#144]
 158:	8b29c149 	add	x9, x10, w9, sxtw
 15c:	f81803a9 	stur	x9, [x29,#-128]
 160:	f9405be9 	ldr	x9, [sp,#176]
 164:	8b090149 	add	x9, x10, x9
 168:	f81883a9 	stur	x9, [x29,#-120]
 16c:	93407d1c 	sxtw	x28, w8
 170:	6b15011f 	cmp	w8, w21
 174:	9b187f99 	mul	x25, x28, x24
 178:	540004ca 	b.ge	210 <_ZL19stbi_write_tga_coreP19stbi__write_contextiiiPv+0x210>
 17c:	f85803a9 	ldur	x9, [x29,#-128]
 180:	91000788 	add	x8, x28, #0x1
 184:	aa1803e2 	mov	x2, x24
 188:	8b190120 	add	x0, x9, x25
 18c:	9b182501 	madd	x1, x8, x24, x9
 190:	f81903a0 	stur	x0, [x29,#-112]
 194:	94000000 	bl	0 <memcmp>
 198:	11000b88 	add	w8, w28, #0x2
 19c:	6b1a011f 	cmp	w8, w26
 1a0:	340003c0 	cbz	w0, 218 <_ZL19stbi_write_tga_coreP19stbi__write_contextiiiPv+0x218>
 1a4:	5400068a 	b.ge	274 <_ZL19stbi_write_tga_coreP19stbi__write_contextiiiPv+0x274>
 1a8:	f85883a9 	ldur	x9, [x29,#-120]
 1ac:	93407d08 	sxtw	x8, w8
 1b0:	aa1f03f3 	mov	x19, xzr
 1b4:	aa1f03fb 	mov	x27, xzr
 1b8:	9b08271a 	madd	x26, x24, x8, x9
 1bc:	91000515 	add	x21, x8, #0x1
 1c0:	f81703b9 	stur	x25, [x29,#-144]
 1c4:	8b190139 	add	x25, x9, x25
 1c8:	b817c3a0 	stur	w0, [x29,#-132]
 1cc:	8b1b0320 	add	x0, x25, x27
 1d0:	8b1b0341 	add	x1, x26, x27
 1d4:	aa1803e2 	mov	x2, x24
 1d8:	94000000 	bl	0 <memcmp>
 1dc:	34000540 	cbz	w0, 284 <_ZL19stbi_write_tga_coreP19stbi__write_contextiiiPv+0x284>
 1e0:	f85983a9 	ldur	x9, [x29,#-104]
 1e4:	8b1302a8 	add	x8, x21, x19
 1e8:	eb09011f 	cmp	x8, x9
 1ec:	91000668 	add	x8, x19, #0x1
 1f0:	540000ca 	b.ge	208 <_ZL19stbi_write_tga_coreP19stbi__write_contextiiiPv+0x208>
 1f4:	91000a69 	add	x9, x19, #0x2
 1f8:	7101fd3f 	cmp	w9, #0x7f
 1fc:	8b18037b 	add	x27, x27, x24
 200:	aa0803f3 	mov	x19, x8
 204:	54fffe4b 	b.lt	1cc <_ZL19stbi_write_tga_coreP19stbi__write_contextiiiPv+0x1cc>
 208:	1100091b 	add	w27, w8, #0x2
 20c:	1400001f 	b	288 <_ZL19stbi_write_tga_coreP19stbi__write_contextiiiPv+0x288>
 210:	320003fb 	orr	w27, wzr, #0x1
 214:	14000024 	b	2a4 <_ZL19stbi_write_tga_coreP19stbi__write_contextiiiPv+0x2a4>
 218:	5400032a 	b.ge	27c <_ZL19stbi_write_tga_coreP19stbi__write_contextiiiPv+0x27c>
 21c:	93407d13 	sxtw	x19, w8
 220:	f85883a8 	ldur	x8, [x29,#-120]
 224:	320003f5 	orr	w21, wzr, #0x1
 228:	b817c3a0 	stur	w0, [x29,#-132]
 22c:	d503201f 	nop
 230:	9b13231b 	madd	x27, x24, x19, x8
 234:	f85903a0 	ldur	x0, [x29,#-112]
 238:	aa1b03e1 	mov	x1, x27
 23c:	aa1803e2 	mov	x2, x24
 240:	94000000 	bl	0 <memcmp>
 244:	35000280 	cbnz	w0, 294 <_ZL19stbi_write_tga_coreP19stbi__write_contextiiiPv+0x294>
 248:	f85983a9 	ldur	x9, [x29,#-104]
 24c:	8b150268 	add	x8, x19, x21
 250:	eb09011f 	cmp	x8, x9
 254:	910006a8 	add	x8, x21, #0x1
 258:	540000aa 	b.ge	26c <_ZL19stbi_write_tga_coreP19stbi__write_contextiiiPv+0x26c>
 25c:	7101fd1f 	cmp	w8, #0x7f
 260:	8b18037b 	add	x27, x27, x24
 264:	aa0803f5 	mov	x21, x8
 268:	54fffe6b 	b.lt	234 <_ZL19stbi_write_tga_coreP19stbi__write_contextiiiPv+0x234>
 26c:	1100051b 	add	w27, w8, #0x1
 270:	1400000a 	b	298 <_ZL19stbi_write_tga_coreP19stbi__write_contextiiiPv+0x298>
 274:	321f03fb 	orr	w27, wzr, #0x2
 278:	1400000b 	b	2a4 <_ZL19stbi_write_tga_coreP19stbi__write_contextiiiPv+0x2a4>
 27c:	321f03fb 	orr	w27, wzr, #0x2
 280:	1400001e 	b	2f8 <_ZL19stbi_write_tga_coreP19stbi__write_contextiiiPv+0x2f8>
 284:	1100067b 	add	w27, w19, #0x1
 288:	f85603ba 	ldur	x26, [x29,#-160]
 28c:	f85703b9 	ldur	x25, [x29,#-144]
 290:	14000002 	b	298 <_ZL19stbi_write_tga_coreP19stbi__write_contextiiiPv+0x298>
 294:	110006bb 	add	w27, w21, #0x1
 298:	b856c3b5 	ldur	w21, [x29,#-148]
 29c:	b857c3a8 	ldur	w8, [x29,#-132]
 2a0:	340002c8 	cbz	w8, 2f8 <_ZL19stbi_write_tga_coreP19stbi__write_contextiiiPv+0x2f8>
 2a4:	1103ff68 	add	w8, w27, #0xff
 2a8:	381a43a8 	sturb	w8, [x29,#-92]
 2ac:	a94002c8 	ldp	x8, x0, [x22]
 2b0:	d10173a1 	sub	x1, x29, #0x5c
 2b4:	320003e2 	orr	w2, wzr, #0x1
 2b8:	d63f0100 	blr	x8
 2bc:	7100077f 	cmp	w27, #0x1
 2c0:	5400034b 	b.lt	328 <_ZL19stbi_write_tga_coreP19stbi__write_contextiiiPv+0x328>
 2c4:	f85883a8 	ldur	x8, [x29,#-120]
 2c8:	2a1b03f3 	mov	w19, w27
 2cc:	8b190119 	add	x25, x8, x25
 2d0:	aa1603e0 	mov	x0, x22
 2d4:	2a1403e1 	mov	w1, w20
 2d8:	2a1703e2 	mov	w2, w23
 2dc:	2a1f03e3 	mov	w3, wzr
 2e0:	aa1903e4 	mov	x4, x25
 2e4:	94000000 	bl	0 <_ZL19stbi_write_tga_coreP19stbi__write_contextiiiPv>
 2e8:	d1000673 	sub	x19, x19, #0x1
 2ec:	8b180339 	add	x25, x25, x24
 2f0:	b5ffff13 	cbnz	x19, 2d0 <_ZL19stbi_write_tga_coreP19stbi__write_contextiiiPv+0x2d0>
 2f4:	1400000d 	b	328 <_ZL19stbi_write_tga_coreP19stbi__write_contextiiiPv+0x328>
 2f8:	1101ff68 	add	w8, w27, #0x7f
 2fc:	381a03a8 	sturb	w8, [x29,#-96]
 300:	a94002c8 	ldp	x8, x0, [x22]
 304:	d10183a1 	sub	x1, x29, #0x60
 308:	320003e2 	orr	w2, wzr, #0x1
 30c:	d63f0100 	blr	x8
 310:	f85903a4 	ldur	x4, [x29,#-112]
 314:	aa1603e0 	mov	x0, x22
 318:	2a1403e1 	mov	w1, w20
 31c:	2a1703e2 	mov	w2, w23
 320:	2a1f03e3 	mov	w3, wzr
 324:	94000000 	bl	0 <_ZL19stbi_write_tga_coreP19stbi__write_contextiiiPv>
 328:	0b1c0368 	add	w8, w27, w28
 32c:	6b1a011f 	cmp	w8, w26
 330:	54fff1eb 	b.lt	16c <_ZL19stbi_write_tga_coreP19stbi__write_contextiiiPv+0x16c>
 334:	f85583a9 	ldur	x9, [x29,#-168]
 338:	f94053e8 	ldr	x8, [sp,#160]
 33c:	8b080129 	add	x9, x9, x8
 340:	b940afe8 	ldr	w8, [sp,#172]
 344:	f81583a9 	stur	x9, [x29,#-168]
 348:	6b09011f 	cmp	w8, w9
 34c:	b9409fe8 	ldr	w8, [sp,#156]
 350:	f9405be9 	ldr	x9, [sp,#176]
 354:	0b080128 	add	w8, w9, w8
 358:	54ffeee1 	b.ne	134 <_ZL19stbi_write_tga_coreP19stbi__write_contextiiiPv+0x134>
 35c:	f94043f3 	ldr	x19, [sp,#128]
 360:	320003e0 	orr	w0, wzr, #0x1
 364:	1400001e 	b	3dc <_ZL19stbi_write_tga_coreP19stbi__write_contextiiiPv+0x3dc>
 368:	2a1f03e0 	mov	w0, wzr
 36c:	1400001c 	b	3dc <_ZL19stbi_write_tga_coreP19stbi__write_contextiiiPv+0x3dc>
 370:	f9404be7 	ldr	x7, [sp,#144]
 374:	0b170129 	add	w9, w9, w23
 378:	b9002be8 	str	w8, [sp,#40]
 37c:	90000008 	adrp	x8, 0 <_ZL19stbi_write_tga_coreP19stbi__write_contextiiiPv>
 380:	531d7129 	lsl	w9, w9, #3
 384:	531d72ea 	lsl	w10, w23, #3
 388:	91000108 	add	x8, x8, #0x0
 38c:	aa1603e0 	mov	x0, x22
 390:	2a1a03e3 	mov	w3, w26
 394:	2a1803e4 	mov	w4, w24
 398:	2a1403e5 	mov	w5, w20
 39c:	2a1f03e6 	mov	w6, wzr
 3a0:	b90073ea 	str	w10, [sp,#112]
 3a4:	b90063f8 	str	w24, [sp,#96]
 3a8:	b9005bfa 	str	w26, [sp,#88]
 3ac:	b90053ff 	str	wzr, [sp,#80]
 3b0:	b9004bff 	str	wzr, [sp,#72]
 3b4:	b90043ff 	str	wzr, [sp,#64]
 3b8:	b9003bff 	str	wzr, [sp,#56]
 3bc:	b90033ff 	str	wzr, [sp,#48]
 3c0:	b90023ff 	str	wzr, [sp,#32]
 3c4:	b9001bff 	str	wzr, [sp,#24]
 3c8:	b9000bff 	str	wzr, [sp,#8]
 3cc:	b90003f7 	str	w23, [sp]
 3d0:	f9000be8 	str	x8, [sp,#16]
 3d4:	b9006be9 	str	w9, [sp,#104]
 3d8:	94000000 	bl	0 <_ZL19stbi_write_tga_coreP19stbi__write_contextiiiPv>
 3dc:	f9401668 	ldr	x8, [x19,#40]
 3e0:	f85a83a9 	ldur	x9, [x29,#-88]
 3e4:	eb09011f 	cmp	x8, x9
 3e8:	54000121 	b.ne	40c <_ZL19stbi_write_tga_coreP19stbi__write_contextiiiPv+0x40c>
 3ec:	a9567bfd 	ldp	x29, x30, [sp,#352]
 3f0:	a9554ff4 	ldp	x20, x19, [sp,#336]
 3f4:	a95457f6 	ldp	x22, x21, [sp,#320]
 3f8:	a9535ff8 	ldp	x24, x23, [sp,#304]
 3fc:	a95267fa 	ldp	x26, x25, [sp,#288]
 400:	a9516ffc 	ldp	x28, x27, [sp,#272]
 404:	9105c3ff 	add	sp, sp, #0x170
 408:	d65f03c0 	ret
 40c:	94000000 	bl	0 <__stack_chk_fail>

Disassembly of section .text.stbi_write_tga:

0000000000000000 <stbi_write_tga>:
   0:	d10183ff 	sub	sp, sp, #0x60
   4:	a9025ff8 	stp	x24, x23, [sp,#32]
   8:	a90357f6 	stp	x22, x21, [sp,#48]
   c:	a9044ff4 	stp	x20, x19, [sp,#64]
  10:	a9057bfd 	stp	x29, x30, [sp,#80]
  14:	910143fd 	add	x29, sp, #0x50
  18:	d53bd058 	mrs	x24, tpidr_el0
  1c:	f9401708 	ldr	x8, [x24,#40]
  20:	2a0103f6 	mov	w22, w1
  24:	90000001 	adrp	x1, 0 <stbi_write_tga>
  28:	91000021 	add	x1, x1, #0x0
  2c:	aa0403f3 	mov	x19, x4
  30:	2a0303f4 	mov	w20, w3
  34:	2a0203f5 	mov	w21, w2
  38:	f9000fe8 	str	x8, [sp,#24]
  3c:	94000000 	bl	0 <fopen>
  40:	90000008 	adrp	x8, 0 <stbi_write_tga>
  44:	aa0003f7 	mov	x23, x0
  48:	91000108 	add	x8, x8, #0x0
  4c:	a900dfe8 	stp	x8, x23, [sp,#8]
  50:	b4000177 	cbz	x23, 7c <stbi_write_tga+0x7c>
  54:	910023e0 	add	x0, sp, #0x8
  58:	2a1603e1 	mov	w1, w22
  5c:	2a1503e2 	mov	w2, w21
  60:	2a1403e3 	mov	w3, w20
  64:	aa1303e4 	mov	x4, x19
  68:	94000000 	bl	0 <stbi_write_tga>
  6c:	2a0003f3 	mov	w19, w0
  70:	aa1703e0 	mov	x0, x23
  74:	94000000 	bl	0 <fclose>
  78:	14000002 	b	80 <stbi_write_tga+0x80>
  7c:	2a1f03f3 	mov	w19, wzr
  80:	f9401708 	ldr	x8, [x24,#40]
  84:	f9400fe9 	ldr	x9, [sp,#24]
  88:	eb09011f 	cmp	x8, x9
  8c:	54000101 	b.ne	ac <stbi_write_tga+0xac>
  90:	2a1303e0 	mov	w0, w19
  94:	a9457bfd 	ldp	x29, x30, [sp,#80]
  98:	a9444ff4 	ldp	x20, x19, [sp,#64]
  9c:	a94357f6 	ldp	x22, x21, [sp,#48]
  a0:	a9425ff8 	ldp	x24, x23, [sp,#32]
  a4:	910183ff 	add	sp, sp, #0x60
  a8:	d65f03c0 	ret
  ac:	94000000 	bl	0 <__stack_chk_fail>

Disassembly of section .text.stbi_write_hdr_to_func:

0000000000000000 <stbi_write_hdr_to_func>:
   0:	d10103ff 	sub	sp, sp, #0x40
   4:	f90013f3 	str	x19, [sp,#32]
   8:	a9037bfd 	stp	x29, x30, [sp,#48]
   c:	9100c3fd 	add	x29, sp, #0x30
  10:	d53bd053 	mrs	x19, tpidr_el0
  14:	f9401668 	ldr	x8, [x19,#40]
  18:	f9000fe8 	str	x8, [sp,#24]
  1c:	a90087e0 	stp	x0, x1, [sp,#8]
  20:	910023e0 	add	x0, sp, #0x8
  24:	2a0203e1 	mov	w1, w2
  28:	2a0303e2 	mov	w2, w3
  2c:	2a0403e3 	mov	w3, w4
  30:	aa0503e4 	mov	x4, x5
  34:	94000000 	bl	0 <stbi_write_hdr_to_func>
  38:	f9401668 	ldr	x8, [x19,#40]
  3c:	f9400fe9 	ldr	x9, [sp,#24]
  40:	eb09011f 	cmp	x8, x9
  44:	540000a1 	b.ne	58 <stbi_write_hdr_to_func+0x58>
  48:	a9437bfd 	ldp	x29, x30, [sp,#48]
  4c:	f94013f3 	ldr	x19, [sp,#32]
  50:	910103ff 	add	sp, sp, #0x40
  54:	d65f03c0 	ret
  58:	94000000 	bl	0 <__stack_chk_fail>

Disassembly of section .text._ZL19stbi_write_hdr_coreP19stbi__write_contextiiiPf:

0000000000000000 <_ZL19stbi_write_hdr_coreP19stbi__write_contextiiiPf>:
   0:	6db733ed 	stp	d13, d12, [sp,#-144]!
   4:	6d012beb 	stp	d11, d10, [sp,#16]
   8:	6d0223e9 	stp	d9, d8, [sp,#32]
   c:	a9036ffc 	stp	x28, x27, [sp,#48]
  10:	a90467fa 	stp	x26, x25, [sp,#64]
  14:	a9055ff8 	stp	x24, x23, [sp,#80]
  18:	a90657f6 	stp	x22, x21, [sp,#96]
  1c:	a9074ff4 	stp	x20, x19, [sp,#112]
  20:	a9087bfd 	stp	x29, x30, [sp,#128]
  24:	910203fd 	add	x29, sp, #0x80
  28:	d105c3ff 	sub	sp, sp, #0x170
  2c:	f90023e4 	str	x4, [sp,#64]
  30:	d53bd049 	mrs	x9, tpidr_el0
  34:	f9401528 	ldr	x8, [x9,#40]
  38:	2a0303f8 	mov	w24, w3
  3c:	2a0203f3 	mov	w19, w2
  40:	aa0003f6 	mov	x22, x0
  44:	2a1f03e0 	mov	w0, wzr
  48:	7100043f 	cmp	w1, #0x1
  4c:	f90043e1 	str	x1, [sp,#128]
  50:	f81783a8 	stur	x8, [x29,#-136]
  54:	5400312b 	b.lt	678 <_ZL19stbi_write_hdr_coreP19stbi__write_contextiiiPf+0x678>
  58:	7100067f 	cmp	w19, #0x1
  5c:	540030eb 	b.lt	678 <_ZL19stbi_write_hdr_coreP19stbi__write_contextiiiPf+0x678>
  60:	f94023e8 	ldr	x8, [sp,#64]
  64:	b40030a8 	cbz	x8, 678 <_ZL19stbi_write_hdr_coreP19stbi__write_contextiiiPf+0x678>
  68:	f94043f4 	ldr	x20, [sp,#128]
  6c:	f9000be9 	str	x9, [sp,#16]
  70:	531e7688 	lsl	w8, w20, #2
  74:	93407d00 	sxtw	x0, w8
  78:	94000000 	bl	0 <malloc>
  7c:	90000001 	adrp	x1, 0 <_ZL19stbi_write_hdr_coreP19stbi__write_contextiiiPf>
  80:	f90033e0 	str	x0, [sp,#96]
  84:	91000021 	add	x1, x1, #0x0
  88:	910263e0 	add	x0, sp, #0x98
  8c:	52800842 	mov	w2, #0x42                  	// #66
  90:	94000000 	bl	0 <memcpy>
  94:	a94002c8 	ldp	x8, x0, [x22]
  98:	910263e1 	add	x1, sp, #0x98
  9c:	52800822 	mov	w2, #0x41                  	// #65
  a0:	d63f0100 	blr	x8
  a4:	90000001 	adrp	x1, 0 <_ZL19stbi_write_hdr_coreP19stbi__write_contextiiiPf>
  a8:	91000021 	add	x1, x1, #0x0
  ac:	910373e0 	add	x0, sp, #0xdc
  b0:	2a1303e2 	mov	w2, w19
  b4:	2a1403e3 	mov	w3, w20
  b8:	94000000 	bl	0 <sprintf>
  bc:	a94022c9 	ldp	x9, x8, [x22]
  c0:	2a0003e2 	mov	w2, w0
  c4:	910373e1 	add	x1, sp, #0xdc
  c8:	aa0803e0 	mov	x0, x8
  cc:	d63f0120 	blr	x9
  d0:	71000668 	subs	w8, w19, #0x1
  d4:	b9003fe8 	str	w8, [sp,#60]
  d8:	54002c8b 	b.lt	668 <_ZL19stbi_write_hdr_coreP19stbi__write_contextiiiPf+0x668>
  dc:	f94023ea 	ldr	x10, [sp,#64]
  e0:	f94043ec 	ldr	x12, [sp,#128]
  e4:	9000000b 	adrp	x11, 0 <_ZL19stbi_write_hdr_coreP19stbi__write_contextiiiPf>
  e8:	51000f09 	sub	w9, w24, #0x3
  ec:	9100214a 	add	x10, x10, #0x8
  f0:	f9000fea 	str	x10, [sp,#24]
  f4:	f94033ea 	ldr	x10, [sp,#96]
  f8:	bd400169 	ldr	s9, [x11]
  fc:	1b0c7f08 	mul	w8, w24, w12
 100:	b9002be9 	str	w9, [sp,#40]
 104:	9100054a 	add	x10, x10, #0x1
 108:	f90013ea 	str	x10, [sp,#32]
 10c:	53087d8a 	lsr	w10, w12, #8
 110:	b90037ea 	str	w10, [sp,#52]
 114:	9000000a 	adrp	x10, 0 <_ZL19stbi_write_hdr_coreP19stbi__write_contextiiiPf>
 118:	bd400148 	ldr	s8, [x10]
 11c:	2a0c03e9 	mov	w9, w12
 120:	b9003be8 	str	w8, [sp,#56]
 124:	51002188 	sub	w8, w12, #0x8
 128:	f90027e9 	str	x9, [sp,#72]
 12c:	531f7989 	lsl	w9, w12, #1
 130:	93407d9b 	sxtw	x27, w12
 134:	2a1f03ed 	mov	w13, wzr
 138:	937e7f17 	sbfiz	x23, x24, #2, #32
 13c:	321d03f9 	orr	w25, wzr, #0x8
 140:	321e03fa 	orr	w26, wzr, #0x4
 144:	8b2cc76c 	add	x12, x27, w12, sxtw #1
 148:	93407d29 	sxtw	x9, w9
 14c:	53037d08 	lsr	w8, w8, #3
 150:	321903fc 	orr	w28, wzr, #0x80
 154:	a906b3e9 	stp	x9, x12, [sp,#104]
 158:	b90033e8 	str	w8, [sp,#48]
 15c:	f9002ff7 	str	x23, [sp,#88]
 160:	b9002ff3 	str	w19, [sp,#44]
 164:	90000008 	adrp	x8, 4 <_ZL19stbi_write_hdr_coreP19stbi__write_contextiiiPf+0x4>
 168:	f9400108 	ldr	x8, [x8]
 16c:	b9403fe9 	ldr	w9, [sp,#60]
 170:	5280404a 	mov	w10, #0x202                 	// #514
 174:	b9008bea 	str	w10, [sp,#136]
 178:	b9400108 	ldr	w8, [x8]
 17c:	4b0d0129 	sub	w9, w9, w13
 180:	b94037ea 	ldr	w10, [sp,#52]
 184:	f94043f8 	ldr	x24, [sp,#128]
 188:	7100011f 	cmp	w8, #0x0
 18c:	1a8901a8 	csel	w8, w13, w9, eq
 190:	b94033e9 	ldr	w9, [sp,#48]
 194:	39022bea 	strb	w10, [sp,#138]
 198:	f94023ea 	ldr	x10, [sp,#64]
 19c:	b90057ed 	str	w13, [sp,#84]
 1a0:	713ff93f 	cmp	w9, #0xffe
 1a4:	b9403be9 	ldr	w9, [sp,#56]
 1a8:	39022ff8 	strb	w24, [sp,#139]
 1ac:	1b087d29 	mul	w9, w9, w8
 1b0:	93407d28 	sxtw	x8, w9
 1b4:	8b29c953 	add	x19, x10, w9, sxtw #2
 1b8:	54000b49 	b.ls	320 <_ZL19stbi_write_hdr_coreP19stbi__write_contextiiiPf+0x320>
 1bc:	7100071f 	cmp	w24, #0x1
 1c0:	5400244b 	b.lt	648 <_ZL19stbi_write_hdr_coreP19stbi__write_contextiiiPf+0x648>
 1c4:	b9402be9 	ldr	w9, [sp,#40]
 1c8:	f94027f4 	ldr	x20, [sp,#72]
 1cc:	f9402ff5 	ldr	x21, [sp,#88]
 1d0:	7100093f 	cmp	w9, #0x2
 1d4:	54000682 	b.cs	2a4 <_ZL19stbi_write_hdr_coreP19stbi__write_contextiiiPf+0x2a4>
 1d8:	f9400fe9 	ldr	x9, [sp,#24]
 1dc:	f94027f4 	ldr	x20, [sp,#72]
 1e0:	8b080933 	add	x19, x9, x8, lsl #2
 1e4:	b9400268 	ldr	w8, [x19]
 1e8:	b81743a8 	stur	w8, [x29,#-140]
 1ec:	b85fc269 	ldur	w9, [x19,#-4]
 1f0:	1e27010b 	fmov	s11, w8
 1f4:	321d03e8 	orr	w8, wzr, #0x8
 1f8:	b81703a9 	stur	w9, [x29,#-144]
 1fc:	bc5f826a 	ldur	s10, [x19,#-8]
 200:	1e27012c 	fmov	s12, w9
 204:	1e2c2160 	fcmp	s11, s12
 208:	321e03e9 	orr	w9, wzr, #0x4
 20c:	bc16c3aa 	stur	s10, [x29,#-148]
 210:	9a88b128 	csel	x8, x9, x8, lt
 214:	d10253a9 	sub	x9, x29, #0x94
 218:	bc686920 	ldr	s0, [x9,x8]
 21c:	1e20694d 	fmaxnm	s13, s10, s0
 220:	1e2821a0 	fcmp	s13, s8
 224:	540000aa 	b.ge	238 <_ZL19stbi_write_hdr_coreP19stbi__write_contextiiiPf+0x238>
 228:	2a1f03e8 	mov	w8, wzr
 22c:	2a1f03e9 	mov	w9, wzr
 230:	79012bff 	strh	wzr, [sp,#148]
 234:	14000011 	b	278 <_ZL19stbi_write_hdr_coreP19stbi__write_contextiiiPf+0x278>
 238:	1e22c1a0 	fcvt	d0, s13
 23c:	910233e0 	add	x0, sp, #0x8c
 240:	94000000 	bl	0 <frexp>
 244:	1e624000 	fcvt	s0, d0
 248:	b9408fe9 	ldr	w9, [sp,#140]
 24c:	1e290800 	fmul	s0, s0, s9
 250:	1e2d1800 	fdiv	s0, s0, s13
 254:	1e2a0801 	fmul	s1, s0, s10
 258:	1e2c0802 	fmul	s2, s0, s12
 25c:	1e2b0800 	fmul	s0, s0, s11
 260:	1e38002a 	fcvtzs	w10, s1
 264:	1e38004b 	fcvtzs	w11, s2
 268:	1e380008 	fcvtzs	w8, s0
 26c:	390253ea 	strb	w10, [sp,#148]
 270:	390257eb 	strb	w11, [sp,#149]
 274:	11020129 	add	w9, w9, #0x80
 278:	39025be8 	strb	w8, [sp,#150]
 27c:	39025fe9 	strb	w9, [sp,#151]
 280:	a94002c8 	ldp	x8, x0, [x22]
 284:	f9402ff5 	ldr	x21, [sp,#88]
 288:	910253e1 	add	x1, sp, #0x94
 28c:	321e03e2 	orr	w2, wzr, #0x4
 290:	d63f0100 	blr	x8
 294:	d1000694 	sub	x20, x20, #0x1
 298:	8b150273 	add	x19, x19, x21
 29c:	b5fffa54 	cbnz	x20, 1e4 <_ZL19stbi_write_hdr_coreP19stbi__write_contextiiiPf+0x1e4>
 2a0:	140000ea 	b	648 <_ZL19stbi_write_hdr_coreP19stbi__write_contextiiiPf+0x648>
 2a4:	bd40026a 	ldr	s10, [x19]
 2a8:	1e282140 	fcmp	s10, s8
 2ac:	540000aa 	b.ge	2c0 <_ZL19stbi_write_hdr_coreP19stbi__write_contextiiiPf+0x2c0>
 2b0:	2a1f03e8 	mov	w8, wzr
 2b4:	2a1f03e9 	mov	w9, wzr
 2b8:	79012bff 	strh	wzr, [sp,#148]
 2bc:	1400000d 	b	2f0 <_ZL19stbi_write_hdr_coreP19stbi__write_contextiiiPf+0x2f0>
 2c0:	1e22c140 	fcvt	d0, s10
 2c4:	910233e0 	add	x0, sp, #0x8c
 2c8:	94000000 	bl	0 <frexp>
 2cc:	1e624000 	fcvt	s0, d0
 2d0:	b9408fe9 	ldr	w9, [sp,#140]
 2d4:	1e290800 	fmul	s0, s0, s9
 2d8:	1e2a1800 	fdiv	s0, s0, s10
 2dc:	1e2a0800 	fmul	s0, s0, s10
 2e0:	1e380008 	fcvtzs	w8, s0
 2e4:	11020129 	add	w9, w9, #0x80
 2e8:	390253e8 	strb	w8, [sp,#148]
 2ec:	390257e8 	strb	w8, [sp,#149]
 2f0:	39025be8 	strb	w8, [sp,#150]
 2f4:	39025fe9 	strb	w9, [sp,#151]
 2f8:	a94002c8 	ldp	x8, x0, [x22]
 2fc:	910253e1 	add	x1, sp, #0x94
 300:	321e03e2 	orr	w2, wzr, #0x4
 304:	d63f0100 	blr	x8
 308:	d1000694 	sub	x20, x20, #0x1
 30c:	8b150273 	add	x19, x19, x21
 310:	b5fffcb4 	cbnz	x20, 2a4 <_ZL19stbi_write_hdr_coreP19stbi__write_contextiiiPf+0x2a4>
 314:	2d2e2baa 	stp	s10, s10, [x29,#-144]
 318:	bc16c3aa 	stur	s10, [x29,#-148]
 31c:	140000cb 	b	648 <_ZL19stbi_write_hdr_coreP19stbi__write_contextiiiPf+0x648>
 320:	b9402be9 	ldr	w9, [sp,#40]
 324:	f94027f4 	ldr	x20, [sp,#72]
 328:	f94033f5 	ldr	x21, [sp,#96]
 32c:	7100093f 	cmp	w9, #0x2
 330:	540006e2 	b.cs	40c <_ZL19stbi_write_hdr_coreP19stbi__write_contextiiiPf+0x40c>
 334:	f9400fe9 	ldr	x9, [sp,#24]
 338:	f94027f4 	ldr	x20, [sp,#72]
 33c:	f94033f5 	ldr	x21, [sp,#96]
 340:	8b080933 	add	x19, x9, x8, lsl #2
 344:	b9400268 	ldr	w8, [x19]
 348:	b81743a8 	stur	w8, [x29,#-140]
 34c:	b85fc269 	ldur	w9, [x19,#-4]
 350:	1e27010b 	fmov	s11, w8
 354:	b81703a9 	stur	w9, [x29,#-144]
 358:	bc5f826a 	ldur	s10, [x19,#-8]
 35c:	1e27012c 	fmov	s12, w9
 360:	1e2c2160 	fcmp	s11, s12
 364:	9a99b348 	csel	x8, x26, x25, lt
 368:	bc16c3aa 	stur	s10, [x29,#-148]
 36c:	d10253a9 	sub	x9, x29, #0x94
 370:	bc686920 	ldr	s0, [x9,x8]
 374:	1e20694d 	fmaxnm	s13, s10, s0
 378:	1e2821a0 	fcmp	s13, s8
 37c:	540000ea 	b.ge	398 <_ZL19stbi_write_hdr_coreP19stbi__write_contextiiiPf+0x398>
 380:	2a1f03e8 	mov	w8, wzr
 384:	2a1f03ea 	mov	w10, wzr
 388:	2a1f03e9 	mov	w9, wzr
 38c:	2a1f03eb 	mov	w11, wzr
 390:	79012bff 	strh	wzr, [sp,#148]
 394:	14000011 	b	3d8 <_ZL19stbi_write_hdr_coreP19stbi__write_contextiiiPf+0x3d8>
 398:	1e22c1a0 	fcvt	d0, s13
 39c:	910233e0 	add	x0, sp, #0x8c
 3a0:	94000000 	bl	0 <frexp>
 3a4:	1e624000 	fcvt	s0, d0
 3a8:	b9408feb 	ldr	w11, [sp,#140]
 3ac:	1e290800 	fmul	s0, s0, s9
 3b0:	1e2d1800 	fdiv	s0, s0, s13
 3b4:	1e2a0801 	fmul	s1, s0, s10
 3b8:	1e2c0802 	fmul	s2, s0, s12
 3bc:	1e2b0800 	fmul	s0, s0, s11
 3c0:	1e38002a 	fcvtzs	w10, s1
 3c4:	1e380048 	fcvtzs	w8, s2
 3c8:	1e380009 	fcvtzs	w9, s0
 3cc:	390253ea 	strb	w10, [sp,#148]
 3d0:	390257e8 	strb	w8, [sp,#149]
 3d4:	1102016b 	add	w11, w11, #0x80
 3d8:	39025be9 	strb	w9, [sp,#150]
 3dc:	39025feb 	strb	w11, [sp,#151]
 3e0:	390002aa 	strb	w10, [x21]
 3e4:	38356b68 	strb	w8, [x27,x21]
 3e8:	f94037e8 	ldr	x8, [sp,#104]
 3ec:	d1000694 	sub	x20, x20, #0x1
 3f0:	8b170273 	add	x19, x19, x23
 3f4:	38356909 	strb	w9, [x8,x21]
 3f8:	f9403be8 	ldr	x8, [sp,#112]
 3fc:	3835690b 	strb	w11, [x8,x21]
 400:	910006b5 	add	x21, x21, #0x1
 404:	b5fffa14 	cbnz	x20, 344 <_ZL19stbi_write_hdr_coreP19stbi__write_contextiiiPf+0x344>
 408:	14000022 	b	490 <_ZL19stbi_write_hdr_coreP19stbi__write_contextiiiPf+0x490>
 40c:	bd40026a 	ldr	s10, [x19]
 410:	1e282140 	fcmp	s10, s8
 414:	540000aa 	b.ge	428 <_ZL19stbi_write_hdr_coreP19stbi__write_contextiiiPf+0x428>
 418:	2a1f03e8 	mov	w8, wzr
 41c:	2a1f03e9 	mov	w9, wzr
 420:	79012bff 	strh	wzr, [sp,#148]
 424:	1400000d 	b	458 <_ZL19stbi_write_hdr_coreP19stbi__write_contextiiiPf+0x458>
 428:	1e22c140 	fcvt	d0, s10
 42c:	910233e0 	add	x0, sp, #0x8c
 430:	94000000 	bl	0 <frexp>
 434:	1e624000 	fcvt	s0, d0
 438:	b9408fe9 	ldr	w9, [sp,#140]
 43c:	1e290800 	fmul	s0, s0, s9
 440:	1e2a1800 	fdiv	s0, s0, s10
 444:	1e2a0800 	fmul	s0, s0, s10
 448:	1e380008 	fcvtzs	w8, s0
 44c:	11020129 	add	w9, w9, #0x80
 450:	390253e8 	strb	w8, [sp,#148]
 454:	390257e8 	strb	w8, [sp,#149]
 458:	39025be8 	strb	w8, [sp,#150]
 45c:	39025fe9 	strb	w9, [sp,#151]
 460:	390002a8 	strb	w8, [x21]
 464:	38356b68 	strb	w8, [x27,x21]
 468:	f94037ea 	ldr	x10, [sp,#104]
 46c:	d1000694 	sub	x20, x20, #0x1
 470:	8b170273 	add	x19, x19, x23
 474:	38356948 	strb	w8, [x10,x21]
 478:	f9403be8 	ldr	x8, [sp,#112]
 47c:	38356909 	strb	w9, [x8,x21]
 480:	910006b5 	add	x21, x21, #0x1
 484:	b5fffc54 	cbnz	x20, 40c <_ZL19stbi_write_hdr_coreP19stbi__write_contextiiiPf+0x40c>
 488:	2d2e2baa 	stp	s10, s10, [x29,#-144]
 48c:	bc16c3aa 	stur	s10, [x29,#-148]
 490:	a94002c8 	ldp	x8, x0, [x22]
 494:	910223e1 	add	x1, sp, #0x88
 498:	321e03e2 	orr	w2, wzr, #0x4
 49c:	d63f0100 	blr	x8
 4a0:	f94033f4 	ldr	x20, [sp,#96]
 4a4:	f94013f3 	ldr	x19, [sp,#32]
 4a8:	f9003fff 	str	xzr, [sp,#120]
 4ac:	7100071f 	cmp	w24, #0x1
 4b0:	54000beb 	b.lt	62c <_ZL19stbi_write_hdr_coreP19stbi__write_contextiiiPf+0x62c>
 4b4:	f94033e8 	ldr	x8, [sp,#96]
 4b8:	f9403fe9 	ldr	x9, [sp,#120]
 4bc:	2a1f03fa 	mov	w26, wzr
 4c0:	9b1b2135 	madd	x21, x9, x27, x8
 4c4:	93407f48 	sxtw	x8, w26
 4c8:	91000909 	add	x9, x8, #0x2
 4cc:	6b18013f 	cmp	w9, w24
 4d0:	2a1803f7 	mov	w23, w24
 4d4:	5400040a 	b.ge	554 <_ZL19stbi_write_hdr_coreP19stbi__write_contextiiiPf+0x554>
 4d8:	38686aab 	ldrb	w11, [x21,x8]
 4dc:	8b090289 	add	x9, x20, x9
 4e0:	2a1a03f7 	mov	w23, w26
 4e4:	38686a6a 	ldrb	w10, [x19,x8]
 4e8:	12001d6b 	and	w11, w11, #0xff
 4ec:	6b0a017f 	cmp	w11, w10
 4f0:	54000081 	b.ne	500 <_ZL19stbi_write_hdr_coreP19stbi__write_contextiiiPf+0x500>
 4f4:	3940012c 	ldrb	w12, [x9]
 4f8:	6b0c017f 	cmp	w11, w12
 4fc:	540002c0 	b.eq	554 <_ZL19stbi_write_hdr_coreP19stbi__write_contextiiiPf+0x554>
 500:	91000508 	add	x8, x8, #0x1
 504:	9100090b 	add	x11, x8, #0x2
 508:	110006f7 	add	w23, w23, #0x1
 50c:	eb1b017f 	cmp	x11, x27
 510:	91000529 	add	x9, x9, #0x1
 514:	2a0a03eb 	mov	w11, w10
 518:	54fffe6b 	b.lt	4e4 <_ZL19stbi_write_hdr_coreP19stbi__write_contextiiiPf+0x4e4>
 51c:	2a1803f7 	mov	w23, w24
 520:	6b1a02ff 	cmp	w23, w26
 524:	540001cc 	b.gt	55c <_ZL19stbi_write_hdr_coreP19stbi__write_contextiiiPf+0x55c>
 528:	14000014 	b	578 <_ZL19stbi_write_hdr_coreP19stbi__write_contextiiiPf+0x578>
 52c:	a94002c8 	ldp	x8, x0, [x22]
 530:	910233e1 	add	x1, sp, #0x8c
 534:	320003e2 	orr	w2, wzr, #0x1
 538:	8b3ac2b9 	add	x25, x21, w26, sxtw
 53c:	d63f0100 	blr	x8
 540:	a94002c8 	ldp	x8, x0, [x22]
 544:	aa1903e1 	mov	x1, x25
 548:	2a1803e2 	mov	w2, w24
 54c:	d63f0100 	blr	x8
 550:	0b1a031a 	add	w26, w24, w26
 554:	6b1a02ff 	cmp	w23, w26
 558:	5400010d 	b.le	578 <_ZL19stbi_write_hdr_coreP19stbi__write_contextiiiPf+0x578>
 55c:	4b1a02e8 	sub	w8, w23, w26
 560:	7102011f 	cmp	w8, #0x80
 564:	1a9cb118 	csel	w24, w8, w28, lt
 568:	7102071f 	cmp	w24, #0x81
 56c:	390233f8 	strb	w24, [sp,#140]
 570:	54fffdeb 	b.lt	52c <_ZL19stbi_write_hdr_coreP19stbi__write_contextiiiPf+0x52c>
 574:	14000050 	b	6b4 <_ZL19stbi_write_hdr_coreP19stbi__write_contextiiiPf+0x6b4>
 578:	f94043f8 	ldr	x24, [sp,#128]
 57c:	11000ae8 	add	w8, w23, #0x2
 580:	6b18011f 	cmp	w8, w24
 584:	5400050a 	b.ge	624 <_ZL19stbi_write_hdr_coreP19stbi__write_contextiiiPf+0x624>
 588:	387acaa8 	ldrb	w8, [x21,w26,sxtw]
 58c:	93407ef7 	sxtw	x23, w23
 590:	32001bf9 	orr	w25, wzr, #0x7f
 594:	38776a89 	ldrb	w9, [x20,x23]
 598:	6b08013f 	cmp	w9, w8
 59c:	54000081 	b.ne	5ac <_ZL19stbi_write_hdr_coreP19stbi__write_contextiiiPf+0x5ac>
 5a0:	910006f7 	add	x23, x23, #0x1
 5a4:	eb1b02ff 	cmp	x23, x27
 5a8:	54ffff6b 	b.lt	594 <_ZL19stbi_write_hdr_coreP19stbi__write_contextiiiPf+0x594>
 5ac:	6b1a02e9 	subs	w9, w23, w26
 5b0:	540003ad 	b.le	624 <_ZL19stbi_write_hdr_coreP19stbi__write_contextiiiPf+0x624>
 5b4:	7101fd3f 	cmp	w9, #0x7f
 5b8:	1a99b138 	csel	w24, w9, w25, lt
 5bc:	390233e8 	strb	w8, [sp,#140]
 5c0:	11020308 	add	w8, w24, #0x80
 5c4:	7101ff1f 	cmp	w24, #0x7f
 5c8:	390243e8 	strb	w8, [sp,#144]
 5cc:	5400084c 	b.gt	6d4 <_ZL19stbi_write_hdr_coreP19stbi__write_contextiiiPf+0x6d4>
 5d0:	a94002c8 	ldp	x8, x0, [x22]
 5d4:	910243e1 	add	x1, sp, #0x90
 5d8:	320003e2 	orr	w2, wzr, #0x1
 5dc:	d63f0100 	blr	x8
 5e0:	a94002c8 	ldp	x8, x0, [x22]
 5e4:	910233e1 	add	x1, sp, #0x8c
 5e8:	320003e2 	orr	w2, wzr, #0x1
 5ec:	d63f0100 	blr	x8
 5f0:	0b1a031a 	add	w26, w24, w26
 5f4:	6b1a02e8 	subs	w8, w23, w26
 5f8:	5400014d 	b.le	620 <_ZL19stbi_write_hdr_coreP19stbi__write_contextiiiPf+0x620>
 5fc:	387acaa9 	ldrb	w9, [x21,w26,sxtw]
 600:	7101fd1f 	cmp	w8, #0x7f
 604:	1a99b118 	csel	w24, w8, w25, lt
 608:	11020308 	add	w8, w24, #0x80
 60c:	7102031f 	cmp	w24, #0x80
 610:	390233e9 	strb	w9, [sp,#140]
 614:	390243e8 	strb	w8, [sp,#144]
 618:	54fffdcb 	b.lt	5d0 <_ZL19stbi_write_hdr_coreP19stbi__write_contextiiiPf+0x5d0>
 61c:	1400002e 	b	6d4 <_ZL19stbi_write_hdr_coreP19stbi__write_contextiiiPf+0x6d4>
 620:	f94043f8 	ldr	x24, [sp,#128]
 624:	6b18035f 	cmp	w26, w24
 628:	54fff4eb 	b.lt	4c4 <_ZL19stbi_write_hdr_coreP19stbi__write_contextiiiPf+0x4c4>
 62c:	f9403fe8 	ldr	x8, [sp,#120]
 630:	8b1b0273 	add	x19, x19, x27
 634:	8b1b0294 	add	x20, x20, x27
 638:	f1000d1f 	cmp	x8, #0x3
 63c:	91000508 	add	x8, x8, #0x1
 640:	f9003fe8 	str	x8, [sp,#120]
 644:	54fff34b 	b.lt	4ac <_ZL19stbi_write_hdr_coreP19stbi__write_contextiiiPf+0x4ac>
 648:	b94057ed 	ldr	w13, [sp,#84]
 64c:	b9402ff3 	ldr	w19, [sp,#44]
 650:	f9402ff7 	ldr	x23, [sp,#88]
 654:	321d03f9 	orr	w25, wzr, #0x8
 658:	110005ad 	add	w13, w13, #0x1
 65c:	6b1301bf 	cmp	w13, w19
 660:	321e03fa 	orr	w26, wzr, #0x4
 664:	54ffd80b 	b.lt	164 <_ZL19stbi_write_hdr_coreP19stbi__write_contextiiiPf+0x164>
 668:	f94033e0 	ldr	x0, [sp,#96]
 66c:	94000000 	bl	0 <free>
 670:	f9400be9 	ldr	x9, [sp,#16]
 674:	320003e0 	orr	w0, wzr, #0x1
 678:	f9401528 	ldr	x8, [x9,#40]
 67c:	f85783a9 	ldur	x9, [x29,#-136]
 680:	eb09011f 	cmp	x8, x9
 684:	54000381 	b.ne	6f4 <_ZL19stbi_write_hdr_coreP19stbi__write_contextiiiPf+0x6f4>
 688:	9105c3ff 	add	sp, sp, #0x170
 68c:	a9487bfd 	ldp	x29, x30, [sp,#128]
 690:	a9474ff4 	ldp	x20, x19, [sp,#112]
 694:	a94657f6 	ldp	x22, x21, [sp,#96]
 698:	a9455ff8 	ldp	x24, x23, [sp,#80]
 69c:	a94467fa 	ldp	x26, x25, [sp,#64]
 6a0:	a9436ffc 	ldp	x28, x27, [sp,#48]
 6a4:	6d4223e9 	ldp	d9, d8, [sp,#32]
 6a8:	6d412beb 	ldp	d11, d10, [sp,#16]
 6ac:	6cc933ed 	ldp	d13, d12, [sp],#144
 6b0:	d65f03c0 	ret
 6b4:	90000000 	adrp	x0, 0 <_ZL19stbi_write_hdr_coreP19stbi__write_contextiiiPf>
 6b8:	90000002 	adrp	x2, 0 <_ZL19stbi_write_hdr_coreP19stbi__write_contextiiiPf>
 6bc:	90000003 	adrp	x3, 0 <_ZL19stbi_write_hdr_coreP19stbi__write_contextiiiPf>
 6c0:	91000000 	add	x0, x0, #0x0
 6c4:	91000042 	add	x2, x2, #0x0
 6c8:	91000063 	add	x3, x3, #0x0
 6cc:	52804f41 	mov	w1, #0x27a                 	// #634
 6d0:	94000000 	bl	0 <__assert2>
 6d4:	90000000 	adrp	x0, 0 <_ZL19stbi_write_hdr_coreP19stbi__write_contextiiiPf>
 6d8:	90000002 	adrp	x2, 0 <_ZL19stbi_write_hdr_coreP19stbi__write_contextiiiPf>
 6dc:	90000003 	adrp	x3, 0 <_ZL19stbi_write_hdr_coreP19stbi__write_contextiiiPf>
 6e0:	91000000 	add	x0, x0, #0x0
 6e4:	91000042 	add	x2, x2, #0x0
 6e8:	91000063 	add	x3, x3, #0x0
 6ec:	52804e41 	mov	w1, #0x272                 	// #626
 6f0:	94000000 	bl	0 <__assert2>
 6f4:	94000000 	bl	0 <__stack_chk_fail>

Disassembly of section .text.stbi_write_hdr:

0000000000000000 <stbi_write_hdr>:
   0:	d10183ff 	sub	sp, sp, #0x60
   4:	a9025ff8 	stp	x24, x23, [sp,#32]
   8:	a90357f6 	stp	x22, x21, [sp,#48]
   c:	a9044ff4 	stp	x20, x19, [sp,#64]
  10:	a9057bfd 	stp	x29, x30, [sp,#80]
  14:	910143fd 	add	x29, sp, #0x50
  18:	d53bd058 	mrs	x24, tpidr_el0
  1c:	f9401708 	ldr	x8, [x24,#40]
  20:	2a0103f6 	mov	w22, w1
  24:	90000001 	adrp	x1, 0 <stbi_write_hdr>
  28:	91000021 	add	x1, x1, #0x0
  2c:	aa0403f3 	mov	x19, x4
  30:	2a0303f4 	mov	w20, w3
  34:	2a0203f5 	mov	w21, w2
  38:	f9000fe8 	str	x8, [sp,#24]
  3c:	94000000 	bl	0 <fopen>
  40:	90000008 	adrp	x8, 0 <stbi_write_hdr>
  44:	aa0003f7 	mov	x23, x0
  48:	91000108 	add	x8, x8, #0x0
  4c:	a900dfe8 	stp	x8, x23, [sp,#8]
  50:	b4000177 	cbz	x23, 7c <stbi_write_hdr+0x7c>
  54:	910023e0 	add	x0, sp, #0x8
  58:	2a1603e1 	mov	w1, w22
  5c:	2a1503e2 	mov	w2, w21
  60:	2a1403e3 	mov	w3, w20
  64:	aa1303e4 	mov	x4, x19
  68:	94000000 	bl	0 <stbi_write_hdr>
  6c:	2a0003f3 	mov	w19, w0
  70:	aa1703e0 	mov	x0, x23
  74:	94000000 	bl	0 <fclose>
  78:	14000002 	b	80 <stbi_write_hdr+0x80>
  7c:	2a1f03f3 	mov	w19, wzr
  80:	f9401708 	ldr	x8, [x24,#40]
  84:	f9400fe9 	ldr	x9, [sp,#24]
  88:	eb09011f 	cmp	x8, x9
  8c:	54000101 	b.ne	ac <stbi_write_hdr+0xac>
  90:	2a1303e0 	mov	w0, w19
  94:	a9457bfd 	ldp	x29, x30, [sp,#80]
  98:	a9444ff4 	ldp	x20, x19, [sp,#64]
  9c:	a94357f6 	ldp	x22, x21, [sp,#48]
  a0:	a9425ff8 	ldp	x24, x23, [sp,#32]
  a4:	910183ff 	add	sp, sp, #0x60
  a8:	d65f03c0 	ret
  ac:	94000000 	bl	0 <__stack_chk_fail>

Disassembly of section .text.stbi_zlib_compress:

0000000000000000 <stbi_zlib_compress>:
   0:	d102c3ff 	sub	sp, sp, #0xb0
   4:	a9056ffc 	stp	x28, x27, [sp,#80]
   8:	a90667fa 	stp	x26, x25, [sp,#96]
   c:	a9075ff8 	stp	x24, x23, [sp,#112]
  10:	a90857f6 	stp	x22, x21, [sp,#128]
  14:	a9094ff4 	stp	x20, x19, [sp,#144]
  18:	a90a7bfd 	stp	x29, x30, [sp,#160]
  1c:	910283fd 	add	x29, sp, #0xa0
  20:	f90027e0 	str	x0, [sp,#72]
  24:	320f03e0 	orr	w0, wzr, #0x20000
  28:	2a0303f6 	mov	w22, w3
  2c:	aa0203f3 	mov	x19, x2
  30:	2a0103fa 	mov	w26, w1
  34:	94000000 	bl	0 <malloc>
  38:	aa0003f9 	mov	x25, x0
  3c:	b40005f9 	cbz	x25, f8 <stbi_zlib_compress+0xf8>
  40:	710016df 	cmp	w22, #0x5
  44:	528000a8 	mov	w8, #0x5                   	// #5
  48:	1a88c2c8 	csel	w8, w22, w8, gt
  4c:	52800141 	mov	w1, #0xa                   	// #10
  50:	aa1f03e0 	mov	x0, xzr
  54:	b90023e8 	str	w8, [sp,#32]
  58:	94000000 	bl	0 <realloc>
  5c:	b4007b00 	cbz	x0, fbc <stbi_zlib_compress+0xfbc>
  60:	b20003e8 	mov	x8, #0x100000001           	// #4294967297
  64:	f2800048 	movk	x8, #0x2
  68:	321d0fe9 	orr	w9, wzr, #0x78
  6c:	528001a1 	mov	w1, #0xd                   	// #13
  70:	f9000008 	str	x8, [x0]
  74:	39002009 	strb	w9, [x0,#8]
  78:	94000000 	bl	0 <realloc>
  7c:	b4007a00 	cbz	x0, fbc <stbi_zlib_compress+0xfbc>
  80:	b9800408 	ldrsw	x8, [x0,#4]
  84:	528000a9 	mov	w9, #0x5                   	// #5
  88:	b9000009 	str	w9, [x0]
  8c:	91002016 	add	x22, x0, #0x8
  90:	11000509 	add	w9, w8, #0x1
  94:	52800bca 	mov	w10, #0x5e                  	// #94
  98:	b9000409 	str	w9, [x0,#4]
  9c:	320f03e2 	orr	w2, wzr, #0x20000
  a0:	aa1903e0 	mov	x0, x25
  a4:	2a1f03e1 	mov	w1, wzr
  a8:	f90007f3 	str	x19, [sp,#8]
  ac:	38286aca 	strb	w10, [x22,x8]
  b0:	94000000 	bl	0 <memset>
  b4:	7100135f 	cmp	w26, #0x4
  b8:	5400024b 	b.lt	100 <stbi_zlib_compress+0x100>
  bc:	51000f48 	sub	w8, w26, #0x3
  c0:	b90037e8 	str	w8, [sp,#52]
  c4:	b94023e8 	ldr	w8, [sp,#32]
  c8:	2a1f03ec 	mov	w12, wzr
  cc:	320007f4 	orr	w20, wzr, #0x3
  d0:	320007f3 	orr	w19, wzr, #0x3
  d4:	531f7909 	lsl	w9, w8, #1
  d8:	2a0803e8 	mov	w8, w8
  dc:	f9000fe8 	str	x8, [sp,#24]
  e0:	d37df108 	lsl	x8, x8, #3
  e4:	b90027e9 	str	w9, [sp,#36]
  e8:	f9000be8 	str	x8, [sp,#16]
  ec:	f90017fa 	str	x26, [sp,#40]
  f0:	f90023f9 	str	x25, [sp,#64]
  f4:	1400000c 	b	124 <stbi_zlib_compress+0x124>
  f8:	aa1f03f3 	mov	x19, xzr
  fc:	140003a7 	b	f98 <stbi_zlib_compress+0xf98>
 100:	2a1f03ec 	mov	w12, wzr
 104:	320007f3 	orr	w19, wzr, #0x3
 108:	320007f4 	orr	w20, wzr, #0x3
 10c:	6b1a019f 	cmp	w12, w26
 110:	5400516b 	b.lt	b3c <stbi_zlib_compress+0xb3c>
 114:	2a1403e8 	mov	w8, w20
 118:	140002d9 	b	c7c <stbi_zlib_compress+0xc7c>
 11c:	11001e88 	add	w8, w20, #0x7
 120:	140001e5 	b	8b4 <stbi_zlib_compress+0x8b4>
 124:	f94027e8 	ldr	x8, [sp,#72]
 128:	8b2cc117 	add	x23, x8, w12, sxtw
 12c:	aa1703f8 	mov	x24, x23
 130:	38401f08 	ldrb	w8, [x24,#1]!
 134:	394002e9 	ldrb	w9, [x23]
 138:	39400aea 	ldrb	w10, [x23,#2]
 13c:	f9001fec 	str	x12, [sp,#56]
 140:	33181d09 	bfi	w9, w8, #8, #8
 144:	33101d49 	bfi	w9, w10, #16, #8
 148:	4a090d28 	eor	w8, w9, w9, lsl #3
 14c:	0b481508 	add	w8, w8, w8, lsr #5
 150:	4a081108 	eor	w8, w8, w8, lsl #4
 154:	0b484508 	add	w8, w8, w8, lsr #17
 158:	0b481908 	add	w8, w8, w8, lsr #6
 15c:	12003515 	and	w21, w8, #0x3fff
 160:	f8755b39 	ldr	x25, [x25,w21,uxtw #3]
 164:	b40004f9 	cbz	x25, 200 <stbi_zlib_compress+0x200>
 168:	b85fc328 	ldur	w8, [x25,#-4]
 16c:	7100051f 	cmp	w8, #0x1
 170:	5400050b 	b.lt	210 <stbi_zlib_compress+0x210>
 174:	4b0c034a 	sub	w10, w26, w12
 178:	7100055f 	cmp	w10, #0x1
 17c:	5400050b 	b.lt	21c <stbi_zlib_compress+0x21c>
 180:	5140218b 	sub	w11, w12, #0x8, lsl #12
 184:	aa1f03e9 	mov	x9, xzr
 188:	aa1f03fb 	mov	x27, xzr
 18c:	93407d4a 	sxtw	x10, w10
 190:	93407d6b 	sxtw	x11, w11
 194:	320007fc 	orr	w28, wzr, #0x3
 198:	f8697b2c 	ldr	x12, [x25,x9,lsl #3]
 19c:	f94027ed 	ldr	x13, [sp,#72]
 1a0:	cb0d018d 	sub	x13, x12, x13
 1a4:	eb0b01bf 	cmp	x13, x11
 1a8:	5400022d 	b.le	1ec <stbi_zlib_compress+0x1ec>
 1ac:	aa1f03ed 	mov	x13, xzr
 1b0:	386d698e 	ldrb	w14, [x12,x13]
 1b4:	386d6aef 	ldrb	w15, [x23,x13]
 1b8:	6b0f01df 	cmp	w14, w15
 1bc:	54000101 	b.ne	1dc <stbi_zlib_compress+0x1dc>
 1c0:	f10401bf 	cmp	x13, #0x100
 1c4:	910005ae 	add	x14, x13, #0x1
 1c8:	540000cc 	b.gt	1e0 <stbi_zlib_compress+0x1e0>
 1cc:	eb0a01df 	cmp	x14, x10
 1d0:	aa0e03ed 	mov	x13, x14
 1d4:	54fffeeb 	b.lt	1b0 <stbi_zlib_compress+0x1b0>
